
BMS Tester - Cell Emulator.elf:     file format elf32-littlearm

Sections:
Idx Name          Size      VMA       LMA       File off  Algn
  0 .isr_vector   000001ac  08000000  08000000  00001000  2**0
                  CONTENTS, ALLOC, LOAD, READONLY, DATA
  1 .text         00006d2c  080001b0  080001b0  000011b0  2**3
                  CONTENTS, ALLOC, LOAD, READONLY, CODE
  2 .rodata       00000da4  08006edc  08006edc  00007edc  2**2
                  CONTENTS, ALLOC, LOAD, READONLY, DATA
  3 .ARM.extab    00000000  08007c80  08007c80  000095ec  2**0
                  CONTENTS
  4 .ARM          00000008  08007c80  08007c80  00008c80  2**2
                  CONTENTS, ALLOC, LOAD, READONLY, DATA
  5 .preinit_array 00000000  08007c88  08007c88  000095ec  2**0
                  CONTENTS, ALLOC, LOAD, DATA
  6 .init_array   00000004  08007c88  08007c88  00008c88  2**2
                  CONTENTS, ALLOC, LOAD, READONLY, DATA
  7 .fini_array   00000004  08007c8c  08007c8c  00008c8c  2**2
                  CONTENTS, ALLOC, LOAD, READONLY, DATA
  8 .data         000005ec  20000000  08007c90  00009000  2**2
                  CONTENTS, ALLOC, LOAD, DATA
  9 .ccmram       00000000  10000000  10000000  000095ec  2**0
                  CONTENTS
 10 .bss          00000684  200005ec  200005ec  000095ec  2**2
                  ALLOC
 11 ._user_heap_stack 00000600  20000c70  20000c70  000095ec  2**0
                  ALLOC
 12 .ARM.attributes 00000030  00000000  00000000  000095ec  2**0
                  CONTENTS, READONLY
 13 .debug_info   00049cec  00000000  00000000  0000961c  2**0
                  CONTENTS, READONLY, DEBUGGING, OCTETS
 14 .debug_abbrev 00003e86  00000000  00000000  00053308  2**0
                  CONTENTS, READONLY, DEBUGGING, OCTETS
 15 .debug_aranges 000033c8  00000000  00000000  00057190  2**3
                  CONTENTS, READONLY, DEBUGGING, OCTETS
 16 .debug_rnglists 000026dc  00000000  00000000  0005a558  2**0
                  CONTENTS, READONLY, DEBUGGING, OCTETS
 17 .debug_macro  000037d7  00000000  00000000  0005cc34  2**0
                  CONTENTS, READONLY, DEBUGGING, OCTETS
 18 .debug_line   0001fea5  00000000  00000000  0006040b  2**0
                  CONTENTS, READONLY, DEBUGGING, OCTETS
 19 .debug_str    000ef45d  00000000  00000000  000802b0  2**0
                  CONTENTS, READONLY, DEBUGGING, OCTETS
 20 .comment      00000043  00000000  00000000  0016f70d  2**0
                  CONTENTS, READONLY
 21 .debug_frame  0000e294  00000000  00000000  0016f750  2**2
                  CONTENTS, READONLY, DEBUGGING, OCTETS
 22 .debug_line_str 0000006c  00000000  00000000  0017d9e4  2**0
                  CONTENTS, READONLY, DEBUGGING, OCTETS

Disassembly of section .text:

080001b0 <__do_global_dtors_aux>:
 80001b0:	b510      	push	{r4, lr}
 80001b2:	4c05      	ldr	r4, [pc, #20]	@ (80001c8 <__do_global_dtors_aux+0x18>)
 80001b4:	7823      	ldrb	r3, [r4, #0]
 80001b6:	b933      	cbnz	r3, 80001c6 <__do_global_dtors_aux+0x16>
 80001b8:	4b04      	ldr	r3, [pc, #16]	@ (80001cc <__do_global_dtors_aux+0x1c>)
 80001ba:	b113      	cbz	r3, 80001c2 <__do_global_dtors_aux+0x12>
 80001bc:	4804      	ldr	r0, [pc, #16]	@ (80001d0 <__do_global_dtors_aux+0x20>)
 80001be:	f3af 8000 	nop.w
 80001c2:	2301      	movs	r3, #1
 80001c4:	7023      	strb	r3, [r4, #0]
 80001c6:	bd10      	pop	{r4, pc}
 80001c8:	200005ec 	.word	0x200005ec
 80001cc:	00000000 	.word	0x00000000
 80001d0:	08006ec4 	.word	0x08006ec4

080001d4 <frame_dummy>:
 80001d4:	b508      	push	{r3, lr}
 80001d6:	4b03      	ldr	r3, [pc, #12]	@ (80001e4 <frame_dummy+0x10>)
 80001d8:	b11b      	cbz	r3, 80001e2 <frame_dummy+0xe>
 80001da:	4903      	ldr	r1, [pc, #12]	@ (80001e8 <frame_dummy+0x14>)
 80001dc:	4803      	ldr	r0, [pc, #12]	@ (80001ec <frame_dummy+0x18>)
 80001de:	f3af 8000 	nop.w
 80001e2:	bd08      	pop	{r3, pc}
 80001e4:	00000000 	.word	0x00000000
 80001e8:	200005f0 	.word	0x200005f0
 80001ec:	08006ec4 	.word	0x08006ec4

080001f0 <__aeabi_drsub>:
 80001f0:	f081 4100 	eor.w	r1, r1, #2147483648	@ 0x80000000
 80001f4:	e002      	b.n	80001fc <__adddf3>
 80001f6:	bf00      	nop

080001f8 <__aeabi_dsub>:
 80001f8:	f083 4300 	eor.w	r3, r3, #2147483648	@ 0x80000000

080001fc <__adddf3>:
 80001fc:	b530      	push	{r4, r5, lr}
 80001fe:	ea4f 0441 	mov.w	r4, r1, lsl #1
 8000202:	ea4f 0543 	mov.w	r5, r3, lsl #1
 8000206:	ea94 0f05 	teq	r4, r5
 800020a:	bf08      	it	eq
 800020c:	ea90 0f02 	teqeq	r0, r2
 8000210:	bf1f      	itttt	ne
 8000212:	ea54 0c00 	orrsne.w	ip, r4, r0
 8000216:	ea55 0c02 	orrsne.w	ip, r5, r2
 800021a:	ea7f 5c64 	mvnsne.w	ip, r4, asr #21
 800021e:	ea7f 5c65 	mvnsne.w	ip, r5, asr #21
 8000222:	f000 80e2 	beq.w	80003ea <__adddf3+0x1ee>
 8000226:	ea4f 5454 	mov.w	r4, r4, lsr #21
 800022a:	ebd4 5555 	rsbs	r5, r4, r5, lsr #21
 800022e:	bfb8      	it	lt
 8000230:	426d      	neglt	r5, r5
 8000232:	dd0c      	ble.n	800024e <__adddf3+0x52>
 8000234:	442c      	add	r4, r5
 8000236:	ea80 0202 	eor.w	r2, r0, r2
 800023a:	ea81 0303 	eor.w	r3, r1, r3
 800023e:	ea82 0000 	eor.w	r0, r2, r0
 8000242:	ea83 0101 	eor.w	r1, r3, r1
 8000246:	ea80 0202 	eor.w	r2, r0, r2
 800024a:	ea81 0303 	eor.w	r3, r1, r3
 800024e:	2d36      	cmp	r5, #54	@ 0x36
 8000250:	bf88      	it	hi
 8000252:	bd30      	pophi	{r4, r5, pc}
 8000254:	f011 4f00 	tst.w	r1, #2147483648	@ 0x80000000
 8000258:	ea4f 3101 	mov.w	r1, r1, lsl #12
 800025c:	f44f 1c80 	mov.w	ip, #1048576	@ 0x100000
 8000260:	ea4c 3111 	orr.w	r1, ip, r1, lsr #12
 8000264:	d002      	beq.n	800026c <__adddf3+0x70>
 8000266:	4240      	negs	r0, r0
 8000268:	eb61 0141 	sbc.w	r1, r1, r1, lsl #1
 800026c:	f013 4f00 	tst.w	r3, #2147483648	@ 0x80000000
 8000270:	ea4f 3303 	mov.w	r3, r3, lsl #12
 8000274:	ea4c 3313 	orr.w	r3, ip, r3, lsr #12
 8000278:	d002      	beq.n	8000280 <__adddf3+0x84>
 800027a:	4252      	negs	r2, r2
 800027c:	eb63 0343 	sbc.w	r3, r3, r3, lsl #1
 8000280:	ea94 0f05 	teq	r4, r5
 8000284:	f000 80a7 	beq.w	80003d6 <__adddf3+0x1da>
 8000288:	f1a4 0401 	sub.w	r4, r4, #1
 800028c:	f1d5 0e20 	rsbs	lr, r5, #32
 8000290:	db0d      	blt.n	80002ae <__adddf3+0xb2>
 8000292:	fa02 fc0e 	lsl.w	ip, r2, lr
 8000296:	fa22 f205 	lsr.w	r2, r2, r5
 800029a:	1880      	adds	r0, r0, r2
 800029c:	f141 0100 	adc.w	r1, r1, #0
 80002a0:	fa03 f20e 	lsl.w	r2, r3, lr
 80002a4:	1880      	adds	r0, r0, r2
 80002a6:	fa43 f305 	asr.w	r3, r3, r5
 80002aa:	4159      	adcs	r1, r3
 80002ac:	e00e      	b.n	80002cc <__adddf3+0xd0>
 80002ae:	f1a5 0520 	sub.w	r5, r5, #32
 80002b2:	f10e 0e20 	add.w	lr, lr, #32
 80002b6:	2a01      	cmp	r2, #1
 80002b8:	fa03 fc0e 	lsl.w	ip, r3, lr
 80002bc:	bf28      	it	cs
 80002be:	f04c 0c02 	orrcs.w	ip, ip, #2
 80002c2:	fa43 f305 	asr.w	r3, r3, r5
 80002c6:	18c0      	adds	r0, r0, r3
 80002c8:	eb51 71e3 	adcs.w	r1, r1, r3, asr #31
 80002cc:	f001 4500 	and.w	r5, r1, #2147483648	@ 0x80000000
 80002d0:	d507      	bpl.n	80002e2 <__adddf3+0xe6>
 80002d2:	f04f 0e00 	mov.w	lr, #0
 80002d6:	f1dc 0c00 	rsbs	ip, ip, #0
 80002da:	eb7e 0000 	sbcs.w	r0, lr, r0
 80002de:	eb6e 0101 	sbc.w	r1, lr, r1
 80002e2:	f5b1 1f80 	cmp.w	r1, #1048576	@ 0x100000
 80002e6:	d31b      	bcc.n	8000320 <__adddf3+0x124>
 80002e8:	f5b1 1f00 	cmp.w	r1, #2097152	@ 0x200000
 80002ec:	d30c      	bcc.n	8000308 <__adddf3+0x10c>
 80002ee:	0849      	lsrs	r1, r1, #1
 80002f0:	ea5f 0030 	movs.w	r0, r0, rrx
 80002f4:	ea4f 0c3c 	mov.w	ip, ip, rrx
 80002f8:	f104 0401 	add.w	r4, r4, #1
 80002fc:	ea4f 5244 	mov.w	r2, r4, lsl #21
 8000300:	f512 0f80 	cmn.w	r2, #4194304	@ 0x400000
 8000304:	f080 809a 	bcs.w	800043c <__adddf3+0x240>
 8000308:	f1bc 4f00 	cmp.w	ip, #2147483648	@ 0x80000000
 800030c:	bf08      	it	eq
 800030e:	ea5f 0c50 	movseq.w	ip, r0, lsr #1
 8000312:	f150 0000 	adcs.w	r0, r0, #0
 8000316:	eb41 5104 	adc.w	r1, r1, r4, lsl #20
 800031a:	ea41 0105 	orr.w	r1, r1, r5
 800031e:	bd30      	pop	{r4, r5, pc}
 8000320:	ea5f 0c4c 	movs.w	ip, ip, lsl #1
 8000324:	4140      	adcs	r0, r0
 8000326:	eb41 0101 	adc.w	r1, r1, r1
 800032a:	3c01      	subs	r4, #1
 800032c:	bf28      	it	cs
 800032e:	f5b1 1f80 	cmpcs.w	r1, #1048576	@ 0x100000
 8000332:	d2e9      	bcs.n	8000308 <__adddf3+0x10c>
 8000334:	f091 0f00 	teq	r1, #0
 8000338:	bf04      	itt	eq
 800033a:	4601      	moveq	r1, r0
 800033c:	2000      	moveq	r0, #0
 800033e:	fab1 f381 	clz	r3, r1
 8000342:	bf08      	it	eq
 8000344:	3320      	addeq	r3, #32
 8000346:	f1a3 030b 	sub.w	r3, r3, #11
 800034a:	f1b3 0220 	subs.w	r2, r3, #32
 800034e:	da0c      	bge.n	800036a <__adddf3+0x16e>
 8000350:	320c      	adds	r2, #12
 8000352:	dd08      	ble.n	8000366 <__adddf3+0x16a>
 8000354:	f102 0c14 	add.w	ip, r2, #20
 8000358:	f1c2 020c 	rsb	r2, r2, #12
 800035c:	fa01 f00c 	lsl.w	r0, r1, ip
 8000360:	fa21 f102 	lsr.w	r1, r1, r2
 8000364:	e00c      	b.n	8000380 <__adddf3+0x184>
 8000366:	f102 0214 	add.w	r2, r2, #20
 800036a:	bfd8      	it	le
 800036c:	f1c2 0c20 	rsble	ip, r2, #32
 8000370:	fa01 f102 	lsl.w	r1, r1, r2
 8000374:	fa20 fc0c 	lsr.w	ip, r0, ip
 8000378:	bfdc      	itt	le
 800037a:	ea41 010c 	orrle.w	r1, r1, ip
 800037e:	4090      	lslle	r0, r2
 8000380:	1ae4      	subs	r4, r4, r3
 8000382:	bfa2      	ittt	ge
 8000384:	eb01 5104 	addge.w	r1, r1, r4, lsl #20
 8000388:	4329      	orrge	r1, r5
 800038a:	bd30      	popge	{r4, r5, pc}
 800038c:	ea6f 0404 	mvn.w	r4, r4
 8000390:	3c1f      	subs	r4, #31
 8000392:	da1c      	bge.n	80003ce <__adddf3+0x1d2>
 8000394:	340c      	adds	r4, #12
 8000396:	dc0e      	bgt.n	80003b6 <__adddf3+0x1ba>
 8000398:	f104 0414 	add.w	r4, r4, #20
 800039c:	f1c4 0220 	rsb	r2, r4, #32
 80003a0:	fa20 f004 	lsr.w	r0, r0, r4
 80003a4:	fa01 f302 	lsl.w	r3, r1, r2
 80003a8:	ea40 0003 	orr.w	r0, r0, r3
 80003ac:	fa21 f304 	lsr.w	r3, r1, r4
 80003b0:	ea45 0103 	orr.w	r1, r5, r3
 80003b4:	bd30      	pop	{r4, r5, pc}
 80003b6:	f1c4 040c 	rsb	r4, r4, #12
 80003ba:	f1c4 0220 	rsb	r2, r4, #32
 80003be:	fa20 f002 	lsr.w	r0, r0, r2
 80003c2:	fa01 f304 	lsl.w	r3, r1, r4
 80003c6:	ea40 0003 	orr.w	r0, r0, r3
 80003ca:	4629      	mov	r1, r5
 80003cc:	bd30      	pop	{r4, r5, pc}
 80003ce:	fa21 f004 	lsr.w	r0, r1, r4
 80003d2:	4629      	mov	r1, r5
 80003d4:	bd30      	pop	{r4, r5, pc}
 80003d6:	f094 0f00 	teq	r4, #0
 80003da:	f483 1380 	eor.w	r3, r3, #1048576	@ 0x100000
 80003de:	bf06      	itte	eq
 80003e0:	f481 1180 	eoreq.w	r1, r1, #1048576	@ 0x100000
 80003e4:	3401      	addeq	r4, #1
 80003e6:	3d01      	subne	r5, #1
 80003e8:	e74e      	b.n	8000288 <__adddf3+0x8c>
 80003ea:	ea7f 5c64 	mvns.w	ip, r4, asr #21
 80003ee:	bf18      	it	ne
 80003f0:	ea7f 5c65 	mvnsne.w	ip, r5, asr #21
 80003f4:	d029      	beq.n	800044a <__adddf3+0x24e>
 80003f6:	ea94 0f05 	teq	r4, r5
 80003fa:	bf08      	it	eq
 80003fc:	ea90 0f02 	teqeq	r0, r2
 8000400:	d005      	beq.n	800040e <__adddf3+0x212>
 8000402:	ea54 0c00 	orrs.w	ip, r4, r0
 8000406:	bf04      	itt	eq
 8000408:	4619      	moveq	r1, r3
 800040a:	4610      	moveq	r0, r2
 800040c:	bd30      	pop	{r4, r5, pc}
 800040e:	ea91 0f03 	teq	r1, r3
 8000412:	bf1e      	ittt	ne
 8000414:	2100      	movne	r1, #0
 8000416:	2000      	movne	r0, #0
 8000418:	bd30      	popne	{r4, r5, pc}
 800041a:	ea5f 5c54 	movs.w	ip, r4, lsr #21
 800041e:	d105      	bne.n	800042c <__adddf3+0x230>
 8000420:	0040      	lsls	r0, r0, #1
 8000422:	4149      	adcs	r1, r1
 8000424:	bf28      	it	cs
 8000426:	f041 4100 	orrcs.w	r1, r1, #2147483648	@ 0x80000000
 800042a:	bd30      	pop	{r4, r5, pc}
 800042c:	f514 0480 	adds.w	r4, r4, #4194304	@ 0x400000
 8000430:	bf3c      	itt	cc
 8000432:	f501 1180 	addcc.w	r1, r1, #1048576	@ 0x100000
 8000436:	bd30      	popcc	{r4, r5, pc}
 8000438:	f001 4500 	and.w	r5, r1, #2147483648	@ 0x80000000
 800043c:	f045 41fe 	orr.w	r1, r5, #2130706432	@ 0x7f000000
 8000440:	f441 0170 	orr.w	r1, r1, #15728640	@ 0xf00000
 8000444:	f04f 0000 	mov.w	r0, #0
 8000448:	bd30      	pop	{r4, r5, pc}
 800044a:	ea7f 5c64 	mvns.w	ip, r4, asr #21
 800044e:	bf1a      	itte	ne
 8000450:	4619      	movne	r1, r3
 8000452:	4610      	movne	r0, r2
 8000454:	ea7f 5c65 	mvnseq.w	ip, r5, asr #21
 8000458:	bf1c      	itt	ne
 800045a:	460b      	movne	r3, r1
 800045c:	4602      	movne	r2, r0
 800045e:	ea50 3401 	orrs.w	r4, r0, r1, lsl #12
 8000462:	bf06      	itte	eq
 8000464:	ea52 3503 	orrseq.w	r5, r2, r3, lsl #12
 8000468:	ea91 0f03 	teqeq	r1, r3
 800046c:	f441 2100 	orrne.w	r1, r1, #524288	@ 0x80000
 8000470:	bd30      	pop	{r4, r5, pc}
 8000472:	bf00      	nop

08000474 <__aeabi_ui2d>:
 8000474:	f090 0f00 	teq	r0, #0
 8000478:	bf04      	itt	eq
 800047a:	2100      	moveq	r1, #0
 800047c:	4770      	bxeq	lr
 800047e:	b530      	push	{r4, r5, lr}
 8000480:	f44f 6480 	mov.w	r4, #1024	@ 0x400
 8000484:	f104 0432 	add.w	r4, r4, #50	@ 0x32
 8000488:	f04f 0500 	mov.w	r5, #0
 800048c:	f04f 0100 	mov.w	r1, #0
 8000490:	e750      	b.n	8000334 <__adddf3+0x138>
 8000492:	bf00      	nop

08000494 <__aeabi_i2d>:
 8000494:	f090 0f00 	teq	r0, #0
 8000498:	bf04      	itt	eq
 800049a:	2100      	moveq	r1, #0
 800049c:	4770      	bxeq	lr
 800049e:	b530      	push	{r4, r5, lr}
 80004a0:	f44f 6480 	mov.w	r4, #1024	@ 0x400
 80004a4:	f104 0432 	add.w	r4, r4, #50	@ 0x32
 80004a8:	f010 4500 	ands.w	r5, r0, #2147483648	@ 0x80000000
 80004ac:	bf48      	it	mi
 80004ae:	4240      	negmi	r0, r0
 80004b0:	f04f 0100 	mov.w	r1, #0
 80004b4:	e73e      	b.n	8000334 <__adddf3+0x138>
 80004b6:	bf00      	nop

080004b8 <__aeabi_f2d>:
 80004b8:	0042      	lsls	r2, r0, #1
 80004ba:	ea4f 01e2 	mov.w	r1, r2, asr #3
 80004be:	ea4f 0131 	mov.w	r1, r1, rrx
 80004c2:	ea4f 7002 	mov.w	r0, r2, lsl #28
 80004c6:	bf1f      	itttt	ne
 80004c8:	f012 437f 	andsne.w	r3, r2, #4278190080	@ 0xff000000
 80004cc:	f093 4f7f 	teqne	r3, #4278190080	@ 0xff000000
 80004d0:	f081 5160 	eorne.w	r1, r1, #939524096	@ 0x38000000
 80004d4:	4770      	bxne	lr
 80004d6:	f032 427f 	bics.w	r2, r2, #4278190080	@ 0xff000000
 80004da:	bf08      	it	eq
 80004dc:	4770      	bxeq	lr
 80004de:	f093 4f7f 	teq	r3, #4278190080	@ 0xff000000
 80004e2:	bf04      	itt	eq
 80004e4:	f441 2100 	orreq.w	r1, r1, #524288	@ 0x80000
 80004e8:	4770      	bxeq	lr
 80004ea:	b530      	push	{r4, r5, lr}
 80004ec:	f44f 7460 	mov.w	r4, #896	@ 0x380
 80004f0:	f001 4500 	and.w	r5, r1, #2147483648	@ 0x80000000
 80004f4:	f021 4100 	bic.w	r1, r1, #2147483648	@ 0x80000000
 80004f8:	e71c      	b.n	8000334 <__adddf3+0x138>
 80004fa:	bf00      	nop

080004fc <__aeabi_ul2d>:
 80004fc:	ea50 0201 	orrs.w	r2, r0, r1
 8000500:	bf08      	it	eq
 8000502:	4770      	bxeq	lr
 8000504:	b530      	push	{r4, r5, lr}
 8000506:	f04f 0500 	mov.w	r5, #0
 800050a:	e00a      	b.n	8000522 <__aeabi_l2d+0x16>

0800050c <__aeabi_l2d>:
 800050c:	ea50 0201 	orrs.w	r2, r0, r1
 8000510:	bf08      	it	eq
 8000512:	4770      	bxeq	lr
 8000514:	b530      	push	{r4, r5, lr}
 8000516:	f011 4500 	ands.w	r5, r1, #2147483648	@ 0x80000000
 800051a:	d502      	bpl.n	8000522 <__aeabi_l2d+0x16>
 800051c:	4240      	negs	r0, r0
 800051e:	eb61 0141 	sbc.w	r1, r1, r1, lsl #1
 8000522:	f44f 6480 	mov.w	r4, #1024	@ 0x400
 8000526:	f104 0432 	add.w	r4, r4, #50	@ 0x32
 800052a:	ea5f 5c91 	movs.w	ip, r1, lsr #22
 800052e:	f43f aed8 	beq.w	80002e2 <__adddf3+0xe6>
 8000532:	f04f 0203 	mov.w	r2, #3
 8000536:	ea5f 0cdc 	movs.w	ip, ip, lsr #3
 800053a:	bf18      	it	ne
 800053c:	3203      	addne	r2, #3
 800053e:	ea5f 0cdc 	movs.w	ip, ip, lsr #3
 8000542:	bf18      	it	ne
 8000544:	3203      	addne	r2, #3
 8000546:	eb02 02dc 	add.w	r2, r2, ip, lsr #3
 800054a:	f1c2 0320 	rsb	r3, r2, #32
 800054e:	fa00 fc03 	lsl.w	ip, r0, r3
 8000552:	fa20 f002 	lsr.w	r0, r0, r2
 8000556:	fa01 fe03 	lsl.w	lr, r1, r3
 800055a:	ea40 000e 	orr.w	r0, r0, lr
 800055e:	fa21 f102 	lsr.w	r1, r1, r2
 8000562:	4414      	add	r4, r2
 8000564:	e6bd      	b.n	80002e2 <__adddf3+0xe6>
 8000566:	bf00      	nop

08000568 <__aeabi_dmul>:
 8000568:	b570      	push	{r4, r5, r6, lr}
 800056a:	f04f 0cff 	mov.w	ip, #255	@ 0xff
 800056e:	f44c 6ce0 	orr.w	ip, ip, #1792	@ 0x700
 8000572:	ea1c 5411 	ands.w	r4, ip, r1, lsr #20
 8000576:	bf1d      	ittte	ne
 8000578:	ea1c 5513 	andsne.w	r5, ip, r3, lsr #20
 800057c:	ea94 0f0c 	teqne	r4, ip
 8000580:	ea95 0f0c 	teqne	r5, ip
 8000584:	f000 f8de 	bleq	8000744 <__aeabi_dmul+0x1dc>
 8000588:	442c      	add	r4, r5
 800058a:	ea81 0603 	eor.w	r6, r1, r3
 800058e:	ea21 514c 	bic.w	r1, r1, ip, lsl #21
 8000592:	ea23 534c 	bic.w	r3, r3, ip, lsl #21
 8000596:	ea50 3501 	orrs.w	r5, r0, r1, lsl #12
 800059a:	bf18      	it	ne
 800059c:	ea52 3503 	orrsne.w	r5, r2, r3, lsl #12
 80005a0:	f441 1180 	orr.w	r1, r1, #1048576	@ 0x100000
 80005a4:	f443 1380 	orr.w	r3, r3, #1048576	@ 0x100000
 80005a8:	d038      	beq.n	800061c <__aeabi_dmul+0xb4>
 80005aa:	fba0 ce02 	umull	ip, lr, r0, r2
 80005ae:	f04f 0500 	mov.w	r5, #0
 80005b2:	fbe1 e502 	umlal	lr, r5, r1, r2
 80005b6:	f006 4200 	and.w	r2, r6, #2147483648	@ 0x80000000
 80005ba:	fbe0 e503 	umlal	lr, r5, r0, r3
 80005be:	f04f 0600 	mov.w	r6, #0
 80005c2:	fbe1 5603 	umlal	r5, r6, r1, r3
 80005c6:	f09c 0f00 	teq	ip, #0
 80005ca:	bf18      	it	ne
 80005cc:	f04e 0e01 	orrne.w	lr, lr, #1
 80005d0:	f1a4 04ff 	sub.w	r4, r4, #255	@ 0xff
 80005d4:	f5b6 7f00 	cmp.w	r6, #512	@ 0x200
 80005d8:	f564 7440 	sbc.w	r4, r4, #768	@ 0x300
 80005dc:	d204      	bcs.n	80005e8 <__aeabi_dmul+0x80>
 80005de:	ea5f 0e4e 	movs.w	lr, lr, lsl #1
 80005e2:	416d      	adcs	r5, r5
 80005e4:	eb46 0606 	adc.w	r6, r6, r6
 80005e8:	ea42 21c6 	orr.w	r1, r2, r6, lsl #11
 80005ec:	ea41 5155 	orr.w	r1, r1, r5, lsr #21
 80005f0:	ea4f 20c5 	mov.w	r0, r5, lsl #11
 80005f4:	ea40 505e 	orr.w	r0, r0, lr, lsr #21
 80005f8:	ea4f 2ece 	mov.w	lr, lr, lsl #11
 80005fc:	f1b4 0cfd 	subs.w	ip, r4, #253	@ 0xfd
 8000600:	bf88      	it	hi
 8000602:	f5bc 6fe0 	cmphi.w	ip, #1792	@ 0x700
 8000606:	d81e      	bhi.n	8000646 <__aeabi_dmul+0xde>
 8000608:	f1be 4f00 	cmp.w	lr, #2147483648	@ 0x80000000
 800060c:	bf08      	it	eq
 800060e:	ea5f 0e50 	movseq.w	lr, r0, lsr #1
 8000612:	f150 0000 	adcs.w	r0, r0, #0
 8000616:	eb41 5104 	adc.w	r1, r1, r4, lsl #20
 800061a:	bd70      	pop	{r4, r5, r6, pc}
 800061c:	f006 4600 	and.w	r6, r6, #2147483648	@ 0x80000000
 8000620:	ea46 0101 	orr.w	r1, r6, r1
 8000624:	ea40 0002 	orr.w	r0, r0, r2
 8000628:	ea81 0103 	eor.w	r1, r1, r3
 800062c:	ebb4 045c 	subs.w	r4, r4, ip, lsr #1
 8000630:	bfc2      	ittt	gt
 8000632:	ebd4 050c 	rsbsgt	r5, r4, ip
 8000636:	ea41 5104 	orrgt.w	r1, r1, r4, lsl #20
 800063a:	bd70      	popgt	{r4, r5, r6, pc}
 800063c:	f441 1180 	orr.w	r1, r1, #1048576	@ 0x100000
 8000640:	f04f 0e00 	mov.w	lr, #0
 8000644:	3c01      	subs	r4, #1
 8000646:	f300 80ab 	bgt.w	80007a0 <__aeabi_dmul+0x238>
 800064a:	f114 0f36 	cmn.w	r4, #54	@ 0x36
 800064e:	bfde      	ittt	le
 8000650:	2000      	movle	r0, #0
 8000652:	f001 4100 	andle.w	r1, r1, #2147483648	@ 0x80000000
 8000656:	bd70      	pople	{r4, r5, r6, pc}
 8000658:	f1c4 0400 	rsb	r4, r4, #0
 800065c:	3c20      	subs	r4, #32
 800065e:	da35      	bge.n	80006cc <__aeabi_dmul+0x164>
 8000660:	340c      	adds	r4, #12
 8000662:	dc1b      	bgt.n	800069c <__aeabi_dmul+0x134>
 8000664:	f104 0414 	add.w	r4, r4, #20
 8000668:	f1c4 0520 	rsb	r5, r4, #32
 800066c:	fa00 f305 	lsl.w	r3, r0, r5
 8000670:	fa20 f004 	lsr.w	r0, r0, r4
 8000674:	fa01 f205 	lsl.w	r2, r1, r5
 8000678:	ea40 0002 	orr.w	r0, r0, r2
 800067c:	f001 4200 	and.w	r2, r1, #2147483648	@ 0x80000000
 8000680:	f021 4100 	bic.w	r1, r1, #2147483648	@ 0x80000000
 8000684:	eb10 70d3 	adds.w	r0, r0, r3, lsr #31
 8000688:	fa21 f604 	lsr.w	r6, r1, r4
 800068c:	eb42 0106 	adc.w	r1, r2, r6
 8000690:	ea5e 0e43 	orrs.w	lr, lr, r3, lsl #1
 8000694:	bf08      	it	eq
 8000696:	ea20 70d3 	biceq.w	r0, r0, r3, lsr #31
 800069a:	bd70      	pop	{r4, r5, r6, pc}
 800069c:	f1c4 040c 	rsb	r4, r4, #12
 80006a0:	f1c4 0520 	rsb	r5, r4, #32
 80006a4:	fa00 f304 	lsl.w	r3, r0, r4
 80006a8:	fa20 f005 	lsr.w	r0, r0, r5
 80006ac:	fa01 f204 	lsl.w	r2, r1, r4
 80006b0:	ea40 0002 	orr.w	r0, r0, r2
 80006b4:	f001 4100 	and.w	r1, r1, #2147483648	@ 0x80000000
 80006b8:	eb10 70d3 	adds.w	r0, r0, r3, lsr #31
 80006bc:	f141 0100 	adc.w	r1, r1, #0
 80006c0:	ea5e 0e43 	orrs.w	lr, lr, r3, lsl #1
 80006c4:	bf08      	it	eq
 80006c6:	ea20 70d3 	biceq.w	r0, r0, r3, lsr #31
 80006ca:	bd70      	pop	{r4, r5, r6, pc}
 80006cc:	f1c4 0520 	rsb	r5, r4, #32
 80006d0:	fa00 f205 	lsl.w	r2, r0, r5
 80006d4:	ea4e 0e02 	orr.w	lr, lr, r2
 80006d8:	fa20 f304 	lsr.w	r3, r0, r4
 80006dc:	fa01 f205 	lsl.w	r2, r1, r5
 80006e0:	ea43 0302 	orr.w	r3, r3, r2
 80006e4:	fa21 f004 	lsr.w	r0, r1, r4
 80006e8:	f001 4100 	and.w	r1, r1, #2147483648	@ 0x80000000
 80006ec:	fa21 f204 	lsr.w	r2, r1, r4
 80006f0:	ea20 0002 	bic.w	r0, r0, r2
 80006f4:	eb00 70d3 	add.w	r0, r0, r3, lsr #31
 80006f8:	ea5e 0e43 	orrs.w	lr, lr, r3, lsl #1
 80006fc:	bf08      	it	eq
 80006fe:	ea20 70d3 	biceq.w	r0, r0, r3, lsr #31
 8000702:	bd70      	pop	{r4, r5, r6, pc}
 8000704:	f094 0f00 	teq	r4, #0
 8000708:	d10f      	bne.n	800072a <__aeabi_dmul+0x1c2>
 800070a:	f001 4600 	and.w	r6, r1, #2147483648	@ 0x80000000
 800070e:	0040      	lsls	r0, r0, #1
 8000710:	eb41 0101 	adc.w	r1, r1, r1
 8000714:	f411 1f80 	tst.w	r1, #1048576	@ 0x100000
 8000718:	bf08      	it	eq
 800071a:	3c01      	subeq	r4, #1
 800071c:	d0f7      	beq.n	800070e <__aeabi_dmul+0x1a6>
 800071e:	ea41 0106 	orr.w	r1, r1, r6
 8000722:	f095 0f00 	teq	r5, #0
 8000726:	bf18      	it	ne
 8000728:	4770      	bxne	lr
 800072a:	f003 4600 	and.w	r6, r3, #2147483648	@ 0x80000000
 800072e:	0052      	lsls	r2, r2, #1
 8000730:	eb43 0303 	adc.w	r3, r3, r3
 8000734:	f413 1f80 	tst.w	r3, #1048576	@ 0x100000
 8000738:	bf08      	it	eq
 800073a:	3d01      	subeq	r5, #1
 800073c:	d0f7      	beq.n	800072e <__aeabi_dmul+0x1c6>
 800073e:	ea43 0306 	orr.w	r3, r3, r6
 8000742:	4770      	bx	lr
 8000744:	ea94 0f0c 	teq	r4, ip
 8000748:	ea0c 5513 	and.w	r5, ip, r3, lsr #20
 800074c:	bf18      	it	ne
 800074e:	ea95 0f0c 	teqne	r5, ip
 8000752:	d00c      	beq.n	800076e <__aeabi_dmul+0x206>
 8000754:	ea50 0641 	orrs.w	r6, r0, r1, lsl #1
 8000758:	bf18      	it	ne
 800075a:	ea52 0643 	orrsne.w	r6, r2, r3, lsl #1
 800075e:	d1d1      	bne.n	8000704 <__aeabi_dmul+0x19c>
 8000760:	ea81 0103 	eor.w	r1, r1, r3
 8000764:	f001 4100 	and.w	r1, r1, #2147483648	@ 0x80000000
 8000768:	f04f 0000 	mov.w	r0, #0
 800076c:	bd70      	pop	{r4, r5, r6, pc}
 800076e:	ea50 0641 	orrs.w	r6, r0, r1, lsl #1
 8000772:	bf06      	itte	eq
 8000774:	4610      	moveq	r0, r2
 8000776:	4619      	moveq	r1, r3
 8000778:	ea52 0643 	orrsne.w	r6, r2, r3, lsl #1
 800077c:	d019      	beq.n	80007b2 <__aeabi_dmul+0x24a>
 800077e:	ea94 0f0c 	teq	r4, ip
 8000782:	d102      	bne.n	800078a <__aeabi_dmul+0x222>
 8000784:	ea50 3601 	orrs.w	r6, r0, r1, lsl #12
 8000788:	d113      	bne.n	80007b2 <__aeabi_dmul+0x24a>
 800078a:	ea95 0f0c 	teq	r5, ip
 800078e:	d105      	bne.n	800079c <__aeabi_dmul+0x234>
 8000790:	ea52 3603 	orrs.w	r6, r2, r3, lsl #12
 8000794:	bf1c      	itt	ne
 8000796:	4610      	movne	r0, r2
 8000798:	4619      	movne	r1, r3
 800079a:	d10a      	bne.n	80007b2 <__aeabi_dmul+0x24a>
 800079c:	ea81 0103 	eor.w	r1, r1, r3
 80007a0:	f001 4100 	and.w	r1, r1, #2147483648	@ 0x80000000
 80007a4:	f041 41fe 	orr.w	r1, r1, #2130706432	@ 0x7f000000
 80007a8:	f441 0170 	orr.w	r1, r1, #15728640	@ 0xf00000
 80007ac:	f04f 0000 	mov.w	r0, #0
 80007b0:	bd70      	pop	{r4, r5, r6, pc}
 80007b2:	f041 41fe 	orr.w	r1, r1, #2130706432	@ 0x7f000000
 80007b6:	f441 0178 	orr.w	r1, r1, #16252928	@ 0xf80000
 80007ba:	bd70      	pop	{r4, r5, r6, pc}

080007bc <__aeabi_ddiv>:
 80007bc:	b570      	push	{r4, r5, r6, lr}
 80007be:	f04f 0cff 	mov.w	ip, #255	@ 0xff
 80007c2:	f44c 6ce0 	orr.w	ip, ip, #1792	@ 0x700
 80007c6:	ea1c 5411 	ands.w	r4, ip, r1, lsr #20
 80007ca:	bf1d      	ittte	ne
 80007cc:	ea1c 5513 	andsne.w	r5, ip, r3, lsr #20
 80007d0:	ea94 0f0c 	teqne	r4, ip
 80007d4:	ea95 0f0c 	teqne	r5, ip
 80007d8:	f000 f8a7 	bleq	800092a <__aeabi_ddiv+0x16e>
 80007dc:	eba4 0405 	sub.w	r4, r4, r5
 80007e0:	ea81 0e03 	eor.w	lr, r1, r3
 80007e4:	ea52 3503 	orrs.w	r5, r2, r3, lsl #12
 80007e8:	ea4f 3101 	mov.w	r1, r1, lsl #12
 80007ec:	f000 8088 	beq.w	8000900 <__aeabi_ddiv+0x144>
 80007f0:	ea4f 3303 	mov.w	r3, r3, lsl #12
 80007f4:	f04f 5580 	mov.w	r5, #268435456	@ 0x10000000
 80007f8:	ea45 1313 	orr.w	r3, r5, r3, lsr #4
 80007fc:	ea43 6312 	orr.w	r3, r3, r2, lsr #24
 8000800:	ea4f 2202 	mov.w	r2, r2, lsl #8
 8000804:	ea45 1511 	orr.w	r5, r5, r1, lsr #4
 8000808:	ea45 6510 	orr.w	r5, r5, r0, lsr #24
 800080c:	ea4f 2600 	mov.w	r6, r0, lsl #8
 8000810:	f00e 4100 	and.w	r1, lr, #2147483648	@ 0x80000000
 8000814:	429d      	cmp	r5, r3
 8000816:	bf08      	it	eq
 8000818:	4296      	cmpeq	r6, r2
 800081a:	f144 04fd 	adc.w	r4, r4, #253	@ 0xfd
 800081e:	f504 7440 	add.w	r4, r4, #768	@ 0x300
 8000822:	d202      	bcs.n	800082a <__aeabi_ddiv+0x6e>
 8000824:	085b      	lsrs	r3, r3, #1
 8000826:	ea4f 0232 	mov.w	r2, r2, rrx
 800082a:	1ab6      	subs	r6, r6, r2
 800082c:	eb65 0503 	sbc.w	r5, r5, r3
 8000830:	085b      	lsrs	r3, r3, #1
 8000832:	ea4f 0232 	mov.w	r2, r2, rrx
 8000836:	f44f 1080 	mov.w	r0, #1048576	@ 0x100000
 800083a:	f44f 2c00 	mov.w	ip, #524288	@ 0x80000
 800083e:	ebb6 0e02 	subs.w	lr, r6, r2
 8000842:	eb75 0e03 	sbcs.w	lr, r5, r3
 8000846:	bf22      	ittt	cs
 8000848:	1ab6      	subcs	r6, r6, r2
 800084a:	4675      	movcs	r5, lr
 800084c:	ea40 000c 	orrcs.w	r0, r0, ip
 8000850:	085b      	lsrs	r3, r3, #1
 8000852:	ea4f 0232 	mov.w	r2, r2, rrx
 8000856:	ebb6 0e02 	subs.w	lr, r6, r2
 800085a:	eb75 0e03 	sbcs.w	lr, r5, r3
 800085e:	bf22      	ittt	cs
 8000860:	1ab6      	subcs	r6, r6, r2
 8000862:	4675      	movcs	r5, lr
 8000864:	ea40 005c 	orrcs.w	r0, r0, ip, lsr #1
 8000868:	085b      	lsrs	r3, r3, #1
 800086a:	ea4f 0232 	mov.w	r2, r2, rrx
 800086e:	ebb6 0e02 	subs.w	lr, r6, r2
 8000872:	eb75 0e03 	sbcs.w	lr, r5, r3
 8000876:	bf22      	ittt	cs
 8000878:	1ab6      	subcs	r6, r6, r2
 800087a:	4675      	movcs	r5, lr
 800087c:	ea40 009c 	orrcs.w	r0, r0, ip, lsr #2
 8000880:	085b      	lsrs	r3, r3, #1
 8000882:	ea4f 0232 	mov.w	r2, r2, rrx
 8000886:	ebb6 0e02 	subs.w	lr, r6, r2
 800088a:	eb75 0e03 	sbcs.w	lr, r5, r3
 800088e:	bf22      	ittt	cs
 8000890:	1ab6      	subcs	r6, r6, r2
 8000892:	4675      	movcs	r5, lr
 8000894:	ea40 00dc 	orrcs.w	r0, r0, ip, lsr #3
 8000898:	ea55 0e06 	orrs.w	lr, r5, r6
 800089c:	d018      	beq.n	80008d0 <__aeabi_ddiv+0x114>
 800089e:	ea4f 1505 	mov.w	r5, r5, lsl #4
 80008a2:	ea45 7516 	orr.w	r5, r5, r6, lsr #28
 80008a6:	ea4f 1606 	mov.w	r6, r6, lsl #4
 80008aa:	ea4f 03c3 	mov.w	r3, r3, lsl #3
 80008ae:	ea43 7352 	orr.w	r3, r3, r2, lsr #29
 80008b2:	ea4f 02c2 	mov.w	r2, r2, lsl #3
 80008b6:	ea5f 1c1c 	movs.w	ip, ip, lsr #4
 80008ba:	d1c0      	bne.n	800083e <__aeabi_ddiv+0x82>
 80008bc:	f411 1f80 	tst.w	r1, #1048576	@ 0x100000
 80008c0:	d10b      	bne.n	80008da <__aeabi_ddiv+0x11e>
 80008c2:	ea41 0100 	orr.w	r1, r1, r0
 80008c6:	f04f 0000 	mov.w	r0, #0
 80008ca:	f04f 4c00 	mov.w	ip, #2147483648	@ 0x80000000
 80008ce:	e7b6      	b.n	800083e <__aeabi_ddiv+0x82>
 80008d0:	f411 1f80 	tst.w	r1, #1048576	@ 0x100000
 80008d4:	bf04      	itt	eq
 80008d6:	4301      	orreq	r1, r0
 80008d8:	2000      	moveq	r0, #0
 80008da:	f1b4 0cfd 	subs.w	ip, r4, #253	@ 0xfd
 80008de:	bf88      	it	hi
 80008e0:	f5bc 6fe0 	cmphi.w	ip, #1792	@ 0x700
 80008e4:	f63f aeaf 	bhi.w	8000646 <__aeabi_dmul+0xde>
 80008e8:	ebb5 0c03 	subs.w	ip, r5, r3
 80008ec:	bf04      	itt	eq
 80008ee:	ebb6 0c02 	subseq.w	ip, r6, r2
 80008f2:	ea5f 0c50 	movseq.w	ip, r0, lsr #1
 80008f6:	f150 0000 	adcs.w	r0, r0, #0
 80008fa:	eb41 5104 	adc.w	r1, r1, r4, lsl #20
 80008fe:	bd70      	pop	{r4, r5, r6, pc}
 8000900:	f00e 4e00 	and.w	lr, lr, #2147483648	@ 0x80000000
 8000904:	ea4e 3111 	orr.w	r1, lr, r1, lsr #12
 8000908:	eb14 045c 	adds.w	r4, r4, ip, lsr #1
 800090c:	bfc2      	ittt	gt
 800090e:	ebd4 050c 	rsbsgt	r5, r4, ip
 8000912:	ea41 5104 	orrgt.w	r1, r1, r4, lsl #20
 8000916:	bd70      	popgt	{r4, r5, r6, pc}
 8000918:	f441 1180 	orr.w	r1, r1, #1048576	@ 0x100000
 800091c:	f04f 0e00 	mov.w	lr, #0
 8000920:	3c01      	subs	r4, #1
 8000922:	e690      	b.n	8000646 <__aeabi_dmul+0xde>
 8000924:	ea45 0e06 	orr.w	lr, r5, r6
 8000928:	e68d      	b.n	8000646 <__aeabi_dmul+0xde>
 800092a:	ea0c 5513 	and.w	r5, ip, r3, lsr #20
 800092e:	ea94 0f0c 	teq	r4, ip
 8000932:	bf08      	it	eq
 8000934:	ea95 0f0c 	teqeq	r5, ip
 8000938:	f43f af3b 	beq.w	80007b2 <__aeabi_dmul+0x24a>
 800093c:	ea94 0f0c 	teq	r4, ip
 8000940:	d10a      	bne.n	8000958 <__aeabi_ddiv+0x19c>
 8000942:	ea50 3401 	orrs.w	r4, r0, r1, lsl #12
 8000946:	f47f af34 	bne.w	80007b2 <__aeabi_dmul+0x24a>
 800094a:	ea95 0f0c 	teq	r5, ip
 800094e:	f47f af25 	bne.w	800079c <__aeabi_dmul+0x234>
 8000952:	4610      	mov	r0, r2
 8000954:	4619      	mov	r1, r3
 8000956:	e72c      	b.n	80007b2 <__aeabi_dmul+0x24a>
 8000958:	ea95 0f0c 	teq	r5, ip
 800095c:	d106      	bne.n	800096c <__aeabi_ddiv+0x1b0>
 800095e:	ea52 3503 	orrs.w	r5, r2, r3, lsl #12
 8000962:	f43f aefd 	beq.w	8000760 <__aeabi_dmul+0x1f8>
 8000966:	4610      	mov	r0, r2
 8000968:	4619      	mov	r1, r3
 800096a:	e722      	b.n	80007b2 <__aeabi_dmul+0x24a>
 800096c:	ea50 0641 	orrs.w	r6, r0, r1, lsl #1
 8000970:	bf18      	it	ne
 8000972:	ea52 0643 	orrsne.w	r6, r2, r3, lsl #1
 8000976:	f47f aec5 	bne.w	8000704 <__aeabi_dmul+0x19c>
 800097a:	ea50 0441 	orrs.w	r4, r0, r1, lsl #1
 800097e:	f47f af0d 	bne.w	800079c <__aeabi_dmul+0x234>
 8000982:	ea52 0543 	orrs.w	r5, r2, r3, lsl #1
 8000986:	f47f aeeb 	bne.w	8000760 <__aeabi_dmul+0x1f8>
 800098a:	e712      	b.n	80007b2 <__aeabi_dmul+0x24a>

0800098c <__aeabi_d2f>:
 800098c:	ea4f 0241 	mov.w	r2, r1, lsl #1
 8000990:	f1b2 43e0 	subs.w	r3, r2, #1879048192	@ 0x70000000
 8000994:	bf24      	itt	cs
 8000996:	f5b3 1c00 	subscs.w	ip, r3, #2097152	@ 0x200000
 800099a:	f1dc 5cfe 	rsbscs	ip, ip, #532676608	@ 0x1fc00000
 800099e:	d90d      	bls.n	80009bc <__aeabi_d2f+0x30>
 80009a0:	f001 4c00 	and.w	ip, r1, #2147483648	@ 0x80000000
 80009a4:	ea4f 02c0 	mov.w	r2, r0, lsl #3
 80009a8:	ea4c 7050 	orr.w	r0, ip, r0, lsr #29
 80009ac:	f1b2 4f00 	cmp.w	r2, #2147483648	@ 0x80000000
 80009b0:	eb40 0083 	adc.w	r0, r0, r3, lsl #2
 80009b4:	bf08      	it	eq
 80009b6:	f020 0001 	biceq.w	r0, r0, #1
 80009ba:	4770      	bx	lr
 80009bc:	f011 4f80 	tst.w	r1, #1073741824	@ 0x40000000
 80009c0:	d121      	bne.n	8000a06 <__aeabi_d2f+0x7a>
 80009c2:	f113 7238 	adds.w	r2, r3, #48234496	@ 0x2e00000
 80009c6:	bfbc      	itt	lt
 80009c8:	f001 4000 	andlt.w	r0, r1, #2147483648	@ 0x80000000
 80009cc:	4770      	bxlt	lr
 80009ce:	f441 1180 	orr.w	r1, r1, #1048576	@ 0x100000
 80009d2:	ea4f 5252 	mov.w	r2, r2, lsr #21
 80009d6:	f1c2 0218 	rsb	r2, r2, #24
 80009da:	f1c2 0c20 	rsb	ip, r2, #32
 80009de:	fa10 f30c 	lsls.w	r3, r0, ip
 80009e2:	fa20 f002 	lsr.w	r0, r0, r2
 80009e6:	bf18      	it	ne
 80009e8:	f040 0001 	orrne.w	r0, r0, #1
 80009ec:	ea4f 23c1 	mov.w	r3, r1, lsl #11
 80009f0:	ea4f 23d3 	mov.w	r3, r3, lsr #11
 80009f4:	fa03 fc0c 	lsl.w	ip, r3, ip
 80009f8:	ea40 000c 	orr.w	r0, r0, ip
 80009fc:	fa23 f302 	lsr.w	r3, r3, r2
 8000a00:	ea4f 0343 	mov.w	r3, r3, lsl #1
 8000a04:	e7cc      	b.n	80009a0 <__aeabi_d2f+0x14>
 8000a06:	ea7f 5362 	mvns.w	r3, r2, asr #21
 8000a0a:	d107      	bne.n	8000a1c <__aeabi_d2f+0x90>
 8000a0c:	ea50 3301 	orrs.w	r3, r0, r1, lsl #12
 8000a10:	bf1e      	ittt	ne
 8000a12:	f04f 40fe 	movne.w	r0, #2130706432	@ 0x7f000000
 8000a16:	f440 0040 	orrne.w	r0, r0, #12582912	@ 0xc00000
 8000a1a:	4770      	bxne	lr
 8000a1c:	f001 4000 	and.w	r0, r1, #2147483648	@ 0x80000000
 8000a20:	f040 40fe 	orr.w	r0, r0, #2130706432	@ 0x7f000000
 8000a24:	f440 0000 	orr.w	r0, r0, #8388608	@ 0x800000
 8000a28:	4770      	bx	lr
 8000a2a:	bf00      	nop

08000a2c <__aeabi_frsub>:
 8000a2c:	f080 4000 	eor.w	r0, r0, #2147483648	@ 0x80000000
 8000a30:	e002      	b.n	8000a38 <__addsf3>
 8000a32:	bf00      	nop

08000a34 <__aeabi_fsub>:
 8000a34:	f081 4100 	eor.w	r1, r1, #2147483648	@ 0x80000000

08000a38 <__addsf3>:
 8000a38:	0042      	lsls	r2, r0, #1
 8000a3a:	bf1f      	itttt	ne
 8000a3c:	ea5f 0341 	movsne.w	r3, r1, lsl #1
 8000a40:	ea92 0f03 	teqne	r2, r3
 8000a44:	ea7f 6c22 	mvnsne.w	ip, r2, asr #24
 8000a48:	ea7f 6c23 	mvnsne.w	ip, r3, asr #24
 8000a4c:	d06a      	beq.n	8000b24 <__addsf3+0xec>
 8000a4e:	ea4f 6212 	mov.w	r2, r2, lsr #24
 8000a52:	ebd2 6313 	rsbs	r3, r2, r3, lsr #24
 8000a56:	bfc1      	itttt	gt
 8000a58:	18d2      	addgt	r2, r2, r3
 8000a5a:	4041      	eorgt	r1, r0
 8000a5c:	4048      	eorgt	r0, r1
 8000a5e:	4041      	eorgt	r1, r0
 8000a60:	bfb8      	it	lt
 8000a62:	425b      	neglt	r3, r3
 8000a64:	2b19      	cmp	r3, #25
 8000a66:	bf88      	it	hi
 8000a68:	4770      	bxhi	lr
 8000a6a:	f010 4f00 	tst.w	r0, #2147483648	@ 0x80000000
 8000a6e:	f440 0000 	orr.w	r0, r0, #8388608	@ 0x800000
 8000a72:	f020 407f 	bic.w	r0, r0, #4278190080	@ 0xff000000
 8000a76:	bf18      	it	ne
 8000a78:	4240      	negne	r0, r0
 8000a7a:	f011 4f00 	tst.w	r1, #2147483648	@ 0x80000000
 8000a7e:	f441 0100 	orr.w	r1, r1, #8388608	@ 0x800000
 8000a82:	f021 417f 	bic.w	r1, r1, #4278190080	@ 0xff000000
 8000a86:	bf18      	it	ne
 8000a88:	4249      	negne	r1, r1
 8000a8a:	ea92 0f03 	teq	r2, r3
 8000a8e:	d03f      	beq.n	8000b10 <__addsf3+0xd8>
 8000a90:	f1a2 0201 	sub.w	r2, r2, #1
 8000a94:	fa41 fc03 	asr.w	ip, r1, r3
 8000a98:	eb10 000c 	adds.w	r0, r0, ip
 8000a9c:	f1c3 0320 	rsb	r3, r3, #32
 8000aa0:	fa01 f103 	lsl.w	r1, r1, r3
 8000aa4:	f000 4300 	and.w	r3, r0, #2147483648	@ 0x80000000
 8000aa8:	d502      	bpl.n	8000ab0 <__addsf3+0x78>
 8000aaa:	4249      	negs	r1, r1
 8000aac:	eb60 0040 	sbc.w	r0, r0, r0, lsl #1
 8000ab0:	f5b0 0f00 	cmp.w	r0, #8388608	@ 0x800000
 8000ab4:	d313      	bcc.n	8000ade <__addsf3+0xa6>
 8000ab6:	f1b0 7f80 	cmp.w	r0, #16777216	@ 0x1000000
 8000aba:	d306      	bcc.n	8000aca <__addsf3+0x92>
 8000abc:	0840      	lsrs	r0, r0, #1
 8000abe:	ea4f 0131 	mov.w	r1, r1, rrx
 8000ac2:	f102 0201 	add.w	r2, r2, #1
 8000ac6:	2afe      	cmp	r2, #254	@ 0xfe
 8000ac8:	d251      	bcs.n	8000b6e <__addsf3+0x136>
 8000aca:	f1b1 4f00 	cmp.w	r1, #2147483648	@ 0x80000000
 8000ace:	eb40 50c2 	adc.w	r0, r0, r2, lsl #23
 8000ad2:	bf08      	it	eq
 8000ad4:	f020 0001 	biceq.w	r0, r0, #1
 8000ad8:	ea40 0003 	orr.w	r0, r0, r3
 8000adc:	4770      	bx	lr
 8000ade:	0049      	lsls	r1, r1, #1
 8000ae0:	eb40 0000 	adc.w	r0, r0, r0
 8000ae4:	3a01      	subs	r2, #1
 8000ae6:	bf28      	it	cs
 8000ae8:	f5b0 0f00 	cmpcs.w	r0, #8388608	@ 0x800000
 8000aec:	d2ed      	bcs.n	8000aca <__addsf3+0x92>
 8000aee:	fab0 fc80 	clz	ip, r0
 8000af2:	f1ac 0c08 	sub.w	ip, ip, #8
 8000af6:	ebb2 020c 	subs.w	r2, r2, ip
 8000afa:	fa00 f00c 	lsl.w	r0, r0, ip
 8000afe:	bfaa      	itet	ge
 8000b00:	eb00 50c2 	addge.w	r0, r0, r2, lsl #23
 8000b04:	4252      	neglt	r2, r2
 8000b06:	4318      	orrge	r0, r3
 8000b08:	bfbc      	itt	lt
 8000b0a:	40d0      	lsrlt	r0, r2
 8000b0c:	4318      	orrlt	r0, r3
 8000b0e:	4770      	bx	lr
 8000b10:	f092 0f00 	teq	r2, #0
 8000b14:	f481 0100 	eor.w	r1, r1, #8388608	@ 0x800000
 8000b18:	bf06      	itte	eq
 8000b1a:	f480 0000 	eoreq.w	r0, r0, #8388608	@ 0x800000
 8000b1e:	3201      	addeq	r2, #1
 8000b20:	3b01      	subne	r3, #1
 8000b22:	e7b5      	b.n	8000a90 <__addsf3+0x58>
 8000b24:	ea4f 0341 	mov.w	r3, r1, lsl #1
 8000b28:	ea7f 6c22 	mvns.w	ip, r2, asr #24
 8000b2c:	bf18      	it	ne
 8000b2e:	ea7f 6c23 	mvnsne.w	ip, r3, asr #24
 8000b32:	d021      	beq.n	8000b78 <__addsf3+0x140>
 8000b34:	ea92 0f03 	teq	r2, r3
 8000b38:	d004      	beq.n	8000b44 <__addsf3+0x10c>
 8000b3a:	f092 0f00 	teq	r2, #0
 8000b3e:	bf08      	it	eq
 8000b40:	4608      	moveq	r0, r1
 8000b42:	4770      	bx	lr
 8000b44:	ea90 0f01 	teq	r0, r1
 8000b48:	bf1c      	itt	ne
 8000b4a:	2000      	movne	r0, #0
 8000b4c:	4770      	bxne	lr
 8000b4e:	f012 4f7f 	tst.w	r2, #4278190080	@ 0xff000000
 8000b52:	d104      	bne.n	8000b5e <__addsf3+0x126>
 8000b54:	0040      	lsls	r0, r0, #1
 8000b56:	bf28      	it	cs
 8000b58:	f040 4000 	orrcs.w	r0, r0, #2147483648	@ 0x80000000
 8000b5c:	4770      	bx	lr
 8000b5e:	f112 7200 	adds.w	r2, r2, #33554432	@ 0x2000000
 8000b62:	bf3c      	itt	cc
 8000b64:	f500 0000 	addcc.w	r0, r0, #8388608	@ 0x800000
 8000b68:	4770      	bxcc	lr
 8000b6a:	f000 4300 	and.w	r3, r0, #2147483648	@ 0x80000000
 8000b6e:	f043 40fe 	orr.w	r0, r3, #2130706432	@ 0x7f000000
 8000b72:	f440 0000 	orr.w	r0, r0, #8388608	@ 0x800000
 8000b76:	4770      	bx	lr
 8000b78:	ea7f 6222 	mvns.w	r2, r2, asr #24
 8000b7c:	bf16      	itet	ne
 8000b7e:	4608      	movne	r0, r1
 8000b80:	ea7f 6323 	mvnseq.w	r3, r3, asr #24
 8000b84:	4601      	movne	r1, r0
 8000b86:	0242      	lsls	r2, r0, #9
 8000b88:	bf06      	itte	eq
 8000b8a:	ea5f 2341 	movseq.w	r3, r1, lsl #9
 8000b8e:	ea90 0f01 	teqeq	r0, r1
 8000b92:	f440 0080 	orrne.w	r0, r0, #4194304	@ 0x400000
 8000b96:	4770      	bx	lr

08000b98 <__aeabi_ui2f>:
 8000b98:	f04f 0300 	mov.w	r3, #0
 8000b9c:	e004      	b.n	8000ba8 <__aeabi_i2f+0x8>
 8000b9e:	bf00      	nop

08000ba0 <__aeabi_i2f>:
 8000ba0:	f010 4300 	ands.w	r3, r0, #2147483648	@ 0x80000000
 8000ba4:	bf48      	it	mi
 8000ba6:	4240      	negmi	r0, r0
 8000ba8:	ea5f 0c00 	movs.w	ip, r0
 8000bac:	bf08      	it	eq
 8000bae:	4770      	bxeq	lr
 8000bb0:	f043 4396 	orr.w	r3, r3, #1258291200	@ 0x4b000000
 8000bb4:	4601      	mov	r1, r0
 8000bb6:	f04f 0000 	mov.w	r0, #0
 8000bba:	e01c      	b.n	8000bf6 <__aeabi_l2f+0x2a>

08000bbc <__aeabi_ul2f>:
 8000bbc:	ea50 0201 	orrs.w	r2, r0, r1
 8000bc0:	bf08      	it	eq
 8000bc2:	4770      	bxeq	lr
 8000bc4:	f04f 0300 	mov.w	r3, #0
 8000bc8:	e00a      	b.n	8000be0 <__aeabi_l2f+0x14>
 8000bca:	bf00      	nop

08000bcc <__aeabi_l2f>:
 8000bcc:	ea50 0201 	orrs.w	r2, r0, r1
 8000bd0:	bf08      	it	eq
 8000bd2:	4770      	bxeq	lr
 8000bd4:	f011 4300 	ands.w	r3, r1, #2147483648	@ 0x80000000
 8000bd8:	d502      	bpl.n	8000be0 <__aeabi_l2f+0x14>
 8000bda:	4240      	negs	r0, r0
 8000bdc:	eb61 0141 	sbc.w	r1, r1, r1, lsl #1
 8000be0:	ea5f 0c01 	movs.w	ip, r1
 8000be4:	bf02      	ittt	eq
 8000be6:	4684      	moveq	ip, r0
 8000be8:	4601      	moveq	r1, r0
 8000bea:	2000      	moveq	r0, #0
 8000bec:	f043 43b6 	orr.w	r3, r3, #1526726656	@ 0x5b000000
 8000bf0:	bf08      	it	eq
 8000bf2:	f1a3 5380 	subeq.w	r3, r3, #268435456	@ 0x10000000
 8000bf6:	f5a3 0300 	sub.w	r3, r3, #8388608	@ 0x800000
 8000bfa:	fabc f28c 	clz	r2, ip
 8000bfe:	3a08      	subs	r2, #8
 8000c00:	eba3 53c2 	sub.w	r3, r3, r2, lsl #23
 8000c04:	db10      	blt.n	8000c28 <__aeabi_l2f+0x5c>
 8000c06:	fa01 fc02 	lsl.w	ip, r1, r2
 8000c0a:	4463      	add	r3, ip
 8000c0c:	fa00 fc02 	lsl.w	ip, r0, r2
 8000c10:	f1c2 0220 	rsb	r2, r2, #32
 8000c14:	f1bc 4f00 	cmp.w	ip, #2147483648	@ 0x80000000
 8000c18:	fa20 f202 	lsr.w	r2, r0, r2
 8000c1c:	eb43 0002 	adc.w	r0, r3, r2
 8000c20:	bf08      	it	eq
 8000c22:	f020 0001 	biceq.w	r0, r0, #1
 8000c26:	4770      	bx	lr
 8000c28:	f102 0220 	add.w	r2, r2, #32
 8000c2c:	fa01 fc02 	lsl.w	ip, r1, r2
 8000c30:	f1c2 0220 	rsb	r2, r2, #32
 8000c34:	ea50 004c 	orrs.w	r0, r0, ip, lsl #1
 8000c38:	fa21 f202 	lsr.w	r2, r1, r2
 8000c3c:	eb43 0002 	adc.w	r0, r3, r2
 8000c40:	bf08      	it	eq
 8000c42:	ea20 70dc 	biceq.w	r0, r0, ip, lsr #31
 8000c46:	4770      	bx	lr

08000c48 <__aeabi_uldivmod>:
 8000c48:	b953      	cbnz	r3, 8000c60 <__aeabi_uldivmod+0x18>
 8000c4a:	b94a      	cbnz	r2, 8000c60 <__aeabi_uldivmod+0x18>
 8000c4c:	2900      	cmp	r1, #0
 8000c4e:	bf08      	it	eq
 8000c50:	2800      	cmpeq	r0, #0
 8000c52:	bf1c      	itt	ne
 8000c54:	f04f 31ff 	movne.w	r1, #4294967295
 8000c58:	f04f 30ff 	movne.w	r0, #4294967295
 8000c5c:	f000 b96a 	b.w	8000f34 <__aeabi_idiv0>
 8000c60:	f1ad 0c08 	sub.w	ip, sp, #8
 8000c64:	e96d ce04 	strd	ip, lr, [sp, #-16]!
 8000c68:	f000 f806 	bl	8000c78 <__udivmoddi4>
 8000c6c:	f8dd e004 	ldr.w	lr, [sp, #4]
 8000c70:	e9dd 2302 	ldrd	r2, r3, [sp, #8]
 8000c74:	b004      	add	sp, #16
 8000c76:	4770      	bx	lr

08000c78 <__udivmoddi4>:
 8000c78:	e92d 47f0 	stmdb	sp!, {r4, r5, r6, r7, r8, r9, sl, lr}
 8000c7c:	9d08      	ldr	r5, [sp, #32]
 8000c7e:	460c      	mov	r4, r1
 8000c80:	2b00      	cmp	r3, #0
 8000c82:	d14e      	bne.n	8000d22 <__udivmoddi4+0xaa>
 8000c84:	4694      	mov	ip, r2
 8000c86:	458c      	cmp	ip, r1
 8000c88:	4686      	mov	lr, r0
 8000c8a:	fab2 f282 	clz	r2, r2
 8000c8e:	d962      	bls.n	8000d56 <__udivmoddi4+0xde>
 8000c90:	b14a      	cbz	r2, 8000ca6 <__udivmoddi4+0x2e>
 8000c92:	f1c2 0320 	rsb	r3, r2, #32
 8000c96:	4091      	lsls	r1, r2
 8000c98:	fa20 f303 	lsr.w	r3, r0, r3
 8000c9c:	fa0c fc02 	lsl.w	ip, ip, r2
 8000ca0:	4319      	orrs	r1, r3
 8000ca2:	fa00 fe02 	lsl.w	lr, r0, r2
 8000ca6:	ea4f 471c 	mov.w	r7, ip, lsr #16
 8000caa:	fa1f f68c 	uxth.w	r6, ip
 8000cae:	fbb1 f4f7 	udiv	r4, r1, r7
 8000cb2:	ea4f 431e 	mov.w	r3, lr, lsr #16
 8000cb6:	fb07 1114 	mls	r1, r7, r4, r1
 8000cba:	ea43 4301 	orr.w	r3, r3, r1, lsl #16
 8000cbe:	fb04 f106 	mul.w	r1, r4, r6
 8000cc2:	4299      	cmp	r1, r3
 8000cc4:	d90a      	bls.n	8000cdc <__udivmoddi4+0x64>
 8000cc6:	eb1c 0303 	adds.w	r3, ip, r3
 8000cca:	f104 30ff 	add.w	r0, r4, #4294967295
 8000cce:	f080 8112 	bcs.w	8000ef6 <__udivmoddi4+0x27e>
 8000cd2:	4299      	cmp	r1, r3
 8000cd4:	f240 810f 	bls.w	8000ef6 <__udivmoddi4+0x27e>
 8000cd8:	3c02      	subs	r4, #2
 8000cda:	4463      	add	r3, ip
 8000cdc:	1a59      	subs	r1, r3, r1
 8000cde:	fa1f f38e 	uxth.w	r3, lr
 8000ce2:	fbb1 f0f7 	udiv	r0, r1, r7
 8000ce6:	fb07 1110 	mls	r1, r7, r0, r1
 8000cea:	ea43 4301 	orr.w	r3, r3, r1, lsl #16
 8000cee:	fb00 f606 	mul.w	r6, r0, r6
 8000cf2:	429e      	cmp	r6, r3
 8000cf4:	d90a      	bls.n	8000d0c <__udivmoddi4+0x94>
 8000cf6:	eb1c 0303 	adds.w	r3, ip, r3
 8000cfa:	f100 31ff 	add.w	r1, r0, #4294967295
 8000cfe:	f080 80fc 	bcs.w	8000efa <__udivmoddi4+0x282>
 8000d02:	429e      	cmp	r6, r3
 8000d04:	f240 80f9 	bls.w	8000efa <__udivmoddi4+0x282>
 8000d08:	4463      	add	r3, ip
 8000d0a:	3802      	subs	r0, #2
 8000d0c:	1b9b      	subs	r3, r3, r6
 8000d0e:	ea40 4004 	orr.w	r0, r0, r4, lsl #16
 8000d12:	2100      	movs	r1, #0
 8000d14:	b11d      	cbz	r5, 8000d1e <__udivmoddi4+0xa6>
 8000d16:	40d3      	lsrs	r3, r2
 8000d18:	2200      	movs	r2, #0
 8000d1a:	e9c5 3200 	strd	r3, r2, [r5]
 8000d1e:	e8bd 87f0 	ldmia.w	sp!, {r4, r5, r6, r7, r8, r9, sl, pc}
 8000d22:	428b      	cmp	r3, r1
 8000d24:	d905      	bls.n	8000d32 <__udivmoddi4+0xba>
 8000d26:	b10d      	cbz	r5, 8000d2c <__udivmoddi4+0xb4>
 8000d28:	e9c5 0100 	strd	r0, r1, [r5]
 8000d2c:	2100      	movs	r1, #0
 8000d2e:	4608      	mov	r0, r1
 8000d30:	e7f5      	b.n	8000d1e <__udivmoddi4+0xa6>
 8000d32:	fab3 f183 	clz	r1, r3
 8000d36:	2900      	cmp	r1, #0
 8000d38:	d146      	bne.n	8000dc8 <__udivmoddi4+0x150>
 8000d3a:	42a3      	cmp	r3, r4
 8000d3c:	d302      	bcc.n	8000d44 <__udivmoddi4+0xcc>
 8000d3e:	4290      	cmp	r0, r2
 8000d40:	f0c0 80f0 	bcc.w	8000f24 <__udivmoddi4+0x2ac>
 8000d44:	1a86      	subs	r6, r0, r2
 8000d46:	eb64 0303 	sbc.w	r3, r4, r3
 8000d4a:	2001      	movs	r0, #1
 8000d4c:	2d00      	cmp	r5, #0
 8000d4e:	d0e6      	beq.n	8000d1e <__udivmoddi4+0xa6>
 8000d50:	e9c5 6300 	strd	r6, r3, [r5]
 8000d54:	e7e3      	b.n	8000d1e <__udivmoddi4+0xa6>
 8000d56:	2a00      	cmp	r2, #0
 8000d58:	f040 8090 	bne.w	8000e7c <__udivmoddi4+0x204>
 8000d5c:	eba1 040c 	sub.w	r4, r1, ip
 8000d60:	ea4f 481c 	mov.w	r8, ip, lsr #16
 8000d64:	fa1f f78c 	uxth.w	r7, ip
 8000d68:	2101      	movs	r1, #1
 8000d6a:	fbb4 f6f8 	udiv	r6, r4, r8
 8000d6e:	ea4f 431e 	mov.w	r3, lr, lsr #16
 8000d72:	fb08 4416 	mls	r4, r8, r6, r4
 8000d76:	ea43 4304 	orr.w	r3, r3, r4, lsl #16
 8000d7a:	fb07 f006 	mul.w	r0, r7, r6
 8000d7e:	4298      	cmp	r0, r3
 8000d80:	d908      	bls.n	8000d94 <__udivmoddi4+0x11c>
 8000d82:	eb1c 0303 	adds.w	r3, ip, r3
 8000d86:	f106 34ff 	add.w	r4, r6, #4294967295
 8000d8a:	d202      	bcs.n	8000d92 <__udivmoddi4+0x11a>
 8000d8c:	4298      	cmp	r0, r3
 8000d8e:	f200 80cd 	bhi.w	8000f2c <__udivmoddi4+0x2b4>
 8000d92:	4626      	mov	r6, r4
 8000d94:	1a1c      	subs	r4, r3, r0
 8000d96:	fa1f f38e 	uxth.w	r3, lr
 8000d9a:	fbb4 f0f8 	udiv	r0, r4, r8
 8000d9e:	fb08 4410 	mls	r4, r8, r0, r4
 8000da2:	ea43 4304 	orr.w	r3, r3, r4, lsl #16
 8000da6:	fb00 f707 	mul.w	r7, r0, r7
 8000daa:	429f      	cmp	r7, r3
 8000dac:	d908      	bls.n	8000dc0 <__udivmoddi4+0x148>
 8000dae:	eb1c 0303 	adds.w	r3, ip, r3
 8000db2:	f100 34ff 	add.w	r4, r0, #4294967295
 8000db6:	d202      	bcs.n	8000dbe <__udivmoddi4+0x146>
 8000db8:	429f      	cmp	r7, r3
 8000dba:	f200 80b0 	bhi.w	8000f1e <__udivmoddi4+0x2a6>
 8000dbe:	4620      	mov	r0, r4
 8000dc0:	1bdb      	subs	r3, r3, r7
 8000dc2:	ea40 4006 	orr.w	r0, r0, r6, lsl #16
 8000dc6:	e7a5      	b.n	8000d14 <__udivmoddi4+0x9c>
 8000dc8:	f1c1 0620 	rsb	r6, r1, #32
 8000dcc:	408b      	lsls	r3, r1
 8000dce:	fa22 f706 	lsr.w	r7, r2, r6
 8000dd2:	431f      	orrs	r7, r3
 8000dd4:	fa20 fc06 	lsr.w	ip, r0, r6
 8000dd8:	fa04 f301 	lsl.w	r3, r4, r1
 8000ddc:	ea43 030c 	orr.w	r3, r3, ip
 8000de0:	40f4      	lsrs	r4, r6
 8000de2:	fa00 f801 	lsl.w	r8, r0, r1
 8000de6:	0c38      	lsrs	r0, r7, #16
 8000de8:	ea4f 4913 	mov.w	r9, r3, lsr #16
 8000dec:	fbb4 fef0 	udiv	lr, r4, r0
 8000df0:	fa1f fc87 	uxth.w	ip, r7
 8000df4:	fb00 441e 	mls	r4, r0, lr, r4
 8000df8:	ea49 4404 	orr.w	r4, r9, r4, lsl #16
 8000dfc:	fb0e f90c 	mul.w	r9, lr, ip
 8000e00:	45a1      	cmp	r9, r4
 8000e02:	fa02 f201 	lsl.w	r2, r2, r1
 8000e06:	d90a      	bls.n	8000e1e <__udivmoddi4+0x1a6>
 8000e08:	193c      	adds	r4, r7, r4
 8000e0a:	f10e 3aff 	add.w	sl, lr, #4294967295
 8000e0e:	f080 8084 	bcs.w	8000f1a <__udivmoddi4+0x2a2>
 8000e12:	45a1      	cmp	r9, r4
 8000e14:	f240 8081 	bls.w	8000f1a <__udivmoddi4+0x2a2>
 8000e18:	f1ae 0e02 	sub.w	lr, lr, #2
 8000e1c:	443c      	add	r4, r7
 8000e1e:	eba4 0409 	sub.w	r4, r4, r9
 8000e22:	fa1f f983 	uxth.w	r9, r3
 8000e26:	fbb4 f3f0 	udiv	r3, r4, r0
 8000e2a:	fb00 4413 	mls	r4, r0, r3, r4
 8000e2e:	ea49 4404 	orr.w	r4, r9, r4, lsl #16
 8000e32:	fb03 fc0c 	mul.w	ip, r3, ip
 8000e36:	45a4      	cmp	ip, r4
 8000e38:	d907      	bls.n	8000e4a <__udivmoddi4+0x1d2>
 8000e3a:	193c      	adds	r4, r7, r4
 8000e3c:	f103 30ff 	add.w	r0, r3, #4294967295
 8000e40:	d267      	bcs.n	8000f12 <__udivmoddi4+0x29a>
 8000e42:	45a4      	cmp	ip, r4
 8000e44:	d965      	bls.n	8000f12 <__udivmoddi4+0x29a>
 8000e46:	3b02      	subs	r3, #2
 8000e48:	443c      	add	r4, r7
 8000e4a:	ea43 400e 	orr.w	r0, r3, lr, lsl #16
 8000e4e:	fba0 9302 	umull	r9, r3, r0, r2
 8000e52:	eba4 040c 	sub.w	r4, r4, ip
 8000e56:	429c      	cmp	r4, r3
 8000e58:	46ce      	mov	lr, r9
 8000e5a:	469c      	mov	ip, r3
 8000e5c:	d351      	bcc.n	8000f02 <__udivmoddi4+0x28a>
 8000e5e:	d04e      	beq.n	8000efe <__udivmoddi4+0x286>
 8000e60:	b155      	cbz	r5, 8000e78 <__udivmoddi4+0x200>
 8000e62:	ebb8 030e 	subs.w	r3, r8, lr
 8000e66:	eb64 040c 	sbc.w	r4, r4, ip
 8000e6a:	fa04 f606 	lsl.w	r6, r4, r6
 8000e6e:	40cb      	lsrs	r3, r1
 8000e70:	431e      	orrs	r6, r3
 8000e72:	40cc      	lsrs	r4, r1
 8000e74:	e9c5 6400 	strd	r6, r4, [r5]
 8000e78:	2100      	movs	r1, #0
 8000e7a:	e750      	b.n	8000d1e <__udivmoddi4+0xa6>
 8000e7c:	f1c2 0320 	rsb	r3, r2, #32
 8000e80:	fa20 f103 	lsr.w	r1, r0, r3
 8000e84:	fa0c fc02 	lsl.w	ip, ip, r2
 8000e88:	fa24 f303 	lsr.w	r3, r4, r3
 8000e8c:	4094      	lsls	r4, r2
 8000e8e:	430c      	orrs	r4, r1
 8000e90:	ea4f 481c 	mov.w	r8, ip, lsr #16
 8000e94:	fa00 fe02 	lsl.w	lr, r0, r2
 8000e98:	fa1f f78c 	uxth.w	r7, ip
 8000e9c:	fbb3 f0f8 	udiv	r0, r3, r8
 8000ea0:	fb08 3110 	mls	r1, r8, r0, r3
 8000ea4:	0c23      	lsrs	r3, r4, #16
 8000ea6:	ea43 4301 	orr.w	r3, r3, r1, lsl #16
 8000eaa:	fb00 f107 	mul.w	r1, r0, r7
 8000eae:	4299      	cmp	r1, r3
 8000eb0:	d908      	bls.n	8000ec4 <__udivmoddi4+0x24c>
 8000eb2:	eb1c 0303 	adds.w	r3, ip, r3
 8000eb6:	f100 36ff 	add.w	r6, r0, #4294967295
 8000eba:	d22c      	bcs.n	8000f16 <__udivmoddi4+0x29e>
 8000ebc:	4299      	cmp	r1, r3
 8000ebe:	d92a      	bls.n	8000f16 <__udivmoddi4+0x29e>
 8000ec0:	3802      	subs	r0, #2
 8000ec2:	4463      	add	r3, ip
 8000ec4:	1a5b      	subs	r3, r3, r1
 8000ec6:	b2a4      	uxth	r4, r4
 8000ec8:	fbb3 f1f8 	udiv	r1, r3, r8
 8000ecc:	fb08 3311 	mls	r3, r8, r1, r3
 8000ed0:	ea44 4403 	orr.w	r4, r4, r3, lsl #16
 8000ed4:	fb01 f307 	mul.w	r3, r1, r7
 8000ed8:	42a3      	cmp	r3, r4
 8000eda:	d908      	bls.n	8000eee <__udivmoddi4+0x276>
 8000edc:	eb1c 0404 	adds.w	r4, ip, r4
 8000ee0:	f101 36ff 	add.w	r6, r1, #4294967295
 8000ee4:	d213      	bcs.n	8000f0e <__udivmoddi4+0x296>
 8000ee6:	42a3      	cmp	r3, r4
 8000ee8:	d911      	bls.n	8000f0e <__udivmoddi4+0x296>
 8000eea:	3902      	subs	r1, #2
 8000eec:	4464      	add	r4, ip
 8000eee:	1ae4      	subs	r4, r4, r3
 8000ef0:	ea41 4100 	orr.w	r1, r1, r0, lsl #16
 8000ef4:	e739      	b.n	8000d6a <__udivmoddi4+0xf2>
 8000ef6:	4604      	mov	r4, r0
 8000ef8:	e6f0      	b.n	8000cdc <__udivmoddi4+0x64>
 8000efa:	4608      	mov	r0, r1
 8000efc:	e706      	b.n	8000d0c <__udivmoddi4+0x94>
 8000efe:	45c8      	cmp	r8, r9
 8000f00:	d2ae      	bcs.n	8000e60 <__udivmoddi4+0x1e8>
 8000f02:	ebb9 0e02 	subs.w	lr, r9, r2
 8000f06:	eb63 0c07 	sbc.w	ip, r3, r7
 8000f0a:	3801      	subs	r0, #1
 8000f0c:	e7a8      	b.n	8000e60 <__udivmoddi4+0x1e8>
 8000f0e:	4631      	mov	r1, r6
 8000f10:	e7ed      	b.n	8000eee <__udivmoddi4+0x276>
 8000f12:	4603      	mov	r3, r0
 8000f14:	e799      	b.n	8000e4a <__udivmoddi4+0x1d2>
 8000f16:	4630      	mov	r0, r6
 8000f18:	e7d4      	b.n	8000ec4 <__udivmoddi4+0x24c>
 8000f1a:	46d6      	mov	lr, sl
 8000f1c:	e77f      	b.n	8000e1e <__udivmoddi4+0x1a6>
 8000f1e:	4463      	add	r3, ip
 8000f20:	3802      	subs	r0, #2
 8000f22:	e74d      	b.n	8000dc0 <__udivmoddi4+0x148>
 8000f24:	4606      	mov	r6, r0
 8000f26:	4623      	mov	r3, r4
 8000f28:	4608      	mov	r0, r1
 8000f2a:	e70f      	b.n	8000d4c <__udivmoddi4+0xd4>
 8000f2c:	3e02      	subs	r6, #2
 8000f2e:	4463      	add	r3, ip
 8000f30:	e730      	b.n	8000d94 <__udivmoddi4+0x11c>
 8000f32:	bf00      	nop

08000f34 <__aeabi_idiv0>:
 8000f34:	4770      	bx	lr
 8000f36:	bf00      	nop

08000f38 <u8g2_DrawHXBM>:
}



void u8g2_DrawHXBM(u8g2_t *u8g2, u8g2_uint_t x, u8g2_uint_t y, u8g2_uint_t len, const uint8_t *b)
{
 8000f38:	b580      	push	{r7, lr}
 8000f3a:	b088      	sub	sp, #32
 8000f3c:	af02      	add	r7, sp, #8
 8000f3e:	60f8      	str	r0, [r7, #12]
 8000f40:	4608      	mov	r0, r1
 8000f42:	4611      	mov	r1, r2
 8000f44:	461a      	mov	r2, r3
 8000f46:	4603      	mov	r3, r0
 8000f48:	817b      	strh	r3, [r7, #10]
 8000f4a:	460b      	mov	r3, r1
 8000f4c:	813b      	strh	r3, [r7, #8]
 8000f4e:	4613      	mov	r3, r2
 8000f50:	80fb      	strh	r3, [r7, #6]
  uint8_t mask;
  uint8_t color = u8g2->draw_color;
 8000f52:	68fb      	ldr	r3, [r7, #12]
 8000f54:	f893 3092 	ldrb.w	r3, [r3, #146]	@ 0x92
 8000f58:	75bb      	strb	r3, [r7, #22]
  uint8_t ncolor = (color == 0 ? 1 : 0);
 8000f5a:	7dbb      	ldrb	r3, [r7, #22]
 8000f5c:	2b00      	cmp	r3, #0
 8000f5e:	bf0c      	ite	eq
 8000f60:	2301      	moveq	r3, #1
 8000f62:	2300      	movne	r3, #0
 8000f64:	b2db      	uxtb	r3, r3
 8000f66:	757b      	strb	r3, [r7, #21]
#ifdef U8G2_WITH_INTERSECTION
  if ( u8g2_IsIntersection(u8g2, x, y, x+len, y+1) == 0 ) 
 8000f68:	897a      	ldrh	r2, [r7, #10]
 8000f6a:	88fb      	ldrh	r3, [r7, #6]
 8000f6c:	4413      	add	r3, r2
 8000f6e:	b298      	uxth	r0, r3
 8000f70:	893b      	ldrh	r3, [r7, #8]
 8000f72:	3301      	adds	r3, #1
 8000f74:	b29b      	uxth	r3, r3
 8000f76:	893a      	ldrh	r2, [r7, #8]
 8000f78:	8979      	ldrh	r1, [r7, #10]
 8000f7a:	9300      	str	r3, [sp, #0]
 8000f7c:	4603      	mov	r3, r0
 8000f7e:	68f8      	ldr	r0, [r7, #12]
 8000f80:	f001 f875 	bl	800206e <u8g2_IsIntersection>
 8000f84:	4603      	mov	r3, r0
 8000f86:	2b00      	cmp	r3, #0
 8000f88:	d040      	beq.n	800100c <u8g2_DrawHXBM+0xd4>
    return;
#endif /* U8G2_WITH_INTERSECTION */
  
  mask = 1;
 8000f8a:	2301      	movs	r3, #1
 8000f8c:	75fb      	strb	r3, [r7, #23]
  while(len > 0) {
 8000f8e:	e035      	b.n	8000ffc <u8g2_DrawHXBM+0xc4>
    if ( *b & mask ) {
 8000f90:	6a3b      	ldr	r3, [r7, #32]
 8000f92:	781a      	ldrb	r2, [r3, #0]
 8000f94:	7dfb      	ldrb	r3, [r7, #23]
 8000f96:	4013      	ands	r3, r2
 8000f98:	b2db      	uxtb	r3, r3
 8000f9a:	2b00      	cmp	r3, #0
 8000f9c:	d00c      	beq.n	8000fb8 <u8g2_DrawHXBM+0x80>
      u8g2->draw_color = color;
 8000f9e:	68fb      	ldr	r3, [r7, #12]
 8000fa0:	7dba      	ldrb	r2, [r7, #22]
 8000fa2:	f883 2092 	strb.w	r2, [r3, #146]	@ 0x92
      u8g2_DrawHVLine(u8g2, x, y, 1, 0);
 8000fa6:	893a      	ldrh	r2, [r7, #8]
 8000fa8:	8979      	ldrh	r1, [r7, #10]
 8000faa:	2300      	movs	r3, #0
 8000fac:	9300      	str	r3, [sp, #0]
 8000fae:	2301      	movs	r3, #1
 8000fb0:	68f8      	ldr	r0, [r7, #12]
 8000fb2:	f000 ff9e 	bl	8001ef2 <u8g2_DrawHVLine>
 8000fb6:	e010      	b.n	8000fda <u8g2_DrawHXBM+0xa2>
    } else if ( u8g2->bitmap_transparency == 0 ) {
 8000fb8:	68fb      	ldr	r3, [r7, #12]
 8000fba:	f893 3091 	ldrb.w	r3, [r3, #145]	@ 0x91
 8000fbe:	2b00      	cmp	r3, #0
 8000fc0:	d10b      	bne.n	8000fda <u8g2_DrawHXBM+0xa2>
      u8g2->draw_color = ncolor;
 8000fc2:	68fb      	ldr	r3, [r7, #12]
 8000fc4:	7d7a      	ldrb	r2, [r7, #21]
 8000fc6:	f883 2092 	strb.w	r2, [r3, #146]	@ 0x92
      u8g2_DrawHVLine(u8g2, x, y, 1, 0);
 8000fca:	893a      	ldrh	r2, [r7, #8]
 8000fcc:	8979      	ldrh	r1, [r7, #10]
 8000fce:	2300      	movs	r3, #0
 8000fd0:	9300      	str	r3, [sp, #0]
 8000fd2:	2301      	movs	r3, #1
 8000fd4:	68f8      	ldr	r0, [r7, #12]
 8000fd6:	f000 ff8c 	bl	8001ef2 <u8g2_DrawHVLine>
    }
    x++;
 8000fda:	897b      	ldrh	r3, [r7, #10]
 8000fdc:	3301      	adds	r3, #1
 8000fde:	817b      	strh	r3, [r7, #10]
    mask <<= 1;
 8000fe0:	7dfb      	ldrb	r3, [r7, #23]
 8000fe2:	005b      	lsls	r3, r3, #1
 8000fe4:	75fb      	strb	r3, [r7, #23]
    if ( mask == 0 )
 8000fe6:	7dfb      	ldrb	r3, [r7, #23]
 8000fe8:	2b00      	cmp	r3, #0
 8000fea:	d104      	bne.n	8000ff6 <u8g2_DrawHXBM+0xbe>
    {
      mask = 1;
 8000fec:	2301      	movs	r3, #1
 8000fee:	75fb      	strb	r3, [r7, #23]
      b++;
 8000ff0:	6a3b      	ldr	r3, [r7, #32]
 8000ff2:	3301      	adds	r3, #1
 8000ff4:	623b      	str	r3, [r7, #32]
    }
    len--;
 8000ff6:	88fb      	ldrh	r3, [r7, #6]
 8000ff8:	3b01      	subs	r3, #1
 8000ffa:	80fb      	strh	r3, [r7, #6]
  while(len > 0) {
 8000ffc:	88fb      	ldrh	r3, [r7, #6]
 8000ffe:	2b00      	cmp	r3, #0
 8001000:	d1c6      	bne.n	8000f90 <u8g2_DrawHXBM+0x58>
  }
  u8g2->draw_color = color;
 8001002:	68fb      	ldr	r3, [r7, #12]
 8001004:	7dba      	ldrb	r2, [r7, #22]
 8001006:	f883 2092 	strb.w	r2, [r3, #146]	@ 0x92
 800100a:	e000      	b.n	800100e <u8g2_DrawHXBM+0xd6>
    return;
 800100c:	bf00      	nop
}
 800100e:	3718      	adds	r7, #24
 8001010:	46bd      	mov	sp, r7
 8001012:	bd80      	pop	{r7, pc}

08001014 <u8g2_DrawXBM>:


void u8g2_DrawXBM(u8g2_t *u8g2, u8g2_uint_t x, u8g2_uint_t y, u8g2_uint_t w, u8g2_uint_t h, const uint8_t *bitmap)
{
 8001014:	b580      	push	{r7, lr}
 8001016:	b088      	sub	sp, #32
 8001018:	af02      	add	r7, sp, #8
 800101a:	60f8      	str	r0, [r7, #12]
 800101c:	4608      	mov	r0, r1
 800101e:	4611      	mov	r1, r2
 8001020:	461a      	mov	r2, r3
 8001022:	4603      	mov	r3, r0
 8001024:	817b      	strh	r3, [r7, #10]
 8001026:	460b      	mov	r3, r1
 8001028:	813b      	strh	r3, [r7, #8]
 800102a:	4613      	mov	r3, r2
 800102c:	80fb      	strh	r3, [r7, #6]
  u8g2_uint_t blen;
  blen = w;
 800102e:	88fb      	ldrh	r3, [r7, #6]
 8001030:	82fb      	strh	r3, [r7, #22]
  blen += 7;
 8001032:	8afb      	ldrh	r3, [r7, #22]
 8001034:	3307      	adds	r3, #7
 8001036:	82fb      	strh	r3, [r7, #22]
  blen >>= 3;
 8001038:	8afb      	ldrh	r3, [r7, #22]
 800103a:	08db      	lsrs	r3, r3, #3
 800103c:	82fb      	strh	r3, [r7, #22]
#ifdef U8G2_WITH_INTERSECTION
  if ( u8g2_IsIntersection(u8g2, x, y, x+w, y+h) == 0 ) 
 800103e:	897a      	ldrh	r2, [r7, #10]
 8001040:	88fb      	ldrh	r3, [r7, #6]
 8001042:	4413      	add	r3, r2
 8001044:	b298      	uxth	r0, r3
 8001046:	893a      	ldrh	r2, [r7, #8]
 8001048:	8c3b      	ldrh	r3, [r7, #32]
 800104a:	4413      	add	r3, r2
 800104c:	b29b      	uxth	r3, r3
 800104e:	893a      	ldrh	r2, [r7, #8]
 8001050:	8979      	ldrh	r1, [r7, #10]
 8001052:	9300      	str	r3, [sp, #0]
 8001054:	4603      	mov	r3, r0
 8001056:	68f8      	ldr	r0, [r7, #12]
 8001058:	f001 f809 	bl	800206e <u8g2_IsIntersection>
 800105c:	4603      	mov	r3, r0
 800105e:	2b00      	cmp	r3, #0
 8001060:	d017      	beq.n	8001092 <u8g2_DrawXBM+0x7e>
    return;
#endif /* U8G2_WITH_INTERSECTION */
  
  while( h > 0 )
 8001062:	e012      	b.n	800108a <u8g2_DrawXBM+0x76>
  {
    u8g2_DrawHXBM(u8g2, x, y, w, bitmap);
 8001064:	88f8      	ldrh	r0, [r7, #6]
 8001066:	893a      	ldrh	r2, [r7, #8]
 8001068:	8979      	ldrh	r1, [r7, #10]
 800106a:	6a7b      	ldr	r3, [r7, #36]	@ 0x24
 800106c:	9300      	str	r3, [sp, #0]
 800106e:	4603      	mov	r3, r0
 8001070:	68f8      	ldr	r0, [r7, #12]
 8001072:	f7ff ff61 	bl	8000f38 <u8g2_DrawHXBM>
    bitmap += blen;
 8001076:	8afb      	ldrh	r3, [r7, #22]
 8001078:	6a7a      	ldr	r2, [r7, #36]	@ 0x24
 800107a:	4413      	add	r3, r2
 800107c:	627b      	str	r3, [r7, #36]	@ 0x24
    y++;
 800107e:	893b      	ldrh	r3, [r7, #8]
 8001080:	3301      	adds	r3, #1
 8001082:	813b      	strh	r3, [r7, #8]
    h--;
 8001084:	8c3b      	ldrh	r3, [r7, #32]
 8001086:	3b01      	subs	r3, #1
 8001088:	843b      	strh	r3, [r7, #32]
  while( h > 0 )
 800108a:	8c3b      	ldrh	r3, [r7, #32]
 800108c:	2b00      	cmp	r3, #0
 800108e:	d1e9      	bne.n	8001064 <u8g2_DrawXBM+0x50>
 8001090:	e000      	b.n	8001094 <u8g2_DrawXBM+0x80>
    return;
 8001092:	bf00      	nop
  }
}
 8001094:	3718      	adds	r7, #24
 8001096:	46bd      	mov	sp, r7
 8001098:	bd80      	pop	{r7, pc}

0800109a <u8g2_ClearBuffer>:
#include "u8g2.h"
#include <string.h>

/*============================================*/
void u8g2_ClearBuffer(u8g2_t *u8g2)
{
 800109a:	b580      	push	{r7, lr}
 800109c:	b084      	sub	sp, #16
 800109e:	af00      	add	r7, sp, #0
 80010a0:	6078      	str	r0, [r7, #4]
  size_t cnt;
  cnt = u8g2_GetU8x8(u8g2)->display_info->tile_width;
 80010a2:	687b      	ldr	r3, [r7, #4]
 80010a4:	681b      	ldr	r3, [r3, #0]
 80010a6:	7c1b      	ldrb	r3, [r3, #16]
 80010a8:	60fb      	str	r3, [r7, #12]
  cnt *= u8g2->tile_buf_height;
 80010aa:	687b      	ldr	r3, [r7, #4]
 80010ac:	f893 3038 	ldrb.w	r3, [r3, #56]	@ 0x38
 80010b0:	461a      	mov	r2, r3
 80010b2:	68fb      	ldr	r3, [r7, #12]
 80010b4:	fb02 f303 	mul.w	r3, r2, r3
 80010b8:	60fb      	str	r3, [r7, #12]
  cnt *= 8;
 80010ba:	68fb      	ldr	r3, [r7, #12]
 80010bc:	00db      	lsls	r3, r3, #3
 80010be:	60fb      	str	r3, [r7, #12]
  memset(u8g2->tile_buf_ptr, 0, cnt);
 80010c0:	687b      	ldr	r3, [r7, #4]
 80010c2:	6b5b      	ldr	r3, [r3, #52]	@ 0x34
 80010c4:	68fa      	ldr	r2, [r7, #12]
 80010c6:	2100      	movs	r1, #0
 80010c8:	4618      	mov	r0, r3
 80010ca:	f005 fecf 	bl	8006e6c <memset>
}
 80010ce:	bf00      	nop
 80010d0:	3710      	adds	r7, #16
 80010d2:	46bd      	mov	sp, r7
 80010d4:	bd80      	pop	{r7, pc}

080010d6 <u8g2_send_tile_row>:

/*============================================*/

static void u8g2_send_tile_row(u8g2_t *u8g2, uint8_t src_tile_row, uint8_t dest_tile_row)
{
 80010d6:	b580      	push	{r7, lr}
 80010d8:	b086      	sub	sp, #24
 80010da:	af02      	add	r7, sp, #8
 80010dc:	6078      	str	r0, [r7, #4]
 80010de:	460b      	mov	r3, r1
 80010e0:	70fb      	strb	r3, [r7, #3]
 80010e2:	4613      	mov	r3, r2
 80010e4:	70bb      	strb	r3, [r7, #2]
  uint8_t *ptr;
  uint16_t offset;
  uint8_t w;
  
  w = u8g2_GetU8x8(u8g2)->display_info->tile_width;
 80010e6:	687b      	ldr	r3, [r7, #4]
 80010e8:	681b      	ldr	r3, [r3, #0]
 80010ea:	7c1b      	ldrb	r3, [r3, #16]
 80010ec:	73fb      	strb	r3, [r7, #15]
  offset = src_tile_row;
 80010ee:	78fb      	ldrb	r3, [r7, #3]
 80010f0:	81bb      	strh	r3, [r7, #12]
  ptr = u8g2->tile_buf_ptr;
 80010f2:	687b      	ldr	r3, [r7, #4]
 80010f4:	6b5b      	ldr	r3, [r3, #52]	@ 0x34
 80010f6:	60bb      	str	r3, [r7, #8]
  offset *= w;
 80010f8:	7bfb      	ldrb	r3, [r7, #15]
 80010fa:	b29b      	uxth	r3, r3
 80010fc:	89ba      	ldrh	r2, [r7, #12]
 80010fe:	fb12 f303 	smulbb	r3, r2, r3
 8001102:	81bb      	strh	r3, [r7, #12]
  offset *= 8;
 8001104:	89bb      	ldrh	r3, [r7, #12]
 8001106:	00db      	lsls	r3, r3, #3
 8001108:	81bb      	strh	r3, [r7, #12]
  ptr += offset;
 800110a:	89bb      	ldrh	r3, [r7, #12]
 800110c:	68ba      	ldr	r2, [r7, #8]
 800110e:	4413      	add	r3, r2
 8001110:	60bb      	str	r3, [r7, #8]
  u8x8_DrawTile(u8g2_GetU8x8(u8g2), 0, dest_tile_row, w, ptr);
 8001112:	7bf9      	ldrb	r1, [r7, #15]
 8001114:	78ba      	ldrb	r2, [r7, #2]
 8001116:	68bb      	ldr	r3, [r7, #8]
 8001118:	9300      	str	r3, [sp, #0]
 800111a:	460b      	mov	r3, r1
 800111c:	2100      	movs	r1, #0
 800111e:	6878      	ldr	r0, [r7, #4]
 8001120:	f001 fc8b 	bl	8002a3a <u8x8_DrawTile>
}
 8001124:	bf00      	nop
 8001126:	3710      	adds	r7, #16
 8001128:	46bd      	mov	sp, r7
 800112a:	bd80      	pop	{r7, pc}

0800112c <u8g2_send_buffer>:
  For most displays, this will make the content visible to the user.
  Some displays (like the SSD1606) require a u8x8_RefreshDisplay()
*/
static void u8g2_send_buffer(u8g2_t *u8g2) U8X8_NOINLINE;
static void u8g2_send_buffer(u8g2_t *u8g2)
{
 800112c:	b580      	push	{r7, lr}
 800112e:	b084      	sub	sp, #16
 8001130:	af00      	add	r7, sp, #0
 8001132:	6078      	str	r0, [r7, #4]
  uint8_t src_row;
  uint8_t src_max;
  uint8_t dest_row;
  uint8_t dest_max;

  src_row = 0;
 8001134:	2300      	movs	r3, #0
 8001136:	73fb      	strb	r3, [r7, #15]
  src_max = u8g2->tile_buf_height;
 8001138:	687b      	ldr	r3, [r7, #4]
 800113a:	f893 3038 	ldrb.w	r3, [r3, #56]	@ 0x38
 800113e:	737b      	strb	r3, [r7, #13]
  dest_row = u8g2->tile_curr_row;
 8001140:	687b      	ldr	r3, [r7, #4]
 8001142:	f893 3039 	ldrb.w	r3, [r3, #57]	@ 0x39
 8001146:	73bb      	strb	r3, [r7, #14]
  dest_max = u8g2_GetU8x8(u8g2)->display_info->tile_height;
 8001148:	687b      	ldr	r3, [r7, #4]
 800114a:	681b      	ldr	r3, [r3, #0]
 800114c:	7c5b      	ldrb	r3, [r3, #17]
 800114e:	733b      	strb	r3, [r7, #12]
  
  do
  {
    u8g2_send_tile_row(u8g2, src_row, dest_row);
 8001150:	7bba      	ldrb	r2, [r7, #14]
 8001152:	7bfb      	ldrb	r3, [r7, #15]
 8001154:	4619      	mov	r1, r3
 8001156:	6878      	ldr	r0, [r7, #4]
 8001158:	f7ff ffbd 	bl	80010d6 <u8g2_send_tile_row>
    src_row++;
 800115c:	7bfb      	ldrb	r3, [r7, #15]
 800115e:	3301      	adds	r3, #1
 8001160:	73fb      	strb	r3, [r7, #15]
    dest_row++;
 8001162:	7bbb      	ldrb	r3, [r7, #14]
 8001164:	3301      	adds	r3, #1
 8001166:	73bb      	strb	r3, [r7, #14]
  } while( src_row < src_max && dest_row < dest_max );
 8001168:	7bfa      	ldrb	r2, [r7, #15]
 800116a:	7b7b      	ldrb	r3, [r7, #13]
 800116c:	429a      	cmp	r2, r3
 800116e:	d203      	bcs.n	8001178 <u8g2_send_buffer+0x4c>
 8001170:	7bba      	ldrb	r2, [r7, #14]
 8001172:	7b3b      	ldrb	r3, [r7, #12]
 8001174:	429a      	cmp	r2, r3
 8001176:	d3eb      	bcc.n	8001150 <u8g2_send_buffer+0x24>
}
 8001178:	bf00      	nop
 800117a:	3710      	adds	r7, #16
 800117c:	46bd      	mov	sp, r7
 800117e:	bd80      	pop	{r7, pc}

08001180 <u8g2_SetBufferCurrTileRow>:
  u8x8_RefreshDisplay( u8g2_GetU8x8(u8g2) );  
}

/*============================================*/
void u8g2_SetBufferCurrTileRow(u8g2_t *u8g2, uint8_t row)
{
 8001180:	b580      	push	{r7, lr}
 8001182:	b082      	sub	sp, #8
 8001184:	af00      	add	r7, sp, #0
 8001186:	6078      	str	r0, [r7, #4]
 8001188:	460b      	mov	r3, r1
 800118a:	70fb      	strb	r3, [r7, #3]
  u8g2->tile_curr_row = row;
 800118c:	687b      	ldr	r3, [r7, #4]
 800118e:	78fa      	ldrb	r2, [r7, #3]
 8001190:	f883 2039 	strb.w	r2, [r3, #57]	@ 0x39
  u8g2->cb->update_dimension(u8g2);
 8001194:	687b      	ldr	r3, [r7, #4]
 8001196:	6b1b      	ldr	r3, [r3, #48]	@ 0x30
 8001198:	681b      	ldr	r3, [r3, #0]
 800119a:	6878      	ldr	r0, [r7, #4]
 800119c:	4798      	blx	r3
  u8g2->cb->update_page_win(u8g2);
 800119e:	687b      	ldr	r3, [r7, #4]
 80011a0:	6b1b      	ldr	r3, [r3, #48]	@ 0x30
 80011a2:	685b      	ldr	r3, [r3, #4]
 80011a4:	6878      	ldr	r0, [r7, #4]
 80011a6:	4798      	blx	r3
}
 80011a8:	bf00      	nop
 80011aa:	3708      	adds	r7, #8
 80011ac:	46bd      	mov	sp, r7
 80011ae:	bd80      	pop	{r7, pc}

080011b0 <u8g2_FirstPage>:

void u8g2_FirstPage(u8g2_t *u8g2)
{
 80011b0:	b580      	push	{r7, lr}
 80011b2:	b082      	sub	sp, #8
 80011b4:	af00      	add	r7, sp, #0
 80011b6:	6078      	str	r0, [r7, #4]
  if ( u8g2->is_auto_page_clear )
 80011b8:	687b      	ldr	r3, [r7, #4]
 80011ba:	f893 3093 	ldrb.w	r3, [r3, #147]	@ 0x93
 80011be:	2b00      	cmp	r3, #0
 80011c0:	d002      	beq.n	80011c8 <u8g2_FirstPage+0x18>
  {
    u8g2_ClearBuffer(u8g2);
 80011c2:	6878      	ldr	r0, [r7, #4]
 80011c4:	f7ff ff69 	bl	800109a <u8g2_ClearBuffer>
  }
  u8g2_SetBufferCurrTileRow(u8g2, 0);
 80011c8:	2100      	movs	r1, #0
 80011ca:	6878      	ldr	r0, [r7, #4]
 80011cc:	f7ff ffd8 	bl	8001180 <u8g2_SetBufferCurrTileRow>
}
 80011d0:	bf00      	nop
 80011d2:	3708      	adds	r7, #8
 80011d4:	46bd      	mov	sp, r7
 80011d6:	bd80      	pop	{r7, pc}

080011d8 <u8g2_NextPage>:

uint8_t u8g2_NextPage(u8g2_t *u8g2)
{
 80011d8:	b580      	push	{r7, lr}
 80011da:	b084      	sub	sp, #16
 80011dc:	af00      	add	r7, sp, #0
 80011de:	6078      	str	r0, [r7, #4]
  uint8_t row;
  u8g2_send_buffer(u8g2);
 80011e0:	6878      	ldr	r0, [r7, #4]
 80011e2:	f7ff ffa3 	bl	800112c <u8g2_send_buffer>
  row = u8g2->tile_curr_row;
 80011e6:	687b      	ldr	r3, [r7, #4]
 80011e8:	f893 3039 	ldrb.w	r3, [r3, #57]	@ 0x39
 80011ec:	73fb      	strb	r3, [r7, #15]
  row += u8g2->tile_buf_height;
 80011ee:	687b      	ldr	r3, [r7, #4]
 80011f0:	f893 2038 	ldrb.w	r2, [r3, #56]	@ 0x38
 80011f4:	7bfb      	ldrb	r3, [r7, #15]
 80011f6:	4413      	add	r3, r2
 80011f8:	73fb      	strb	r3, [r7, #15]
  if ( row >= u8g2_GetU8x8(u8g2)->display_info->tile_height )
 80011fa:	687b      	ldr	r3, [r7, #4]
 80011fc:	681b      	ldr	r3, [r3, #0]
 80011fe:	7c5b      	ldrb	r3, [r3, #17]
 8001200:	7bfa      	ldrb	r2, [r7, #15]
 8001202:	429a      	cmp	r2, r3
 8001204:	d304      	bcc.n	8001210 <u8g2_NextPage+0x38>
  {
    u8x8_RefreshDisplay( u8g2_GetU8x8(u8g2) );
 8001206:	6878      	ldr	r0, [r7, #4]
 8001208:	f001 fc79 	bl	8002afe <u8x8_RefreshDisplay>
    return 0;
 800120c:	2300      	movs	r3, #0
 800120e:	e00d      	b.n	800122c <u8g2_NextPage+0x54>
  }
  if ( u8g2->is_auto_page_clear )
 8001210:	687b      	ldr	r3, [r7, #4]
 8001212:	f893 3093 	ldrb.w	r3, [r3, #147]	@ 0x93
 8001216:	2b00      	cmp	r3, #0
 8001218:	d002      	beq.n	8001220 <u8g2_NextPage+0x48>
  {
    u8g2_ClearBuffer(u8g2);
 800121a:	6878      	ldr	r0, [r7, #4]
 800121c:	f7ff ff3d 	bl	800109a <u8g2_ClearBuffer>
  }
  u8g2_SetBufferCurrTileRow(u8g2, row);
 8001220:	7bfb      	ldrb	r3, [r7, #15]
 8001222:	4619      	mov	r1, r3
 8001224:	6878      	ldr	r0, [r7, #4]
 8001226:	f7ff ffab 	bl	8001180 <u8g2_SetBufferCurrTileRow>
  return 1;
 800122a:	2301      	movs	r3, #1
}
 800122c:	4618      	mov	r0, r3
 800122e:	3710      	adds	r7, #16
 8001230:	46bd      	mov	sp, r7
 8001232:	bd80      	pop	{r7, pc}

08001234 <u8g2_ClearDisplay>:
#include "u8g2.h"

/* Clear screen buffer & display reliable for all u8g2 displays. */
/* This is done with u8g2 picture loop, because we can not use the u8x8 function in all cases */
void u8g2_ClearDisplay(u8g2_t *u8g2)
{
 8001234:	b580      	push	{r7, lr}
 8001236:	b082      	sub	sp, #8
 8001238:	af00      	add	r7, sp, #0
 800123a:	6078      	str	r0, [r7, #4]
  u8g2_FirstPage(u8g2);
 800123c:	6878      	ldr	r0, [r7, #4]
 800123e:	f7ff ffb7 	bl	80011b0 <u8g2_FirstPage>
  do {
  } while ( u8g2_NextPage(u8g2) );
 8001242:	6878      	ldr	r0, [r7, #4]
 8001244:	f7ff ffc8 	bl	80011d8 <u8g2_NextPage>
 8001248:	4603      	mov	r3, r0
 800124a:	2b00      	cmp	r3, #0
 800124c:	d1f9      	bne.n	8001242 <u8g2_ClearDisplay+0xe>
    send commands.
    This will not work because the current tile row is modified by the picture 
    loop above. To fix this, reset the tile row to 0, issue #370
    A workaround would be, that the user sets the current tile row to 0 manually.
  */
  u8g2_SetBufferCurrTileRow(u8g2, 0);  
 800124e:	2100      	movs	r1, #0
 8001250:	6878      	ldr	r0, [r7, #4]
 8001252:	f7ff ff95 	bl	8001180 <u8g2_SetBufferCurrTileRow>
}
 8001256:	bf00      	nop
 8001258:	3708      	adds	r7, #8
 800125a:	46bd      	mov	sp, r7
 800125c:	bd80      	pop	{r7, pc}
	...

08001260 <u8g2_m_16_8_f>:
  *page_cnt = 2;
  return buf;
  #endif
}
uint8_t *u8g2_m_16_8_f(uint8_t *page_cnt)
{
 8001260:	b480      	push	{r7}
 8001262:	b083      	sub	sp, #12
 8001264:	af00      	add	r7, sp, #0
 8001266:	6078      	str	r0, [r7, #4]
  #ifdef U8G2_USE_DYNAMIC_ALLOC
  *page_cnt = 8;
  return 0;
  #else
  static uint8_t buf[1024];
  *page_cnt = 8;
 8001268:	687b      	ldr	r3, [r7, #4]
 800126a:	2208      	movs	r2, #8
 800126c:	701a      	strb	r2, [r3, #0]
  return buf;
 800126e:	4b03      	ldr	r3, [pc, #12]	@ (800127c <u8g2_m_16_8_f+0x1c>)
  #endif
}
 8001270:	4618      	mov	r0, r3
 8001272:	370c      	adds	r7, #12
 8001274:	46bd      	mov	sp, r7
 8001276:	f85d 7b04 	ldr.w	r7, [sp], #4
 800127a:	4770      	bx	lr
 800127c:	20000608 	.word	0x20000608

08001280 <u8g2_Setup_st7565_64128n_f>:
  u8g2_SetupDisplay(u8g2, u8x8_d_st7565_lm6063, u8x8_cad_001, byte_cb, gpio_and_delay_cb);
  buf = u8g2_m_16_8_f(&tile_buf_height);
  u8g2_SetupBuffer(u8g2, buf, tile_buf_height, u8g2_ll_hvline_vertical_top_lsb, rotation);
}
void u8g2_Setup_st7565_64128n_f(u8g2_t *u8g2, const u8g2_cb_t *rotation, u8x8_msg_cb byte_cb, u8x8_msg_cb gpio_and_delay_cb)
{
 8001280:	b580      	push	{r7, lr}
 8001282:	b088      	sub	sp, #32
 8001284:	af02      	add	r7, sp, #8
 8001286:	60f8      	str	r0, [r7, #12]
 8001288:	60b9      	str	r1, [r7, #8]
 800128a:	607a      	str	r2, [r7, #4]
 800128c:	603b      	str	r3, [r7, #0]
  uint8_t tile_buf_height;
  uint8_t *buf;
  u8g2_SetupDisplay(u8g2, u8x8_d_st7565_64128n, u8x8_cad_001, byte_cb, gpio_and_delay_cb);
 800128e:	683b      	ldr	r3, [r7, #0]
 8001290:	9300      	str	r3, [sp, #0]
 8001292:	687b      	ldr	r3, [r7, #4]
 8001294:	4a0b      	ldr	r2, [pc, #44]	@ (80012c4 <u8g2_Setup_st7565_64128n_f+0x44>)
 8001296:	490c      	ldr	r1, [pc, #48]	@ (80012c8 <u8g2_Setup_st7565_64128n_f+0x48>)
 8001298:	68f8      	ldr	r0, [r7, #12]
 800129a:	f001 fc91 	bl	8002bc0 <u8x8_Setup>
  buf = u8g2_m_16_8_f(&tile_buf_height);
 800129e:	f107 0313 	add.w	r3, r7, #19
 80012a2:	4618      	mov	r0, r3
 80012a4:	f7ff ffdc 	bl	8001260 <u8g2_m_16_8_f>
 80012a8:	6178      	str	r0, [r7, #20]
  u8g2_SetupBuffer(u8g2, buf, tile_buf_height, u8g2_ll_hvline_vertical_top_lsb, rotation);
 80012aa:	7cfa      	ldrb	r2, [r7, #19]
 80012ac:	68bb      	ldr	r3, [r7, #8]
 80012ae:	9300      	str	r3, [sp, #0]
 80012b0:	4b06      	ldr	r3, [pc, #24]	@ (80012cc <u8g2_Setup_st7565_64128n_f+0x4c>)
 80012b2:	6979      	ldr	r1, [r7, #20]
 80012b4:	68f8      	ldr	r0, [r7, #12]
 80012b6:	f000 ffc4 	bl	8002242 <u8g2_SetupBuffer>
}
 80012ba:	bf00      	nop
 80012bc:	3718      	adds	r7, #24
 80012be:	46bd      	mov	sp, r7
 80012c0:	bd80      	pop	{r7, pc}
 80012c2:	bf00      	nop
 80012c4:	08002755 	.word	0x08002755
 80012c8:	080028f5 	.word	0x080028f5
 80012cc:	080020c5 	.word	0x080020c5

080012d0 <u8g2_font_get_byte>:
/* low level byte and word access */

/* removed NOINLINE, because it leads to smaller code, might also be faster */
//static uint8_t u8g2_font_get_byte(const uint8_t *font, uint8_t offset) U8G2_NOINLINE;
static uint8_t u8g2_font_get_byte(const uint8_t *font, uint8_t offset)
{
 80012d0:	b480      	push	{r7}
 80012d2:	b083      	sub	sp, #12
 80012d4:	af00      	add	r7, sp, #0
 80012d6:	6078      	str	r0, [r7, #4]
 80012d8:	460b      	mov	r3, r1
 80012da:	70fb      	strb	r3, [r7, #3]
  font += offset;
 80012dc:	78fb      	ldrb	r3, [r7, #3]
 80012de:	687a      	ldr	r2, [r7, #4]
 80012e0:	4413      	add	r3, r2
 80012e2:	607b      	str	r3, [r7, #4]
  return u8x8_pgm_read( font );  
 80012e4:	687b      	ldr	r3, [r7, #4]
 80012e6:	781b      	ldrb	r3, [r3, #0]
}
 80012e8:	4618      	mov	r0, r3
 80012ea:	370c      	adds	r7, #12
 80012ec:	46bd      	mov	sp, r7
 80012ee:	f85d 7b04 	ldr.w	r7, [sp], #4
 80012f2:	4770      	bx	lr

080012f4 <u8g2_font_get_word>:

static uint16_t u8g2_font_get_word(const uint8_t *font, uint8_t offset) U8G2_NOINLINE; 
static uint16_t u8g2_font_get_word(const uint8_t *font, uint8_t offset)
{
 80012f4:	b480      	push	{r7}
 80012f6:	b085      	sub	sp, #20
 80012f8:	af00      	add	r7, sp, #0
 80012fa:	6078      	str	r0, [r7, #4]
 80012fc:	460b      	mov	r3, r1
 80012fe:	70fb      	strb	r3, [r7, #3]
    uint16_t pos;
    font += offset;
 8001300:	78fb      	ldrb	r3, [r7, #3]
 8001302:	687a      	ldr	r2, [r7, #4]
 8001304:	4413      	add	r3, r2
 8001306:	607b      	str	r3, [r7, #4]
    pos = u8x8_pgm_read( font );
 8001308:	687b      	ldr	r3, [r7, #4]
 800130a:	781b      	ldrb	r3, [r3, #0]
 800130c:	81fb      	strh	r3, [r7, #14]
    font++;
 800130e:	687b      	ldr	r3, [r7, #4]
 8001310:	3301      	adds	r3, #1
 8001312:	607b      	str	r3, [r7, #4]
    pos <<= 8;
 8001314:	89fb      	ldrh	r3, [r7, #14]
 8001316:	021b      	lsls	r3, r3, #8
 8001318:	81fb      	strh	r3, [r7, #14]
    pos += u8x8_pgm_read( font);
 800131a:	687b      	ldr	r3, [r7, #4]
 800131c:	781b      	ldrb	r3, [r3, #0]
 800131e:	461a      	mov	r2, r3
 8001320:	89fb      	ldrh	r3, [r7, #14]
 8001322:	4413      	add	r3, r2
 8001324:	81fb      	strh	r3, [r7, #14]
    return pos;
 8001326:	89fb      	ldrh	r3, [r7, #14]
}
 8001328:	4618      	mov	r0, r3
 800132a:	3714      	adds	r7, #20
 800132c:	46bd      	mov	sp, r7
 800132e:	f85d 7b04 	ldr.w	r7, [sp], #4
 8001332:	4770      	bx	lr

08001334 <u8g2_read_font_info>:

/*========================================================================*/
/* new font format */
void u8g2_read_font_info(u8g2_font_info_t *font_info, const uint8_t *font)
{
 8001334:	b580      	push	{r7, lr}
 8001336:	b082      	sub	sp, #8
 8001338:	af00      	add	r7, sp, #0
 800133a:	6078      	str	r0, [r7, #4]
 800133c:	6039      	str	r1, [r7, #0]
  /* offset 0 */
  font_info->glyph_cnt = u8g2_font_get_byte(font, 0);
 800133e:	2100      	movs	r1, #0
 8001340:	6838      	ldr	r0, [r7, #0]
 8001342:	f7ff ffc5 	bl	80012d0 <u8g2_font_get_byte>
 8001346:	4603      	mov	r3, r0
 8001348:	461a      	mov	r2, r3
 800134a:	687b      	ldr	r3, [r7, #4]
 800134c:	701a      	strb	r2, [r3, #0]
  font_info->bbx_mode = u8g2_font_get_byte(font, 1);
 800134e:	2101      	movs	r1, #1
 8001350:	6838      	ldr	r0, [r7, #0]
 8001352:	f7ff ffbd 	bl	80012d0 <u8g2_font_get_byte>
 8001356:	4603      	mov	r3, r0
 8001358:	461a      	mov	r2, r3
 800135a:	687b      	ldr	r3, [r7, #4]
 800135c:	705a      	strb	r2, [r3, #1]
  font_info->bits_per_0 = u8g2_font_get_byte(font, 2);
 800135e:	2102      	movs	r1, #2
 8001360:	6838      	ldr	r0, [r7, #0]
 8001362:	f7ff ffb5 	bl	80012d0 <u8g2_font_get_byte>
 8001366:	4603      	mov	r3, r0
 8001368:	461a      	mov	r2, r3
 800136a:	687b      	ldr	r3, [r7, #4]
 800136c:	709a      	strb	r2, [r3, #2]
  font_info->bits_per_1 = u8g2_font_get_byte(font, 3);
 800136e:	2103      	movs	r1, #3
 8001370:	6838      	ldr	r0, [r7, #0]
 8001372:	f7ff ffad 	bl	80012d0 <u8g2_font_get_byte>
 8001376:	4603      	mov	r3, r0
 8001378:	461a      	mov	r2, r3
 800137a:	687b      	ldr	r3, [r7, #4]
 800137c:	70da      	strb	r2, [r3, #3]
  
  /* offset 4 */
  font_info->bits_per_char_width = u8g2_font_get_byte(font, 4);
 800137e:	2104      	movs	r1, #4
 8001380:	6838      	ldr	r0, [r7, #0]
 8001382:	f7ff ffa5 	bl	80012d0 <u8g2_font_get_byte>
 8001386:	4603      	mov	r3, r0
 8001388:	461a      	mov	r2, r3
 800138a:	687b      	ldr	r3, [r7, #4]
 800138c:	711a      	strb	r2, [r3, #4]
  font_info->bits_per_char_height = u8g2_font_get_byte(font, 5);
 800138e:	2105      	movs	r1, #5
 8001390:	6838      	ldr	r0, [r7, #0]
 8001392:	f7ff ff9d 	bl	80012d0 <u8g2_font_get_byte>
 8001396:	4603      	mov	r3, r0
 8001398:	461a      	mov	r2, r3
 800139a:	687b      	ldr	r3, [r7, #4]
 800139c:	715a      	strb	r2, [r3, #5]
  font_info->bits_per_char_x = u8g2_font_get_byte(font, 6);
 800139e:	2106      	movs	r1, #6
 80013a0:	6838      	ldr	r0, [r7, #0]
 80013a2:	f7ff ff95 	bl	80012d0 <u8g2_font_get_byte>
 80013a6:	4603      	mov	r3, r0
 80013a8:	461a      	mov	r2, r3
 80013aa:	687b      	ldr	r3, [r7, #4]
 80013ac:	719a      	strb	r2, [r3, #6]
  font_info->bits_per_char_y = u8g2_font_get_byte(font, 7);
 80013ae:	2107      	movs	r1, #7
 80013b0:	6838      	ldr	r0, [r7, #0]
 80013b2:	f7ff ff8d 	bl	80012d0 <u8g2_font_get_byte>
 80013b6:	4603      	mov	r3, r0
 80013b8:	461a      	mov	r2, r3
 80013ba:	687b      	ldr	r3, [r7, #4]
 80013bc:	71da      	strb	r2, [r3, #7]
  font_info->bits_per_delta_x = u8g2_font_get_byte(font, 8);
 80013be:	2108      	movs	r1, #8
 80013c0:	6838      	ldr	r0, [r7, #0]
 80013c2:	f7ff ff85 	bl	80012d0 <u8g2_font_get_byte>
 80013c6:	4603      	mov	r3, r0
 80013c8:	461a      	mov	r2, r3
 80013ca:	687b      	ldr	r3, [r7, #4]
 80013cc:	721a      	strb	r2, [r3, #8]
  
  /* offset 9 */
  font_info->max_char_width = u8g2_font_get_byte(font, 9);
 80013ce:	2109      	movs	r1, #9
 80013d0:	6838      	ldr	r0, [r7, #0]
 80013d2:	f7ff ff7d 	bl	80012d0 <u8g2_font_get_byte>
 80013d6:	4603      	mov	r3, r0
 80013d8:	b25a      	sxtb	r2, r3
 80013da:	687b      	ldr	r3, [r7, #4]
 80013dc:	725a      	strb	r2, [r3, #9]
  font_info->max_char_height = u8g2_font_get_byte(font, 10);
 80013de:	210a      	movs	r1, #10
 80013e0:	6838      	ldr	r0, [r7, #0]
 80013e2:	f7ff ff75 	bl	80012d0 <u8g2_font_get_byte>
 80013e6:	4603      	mov	r3, r0
 80013e8:	b25a      	sxtb	r2, r3
 80013ea:	687b      	ldr	r3, [r7, #4]
 80013ec:	729a      	strb	r2, [r3, #10]
  font_info->x_offset = u8g2_font_get_byte(font, 11);
 80013ee:	210b      	movs	r1, #11
 80013f0:	6838      	ldr	r0, [r7, #0]
 80013f2:	f7ff ff6d 	bl	80012d0 <u8g2_font_get_byte>
 80013f6:	4603      	mov	r3, r0
 80013f8:	b25a      	sxtb	r2, r3
 80013fa:	687b      	ldr	r3, [r7, #4]
 80013fc:	72da      	strb	r2, [r3, #11]
  font_info->y_offset = u8g2_font_get_byte(font, 12);
 80013fe:	210c      	movs	r1, #12
 8001400:	6838      	ldr	r0, [r7, #0]
 8001402:	f7ff ff65 	bl	80012d0 <u8g2_font_get_byte>
 8001406:	4603      	mov	r3, r0
 8001408:	b25a      	sxtb	r2, r3
 800140a:	687b      	ldr	r3, [r7, #4]
 800140c:	731a      	strb	r2, [r3, #12]
  
  /* offset 13 */
  font_info->ascent_A = u8g2_font_get_byte(font, 13);
 800140e:	210d      	movs	r1, #13
 8001410:	6838      	ldr	r0, [r7, #0]
 8001412:	f7ff ff5d 	bl	80012d0 <u8g2_font_get_byte>
 8001416:	4603      	mov	r3, r0
 8001418:	b25a      	sxtb	r2, r3
 800141a:	687b      	ldr	r3, [r7, #4]
 800141c:	735a      	strb	r2, [r3, #13]
  font_info->descent_g = u8g2_font_get_byte(font, 14);
 800141e:	210e      	movs	r1, #14
 8001420:	6838      	ldr	r0, [r7, #0]
 8001422:	f7ff ff55 	bl	80012d0 <u8g2_font_get_byte>
 8001426:	4603      	mov	r3, r0
 8001428:	b25a      	sxtb	r2, r3
 800142a:	687b      	ldr	r3, [r7, #4]
 800142c:	739a      	strb	r2, [r3, #14]
  font_info->ascent_para = u8g2_font_get_byte(font, 15);
 800142e:	210f      	movs	r1, #15
 8001430:	6838      	ldr	r0, [r7, #0]
 8001432:	f7ff ff4d 	bl	80012d0 <u8g2_font_get_byte>
 8001436:	4603      	mov	r3, r0
 8001438:	b25a      	sxtb	r2, r3
 800143a:	687b      	ldr	r3, [r7, #4]
 800143c:	73da      	strb	r2, [r3, #15]
  font_info->descent_para = u8g2_font_get_byte(font, 16);
 800143e:	2110      	movs	r1, #16
 8001440:	6838      	ldr	r0, [r7, #0]
 8001442:	f7ff ff45 	bl	80012d0 <u8g2_font_get_byte>
 8001446:	4603      	mov	r3, r0
 8001448:	b25a      	sxtb	r2, r3
 800144a:	687b      	ldr	r3, [r7, #4]
 800144c:	741a      	strb	r2, [r3, #16]
  
  /* offset 17 */
  font_info->start_pos_upper_A = u8g2_font_get_word(font, 17);
 800144e:	2111      	movs	r1, #17
 8001450:	6838      	ldr	r0, [r7, #0]
 8001452:	f7ff ff4f 	bl	80012f4 <u8g2_font_get_word>
 8001456:	4603      	mov	r3, r0
 8001458:	461a      	mov	r2, r3
 800145a:	687b      	ldr	r3, [r7, #4]
 800145c:	825a      	strh	r2, [r3, #18]
  font_info->start_pos_lower_a = u8g2_font_get_word(font, 19); 
 800145e:	2113      	movs	r1, #19
 8001460:	6838      	ldr	r0, [r7, #0]
 8001462:	f7ff ff47 	bl	80012f4 <u8g2_font_get_word>
 8001466:	4603      	mov	r3, r0
 8001468:	461a      	mov	r2, r3
 800146a:	687b      	ldr	r3, [r7, #4]
 800146c:	829a      	strh	r2, [r3, #20]
  
  /* offset 21 */
#ifdef U8G2_WITH_UNICODE
  font_info->start_pos_unicode = u8g2_font_get_word(font, 21); 
 800146e:	2115      	movs	r1, #21
 8001470:	6838      	ldr	r0, [r7, #0]
 8001472:	f7ff ff3f 	bl	80012f4 <u8g2_font_get_word>
 8001476:	4603      	mov	r3, r0
 8001478:	461a      	mov	r2, r3
 800147a:	687b      	ldr	r3, [r7, #4]
 800147c:	82da      	strh	r2, [r3, #22]
#endif
}
 800147e:	bf00      	nop
 8001480:	3708      	adds	r7, #8
 8001482:	46bd      	mov	sp, r7
 8001484:	bd80      	pop	{r7, pc}

08001486 <u8g2_font_decode_get_unsigned_bits>:
/*========================================================================*/
/* glyph handling */

/* optimized */
uint8_t u8g2_font_decode_get_unsigned_bits(u8g2_font_decode_t *f, uint8_t cnt) 
{
 8001486:	b480      	push	{r7}
 8001488:	b085      	sub	sp, #20
 800148a:	af00      	add	r7, sp, #0
 800148c:	6078      	str	r0, [r7, #4]
 800148e:	460b      	mov	r3, r1
 8001490:	70fb      	strb	r3, [r7, #3]
  uint8_t val;
  uint8_t bit_pos = f->decode_bit_pos;
 8001492:	687b      	ldr	r3, [r7, #4]
 8001494:	7b1b      	ldrb	r3, [r3, #12]
 8001496:	737b      	strb	r3, [r7, #13]
  uint8_t bit_pos_plus_cnt;
  
  //val = *(f->decode_ptr);
  val = u8x8_pgm_read( f->decode_ptr );  
 8001498:	687b      	ldr	r3, [r7, #4]
 800149a:	681b      	ldr	r3, [r3, #0]
 800149c:	781b      	ldrb	r3, [r3, #0]
 800149e:	73fb      	strb	r3, [r7, #15]
  
  val >>= bit_pos;
 80014a0:	7bfa      	ldrb	r2, [r7, #15]
 80014a2:	7b7b      	ldrb	r3, [r7, #13]
 80014a4:	fa42 f303 	asr.w	r3, r2, r3
 80014a8:	73fb      	strb	r3, [r7, #15]
  bit_pos_plus_cnt = bit_pos;
 80014aa:	7b7b      	ldrb	r3, [r7, #13]
 80014ac:	73bb      	strb	r3, [r7, #14]
  bit_pos_plus_cnt += cnt;
 80014ae:	7bba      	ldrb	r2, [r7, #14]
 80014b0:	78fb      	ldrb	r3, [r7, #3]
 80014b2:	4413      	add	r3, r2
 80014b4:	73bb      	strb	r3, [r7, #14]
  if ( bit_pos_plus_cnt >= 8 )
 80014b6:	7bbb      	ldrb	r3, [r7, #14]
 80014b8:	2b07      	cmp	r3, #7
 80014ba:	d91a      	bls.n	80014f2 <u8g2_font_decode_get_unsigned_bits+0x6c>
  {
    uint8_t s = 8;
 80014bc:	2308      	movs	r3, #8
 80014be:	733b      	strb	r3, [r7, #12]
    s -= bit_pos;
 80014c0:	7b3a      	ldrb	r2, [r7, #12]
 80014c2:	7b7b      	ldrb	r3, [r7, #13]
 80014c4:	1ad3      	subs	r3, r2, r3
 80014c6:	733b      	strb	r3, [r7, #12]
    f->decode_ptr++;
 80014c8:	687b      	ldr	r3, [r7, #4]
 80014ca:	681b      	ldr	r3, [r3, #0]
 80014cc:	1c5a      	adds	r2, r3, #1
 80014ce:	687b      	ldr	r3, [r7, #4]
 80014d0:	601a      	str	r2, [r3, #0]
    //val |= *(f->decode_ptr) << (8-bit_pos);
    val |= u8x8_pgm_read( f->decode_ptr ) << (s);
 80014d2:	687b      	ldr	r3, [r7, #4]
 80014d4:	681b      	ldr	r3, [r3, #0]
 80014d6:	781b      	ldrb	r3, [r3, #0]
 80014d8:	461a      	mov	r2, r3
 80014da:	7b3b      	ldrb	r3, [r7, #12]
 80014dc:	fa02 f303 	lsl.w	r3, r2, r3
 80014e0:	b25a      	sxtb	r2, r3
 80014e2:	f997 300f 	ldrsb.w	r3, [r7, #15]
 80014e6:	4313      	orrs	r3, r2
 80014e8:	b25b      	sxtb	r3, r3
 80014ea:	73fb      	strb	r3, [r7, #15]
    //bit_pos -= 8;
    bit_pos_plus_cnt -= 8;
 80014ec:	7bbb      	ldrb	r3, [r7, #14]
 80014ee:	3b08      	subs	r3, #8
 80014f0:	73bb      	strb	r3, [r7, #14]
  }
  val &= (1U<<cnt)-1;
 80014f2:	78fb      	ldrb	r3, [r7, #3]
 80014f4:	f04f 32ff 	mov.w	r2, #4294967295
 80014f8:	fa02 f303 	lsl.w	r3, r2, r3
 80014fc:	b2db      	uxtb	r3, r3
 80014fe:	43db      	mvns	r3, r3
 8001500:	b2da      	uxtb	r2, r3
 8001502:	7bfb      	ldrb	r3, [r7, #15]
 8001504:	4013      	ands	r3, r2
 8001506:	73fb      	strb	r3, [r7, #15]
  //bit_pos += cnt;
  
  f->decode_bit_pos = bit_pos_plus_cnt;
 8001508:	687b      	ldr	r3, [r7, #4]
 800150a:	7bba      	ldrb	r2, [r7, #14]
 800150c:	731a      	strb	r2, [r3, #12]
  return val;
 800150e:	7bfb      	ldrb	r3, [r7, #15]
}
 8001510:	4618      	mov	r0, r3
 8001512:	3714      	adds	r7, #20
 8001514:	46bd      	mov	sp, r7
 8001516:	f85d 7b04 	ldr.w	r7, [sp], #4
 800151a:	4770      	bx	lr

0800151c <u8g2_font_decode_get_signed_bits>:
	r = bits(x)+1;

*/
/* optimized */
int8_t u8g2_font_decode_get_signed_bits(u8g2_font_decode_t *f, uint8_t cnt)
{
 800151c:	b580      	push	{r7, lr}
 800151e:	b084      	sub	sp, #16
 8001520:	af00      	add	r7, sp, #0
 8001522:	6078      	str	r0, [r7, #4]
 8001524:	460b      	mov	r3, r1
 8001526:	70fb      	strb	r3, [r7, #3]
  int8_t v, d;
  v = (int8_t)u8g2_font_decode_get_unsigned_bits(f, cnt);
 8001528:	78fb      	ldrb	r3, [r7, #3]
 800152a:	4619      	mov	r1, r3
 800152c:	6878      	ldr	r0, [r7, #4]
 800152e:	f7ff ffaa 	bl	8001486 <u8g2_font_decode_get_unsigned_bits>
 8001532:	4603      	mov	r3, r0
 8001534:	73fb      	strb	r3, [r7, #15]
  d = 1;
 8001536:	2301      	movs	r3, #1
 8001538:	73bb      	strb	r3, [r7, #14]
  cnt--;
 800153a:	78fb      	ldrb	r3, [r7, #3]
 800153c:	3b01      	subs	r3, #1
 800153e:	70fb      	strb	r3, [r7, #3]
  d <<= cnt;
 8001540:	f997 200e 	ldrsb.w	r2, [r7, #14]
 8001544:	78fb      	ldrb	r3, [r7, #3]
 8001546:	fa02 f303 	lsl.w	r3, r2, r3
 800154a:	73bb      	strb	r3, [r7, #14]
  v -= d;
 800154c:	7bfa      	ldrb	r2, [r7, #15]
 800154e:	7bbb      	ldrb	r3, [r7, #14]
 8001550:	1ad3      	subs	r3, r2, r3
 8001552:	b2db      	uxtb	r3, r3
 8001554:	73fb      	strb	r3, [r7, #15]
  return v;
 8001556:	f997 300f 	ldrsb.w	r3, [r7, #15]
  //return (int8_t)u8g2_font_decode_get_unsigned_bits(f, cnt) - ((1<<cnt)>>1);
}
 800155a:	4618      	mov	r0, r3
 800155c:	3710      	adds	r7, #16
 800155e:	46bd      	mov	sp, r7
 8001560:	bd80      	pop	{r7, pc}

08001562 <u8g2_add_vector_y>:


#ifdef U8G2_WITH_FONT_ROTATION
u8g2_uint_t u8g2_add_vector_y(u8g2_uint_t dy, int8_t x, int8_t y, uint8_t dir)
{
 8001562:	b490      	push	{r4, r7}
 8001564:	b082      	sub	sp, #8
 8001566:	af00      	add	r7, sp, #0
 8001568:	4604      	mov	r4, r0
 800156a:	4608      	mov	r0, r1
 800156c:	4611      	mov	r1, r2
 800156e:	461a      	mov	r2, r3
 8001570:	4623      	mov	r3, r4
 8001572:	80fb      	strh	r3, [r7, #6]
 8001574:	4603      	mov	r3, r0
 8001576:	717b      	strb	r3, [r7, #5]
 8001578:	460b      	mov	r3, r1
 800157a:	713b      	strb	r3, [r7, #4]
 800157c:	4613      	mov	r3, r2
 800157e:	70fb      	strb	r3, [r7, #3]
  switch(dir)
 8001580:	78fb      	ldrb	r3, [r7, #3]
 8001582:	2b02      	cmp	r3, #2
 8001584:	d014      	beq.n	80015b0 <u8g2_add_vector_y+0x4e>
 8001586:	2b02      	cmp	r3, #2
 8001588:	dc19      	bgt.n	80015be <u8g2_add_vector_y+0x5c>
 800158a:	2b00      	cmp	r3, #0
 800158c:	d002      	beq.n	8001594 <u8g2_add_vector_y+0x32>
 800158e:	2b01      	cmp	r3, #1
 8001590:	d007      	beq.n	80015a2 <u8g2_add_vector_y+0x40>
 8001592:	e014      	b.n	80015be <u8g2_add_vector_y+0x5c>
  {
    case 0:
      dy += y;
 8001594:	f997 3004 	ldrsb.w	r3, [r7, #4]
 8001598:	b29a      	uxth	r2, r3
 800159a:	88fb      	ldrh	r3, [r7, #6]
 800159c:	4413      	add	r3, r2
 800159e:	80fb      	strh	r3, [r7, #6]
      break;
 80015a0:	e014      	b.n	80015cc <u8g2_add_vector_y+0x6a>
    case 1:
      dy += x;
 80015a2:	f997 3005 	ldrsb.w	r3, [r7, #5]
 80015a6:	b29a      	uxth	r2, r3
 80015a8:	88fb      	ldrh	r3, [r7, #6]
 80015aa:	4413      	add	r3, r2
 80015ac:	80fb      	strh	r3, [r7, #6]
      break;
 80015ae:	e00d      	b.n	80015cc <u8g2_add_vector_y+0x6a>
    case 2:
      dy -= y;
 80015b0:	f997 3004 	ldrsb.w	r3, [r7, #4]
 80015b4:	b29b      	uxth	r3, r3
 80015b6:	88fa      	ldrh	r2, [r7, #6]
 80015b8:	1ad3      	subs	r3, r2, r3
 80015ba:	80fb      	strh	r3, [r7, #6]
      break;
 80015bc:	e006      	b.n	80015cc <u8g2_add_vector_y+0x6a>
    default:
      dy -= x;
 80015be:	f997 3005 	ldrsb.w	r3, [r7, #5]
 80015c2:	b29b      	uxth	r3, r3
 80015c4:	88fa      	ldrh	r2, [r7, #6]
 80015c6:	1ad3      	subs	r3, r2, r3
 80015c8:	80fb      	strh	r3, [r7, #6]
      break;      
 80015ca:	bf00      	nop
  }
  return dy;
 80015cc:	88fb      	ldrh	r3, [r7, #6]
}
 80015ce:	4618      	mov	r0, r3
 80015d0:	3708      	adds	r7, #8
 80015d2:	46bd      	mov	sp, r7
 80015d4:	bc90      	pop	{r4, r7}
 80015d6:	4770      	bx	lr

080015d8 <u8g2_add_vector_x>:

u8g2_uint_t u8g2_add_vector_x(u8g2_uint_t dx, int8_t x, int8_t y, uint8_t dir)
{
 80015d8:	b490      	push	{r4, r7}
 80015da:	b082      	sub	sp, #8
 80015dc:	af00      	add	r7, sp, #0
 80015de:	4604      	mov	r4, r0
 80015e0:	4608      	mov	r0, r1
 80015e2:	4611      	mov	r1, r2
 80015e4:	461a      	mov	r2, r3
 80015e6:	4623      	mov	r3, r4
 80015e8:	80fb      	strh	r3, [r7, #6]
 80015ea:	4603      	mov	r3, r0
 80015ec:	717b      	strb	r3, [r7, #5]
 80015ee:	460b      	mov	r3, r1
 80015f0:	713b      	strb	r3, [r7, #4]
 80015f2:	4613      	mov	r3, r2
 80015f4:	70fb      	strb	r3, [r7, #3]
  switch(dir)
 80015f6:	78fb      	ldrb	r3, [r7, #3]
 80015f8:	2b02      	cmp	r3, #2
 80015fa:	d014      	beq.n	8001626 <u8g2_add_vector_x+0x4e>
 80015fc:	2b02      	cmp	r3, #2
 80015fe:	dc19      	bgt.n	8001634 <u8g2_add_vector_x+0x5c>
 8001600:	2b00      	cmp	r3, #0
 8001602:	d002      	beq.n	800160a <u8g2_add_vector_x+0x32>
 8001604:	2b01      	cmp	r3, #1
 8001606:	d007      	beq.n	8001618 <u8g2_add_vector_x+0x40>
 8001608:	e014      	b.n	8001634 <u8g2_add_vector_x+0x5c>
  {
    case 0:
      dx += x;
 800160a:	f997 3005 	ldrsb.w	r3, [r7, #5]
 800160e:	b29a      	uxth	r2, r3
 8001610:	88fb      	ldrh	r3, [r7, #6]
 8001612:	4413      	add	r3, r2
 8001614:	80fb      	strh	r3, [r7, #6]
      break;
 8001616:	e014      	b.n	8001642 <u8g2_add_vector_x+0x6a>
    case 1:
      dx -= y;
 8001618:	f997 3004 	ldrsb.w	r3, [r7, #4]
 800161c:	b29b      	uxth	r3, r3
 800161e:	88fa      	ldrh	r2, [r7, #6]
 8001620:	1ad3      	subs	r3, r2, r3
 8001622:	80fb      	strh	r3, [r7, #6]
      break;
 8001624:	e00d      	b.n	8001642 <u8g2_add_vector_x+0x6a>
    case 2:
      dx -= x;
 8001626:	f997 3005 	ldrsb.w	r3, [r7, #5]
 800162a:	b29b      	uxth	r3, r3
 800162c:	88fa      	ldrh	r2, [r7, #6]
 800162e:	1ad3      	subs	r3, r2, r3
 8001630:	80fb      	strh	r3, [r7, #6]
      break;
 8001632:	e006      	b.n	8001642 <u8g2_add_vector_x+0x6a>
    default:
      dx += y;
 8001634:	f997 3004 	ldrsb.w	r3, [r7, #4]
 8001638:	b29a      	uxth	r2, r3
 800163a:	88fb      	ldrh	r3, [r7, #6]
 800163c:	4413      	add	r3, r2
 800163e:	80fb      	strh	r3, [r7, #6]
      break;      
 8001640:	bf00      	nop
  }
  return dx;
 8001642:	88fb      	ldrh	r3, [r7, #6]
}
 8001644:	4618      	mov	r0, r3
 8001646:	3708      	adds	r7, #8
 8001648:	46bd      	mov	sp, r7
 800164a:	bc90      	pop	{r4, r7}
 800164c:	4770      	bx	lr

0800164e <u8g2_font_decode_len>:
  Called by:
    u8g2_font_decode_glyph()
*/
/* optimized */
void u8g2_font_decode_len(u8g2_t *u8g2, uint8_t len, uint8_t is_foreground)
{
 800164e:	b580      	push	{r7, lr}
 8001650:	b088      	sub	sp, #32
 8001652:	af02      	add	r7, sp, #8
 8001654:	6078      	str	r0, [r7, #4]
 8001656:	460b      	mov	r3, r1
 8001658:	70fb      	strb	r3, [r7, #3]
 800165a:	4613      	mov	r3, r2
 800165c:	70bb      	strb	r3, [r7, #2]
  uint8_t lx,ly;
  
  /* target position on the screen */
  u8g2_uint_t x, y;
  
  u8g2_font_decode_t *decode = &(u8g2->font_decode);
 800165e:	687b      	ldr	r3, [r7, #4]
 8001660:	3360      	adds	r3, #96	@ 0x60
 8001662:	613b      	str	r3, [r7, #16]
  
  cnt = len;
 8001664:	78fb      	ldrb	r3, [r7, #3]
 8001666:	75fb      	strb	r3, [r7, #23]
  
  /* get the local position */
  lx = decode->x;
 8001668:	693b      	ldr	r3, [r7, #16]
 800166a:	f993 3008 	ldrsb.w	r3, [r3, #8]
 800166e:	757b      	strb	r3, [r7, #21]
  ly = decode->y;
 8001670:	693b      	ldr	r3, [r7, #16]
 8001672:	f993 3009 	ldrsb.w	r3, [r3, #9]
 8001676:	753b      	strb	r3, [r7, #20]
  
  for(;;)
  {
    /* calculate the number of pixel to the right edge of the glyph */
    rem = decode->glyph_width;
 8001678:	693b      	ldr	r3, [r7, #16]
 800167a:	f993 300a 	ldrsb.w	r3, [r3, #10]
 800167e:	73fb      	strb	r3, [r7, #15]
    rem -= lx;
 8001680:	7bfa      	ldrb	r2, [r7, #15]
 8001682:	7d7b      	ldrb	r3, [r7, #21]
 8001684:	1ad3      	subs	r3, r2, r3
 8001686:	73fb      	strb	r3, [r7, #15]
    
    /* calculate how many pixel to draw. This is either to the right edge */
    /* or lesser, if not enough pixel are left */
    current = rem;
 8001688:	7bfb      	ldrb	r3, [r7, #15]
 800168a:	75bb      	strb	r3, [r7, #22]
    if ( cnt < rem )
 800168c:	7dfa      	ldrb	r2, [r7, #23]
 800168e:	7bfb      	ldrb	r3, [r7, #15]
 8001690:	429a      	cmp	r2, r3
 8001692:	d201      	bcs.n	8001698 <u8g2_font_decode_len+0x4a>
      current = cnt;
 8001694:	7dfb      	ldrb	r3, [r7, #23]
 8001696:	75bb      	strb	r3, [r7, #22]
    
    /* now draw the line, but apply the rotation around the glyph target position */
    //u8g2_font_decode_draw_pixel(u8g2, lx,ly,current, is_foreground);

    /* get target position */
    x = decode->target_x;
 8001698:	693b      	ldr	r3, [r7, #16]
 800169a:	889b      	ldrh	r3, [r3, #4]
 800169c:	81bb      	strh	r3, [r7, #12]
    y = decode->target_y;
 800169e:	693b      	ldr	r3, [r7, #16]
 80016a0:	88db      	ldrh	r3, [r3, #6]
 80016a2:	817b      	strh	r3, [r7, #10]

    /* apply rotation */
#ifdef U8G2_WITH_FONT_ROTATION
    
    x = u8g2_add_vector_x(x, lx, ly, decode->dir);
 80016a4:	f997 1015 	ldrsb.w	r1, [r7, #21]
 80016a8:	f997 2014 	ldrsb.w	r2, [r7, #20]
 80016ac:	693b      	ldr	r3, [r7, #16]
 80016ae:	7c1b      	ldrb	r3, [r3, #16]
 80016b0:	89b8      	ldrh	r0, [r7, #12]
 80016b2:	f7ff ff91 	bl	80015d8 <u8g2_add_vector_x>
 80016b6:	4603      	mov	r3, r0
 80016b8:	81bb      	strh	r3, [r7, #12]
    y = u8g2_add_vector_y(y, lx, ly, decode->dir);
 80016ba:	f997 1015 	ldrsb.w	r1, [r7, #21]
 80016be:	f997 2014 	ldrsb.w	r2, [r7, #20]
 80016c2:	693b      	ldr	r3, [r7, #16]
 80016c4:	7c1b      	ldrb	r3, [r3, #16]
 80016c6:	8978      	ldrh	r0, [r7, #10]
 80016c8:	f7ff ff4b 	bl	8001562 <u8g2_add_vector_y>
 80016cc:	4603      	mov	r3, r0
 80016ce:	817b      	strh	r3, [r7, #10]
    x += lx;
    y += ly;
#endif
    
    /* draw foreground and background (if required) */
    if ( is_foreground )
 80016d0:	78bb      	ldrb	r3, [r7, #2]
 80016d2:	2b00      	cmp	r3, #0
 80016d4:	d010      	beq.n	80016f8 <u8g2_font_decode_len+0xaa>
    {
      u8g2->draw_color = decode->fg_color;			/* draw_color will be restored later */
 80016d6:	693b      	ldr	r3, [r7, #16]
 80016d8:	7b9a      	ldrb	r2, [r3, #14]
 80016da:	687b      	ldr	r3, [r7, #4]
 80016dc:	f883 2092 	strb.w	r2, [r3, #146]	@ 0x92
      u8g2_DrawHVLine(u8g2, 
 80016e0:	7dbb      	ldrb	r3, [r7, #22]
 80016e2:	b298      	uxth	r0, r3
 80016e4:	693b      	ldr	r3, [r7, #16]
 80016e6:	7c1b      	ldrb	r3, [r3, #16]
 80016e8:	897a      	ldrh	r2, [r7, #10]
 80016ea:	89b9      	ldrh	r1, [r7, #12]
 80016ec:	9300      	str	r3, [sp, #0]
 80016ee:	4603      	mov	r3, r0
 80016f0:	6878      	ldr	r0, [r7, #4]
 80016f2:	f000 fbfe 	bl	8001ef2 <u8g2_DrawHVLine>
 80016f6:	e013      	b.n	8001720 <u8g2_font_decode_len+0xd2>
#else
	0
#endif
      );
    }
    else if ( decode->is_transparent == 0 )    
 80016f8:	693b      	ldr	r3, [r7, #16]
 80016fa:	7b5b      	ldrb	r3, [r3, #13]
 80016fc:	2b00      	cmp	r3, #0
 80016fe:	d10f      	bne.n	8001720 <u8g2_font_decode_len+0xd2>
    {
      u8g2->draw_color = decode->bg_color;			/* draw_color will be restored later */
 8001700:	693b      	ldr	r3, [r7, #16]
 8001702:	7bda      	ldrb	r2, [r3, #15]
 8001704:	687b      	ldr	r3, [r7, #4]
 8001706:	f883 2092 	strb.w	r2, [r3, #146]	@ 0x92
      u8g2_DrawHVLine(u8g2, 
 800170a:	7dbb      	ldrb	r3, [r7, #22]
 800170c:	b298      	uxth	r0, r3
 800170e:	693b      	ldr	r3, [r7, #16]
 8001710:	7c1b      	ldrb	r3, [r3, #16]
 8001712:	897a      	ldrh	r2, [r7, #10]
 8001714:	89b9      	ldrh	r1, [r7, #12]
 8001716:	9300      	str	r3, [sp, #0]
 8001718:	4603      	mov	r3, r0
 800171a:	6878      	ldr	r0, [r7, #4]
 800171c:	f000 fbe9 	bl	8001ef2 <u8g2_DrawHVLine>
#endif
      );   
    }
    
    /* check, whether the end of the run length code has been reached */
    if ( cnt < rem )
 8001720:	7dfa      	ldrb	r2, [r7, #23]
 8001722:	7bfb      	ldrb	r3, [r7, #15]
 8001724:	429a      	cmp	r2, r3
 8001726:	d309      	bcc.n	800173c <u8g2_font_decode_len+0xee>
      break;
    cnt -= rem;
 8001728:	7dfa      	ldrb	r2, [r7, #23]
 800172a:	7bfb      	ldrb	r3, [r7, #15]
 800172c:	1ad3      	subs	r3, r2, r3
 800172e:	75fb      	strb	r3, [r7, #23]
    lx = 0;
 8001730:	2300      	movs	r3, #0
 8001732:	757b      	strb	r3, [r7, #21]
    ly++;
 8001734:	7d3b      	ldrb	r3, [r7, #20]
 8001736:	3301      	adds	r3, #1
 8001738:	753b      	strb	r3, [r7, #20]
    rem = decode->glyph_width;
 800173a:	e79d      	b.n	8001678 <u8g2_font_decode_len+0x2a>
      break;
 800173c:	bf00      	nop
  }
  lx += cnt;
 800173e:	7d7a      	ldrb	r2, [r7, #21]
 8001740:	7dfb      	ldrb	r3, [r7, #23]
 8001742:	4413      	add	r3, r2
 8001744:	757b      	strb	r3, [r7, #21]
  
  decode->x = lx;
 8001746:	f997 2015 	ldrsb.w	r2, [r7, #21]
 800174a:	693b      	ldr	r3, [r7, #16]
 800174c:	721a      	strb	r2, [r3, #8]
  decode->y = ly;  
 800174e:	f997 2014 	ldrsb.w	r2, [r7, #20]
 8001752:	693b      	ldr	r3, [r7, #16]
 8001754:	725a      	strb	r2, [r3, #9]
}
 8001756:	bf00      	nop
 8001758:	3718      	adds	r7, #24
 800175a:	46bd      	mov	sp, r7
 800175c:	bd80      	pop	{r7, pc}

0800175e <u8g2_font_setup_decode>:
  
}


static void u8g2_font_setup_decode(u8g2_t *u8g2, const uint8_t *glyph_data)
{
 800175e:	b580      	push	{r7, lr}
 8001760:	b084      	sub	sp, #16
 8001762:	af00      	add	r7, sp, #0
 8001764:	6078      	str	r0, [r7, #4]
 8001766:	6039      	str	r1, [r7, #0]
  u8g2_font_decode_t *decode = &(u8g2->font_decode);
 8001768:	687b      	ldr	r3, [r7, #4]
 800176a:	3360      	adds	r3, #96	@ 0x60
 800176c:	60fb      	str	r3, [r7, #12]
  decode->decode_ptr = glyph_data;
 800176e:	68fb      	ldr	r3, [r7, #12]
 8001770:	683a      	ldr	r2, [r7, #0]
 8001772:	601a      	str	r2, [r3, #0]
  decode->decode_bit_pos = 0;
 8001774:	68fb      	ldr	r3, [r7, #12]
 8001776:	2200      	movs	r2, #0
 8001778:	731a      	strb	r2, [r3, #12]
  /*
  decode->decode_ptr += 1;
  decode->decode_ptr += 1;
  */
  
  decode->glyph_width = u8g2_font_decode_get_unsigned_bits(decode, u8g2->font_info.bits_per_char_width);
 800177a:	687b      	ldr	r3, [r7, #4]
 800177c:	f893 3078 	ldrb.w	r3, [r3, #120]	@ 0x78
 8001780:	4619      	mov	r1, r3
 8001782:	68f8      	ldr	r0, [r7, #12]
 8001784:	f7ff fe7f 	bl	8001486 <u8g2_font_decode_get_unsigned_bits>
 8001788:	4603      	mov	r3, r0
 800178a:	b25a      	sxtb	r2, r3
 800178c:	68fb      	ldr	r3, [r7, #12]
 800178e:	729a      	strb	r2, [r3, #10]
  decode->glyph_height = u8g2_font_decode_get_unsigned_bits(decode,u8g2->font_info.bits_per_char_height);
 8001790:	687b      	ldr	r3, [r7, #4]
 8001792:	f893 3079 	ldrb.w	r3, [r3, #121]	@ 0x79
 8001796:	4619      	mov	r1, r3
 8001798:	68f8      	ldr	r0, [r7, #12]
 800179a:	f7ff fe74 	bl	8001486 <u8g2_font_decode_get_unsigned_bits>
 800179e:	4603      	mov	r3, r0
 80017a0:	b25a      	sxtb	r2, r3
 80017a2:	68fb      	ldr	r3, [r7, #12]
 80017a4:	72da      	strb	r2, [r3, #11]
  
  decode->fg_color = u8g2->draw_color;
 80017a6:	687b      	ldr	r3, [r7, #4]
 80017a8:	f893 2092 	ldrb.w	r2, [r3, #146]	@ 0x92
 80017ac:	68fb      	ldr	r3, [r7, #12]
 80017ae:	739a      	strb	r2, [r3, #14]
  decode->bg_color = (decode->fg_color == 0 ? 1 : 0);
 80017b0:	68fb      	ldr	r3, [r7, #12]
 80017b2:	7b9b      	ldrb	r3, [r3, #14]
 80017b4:	2b00      	cmp	r3, #0
 80017b6:	bf0c      	ite	eq
 80017b8:	2301      	moveq	r3, #1
 80017ba:	2300      	movne	r3, #0
 80017bc:	b2db      	uxtb	r3, r3
 80017be:	461a      	mov	r2, r3
 80017c0:	68fb      	ldr	r3, [r7, #12]
 80017c2:	73da      	strb	r2, [r3, #15]
}
 80017c4:	bf00      	nop
 80017c6:	3710      	adds	r7, #16
 80017c8:	46bd      	mov	sp, r7
 80017ca:	bd80      	pop	{r7, pc}

080017cc <u8g2_font_decode_glyph>:
  Calls:
    u8g2_font_decode_len()
*/
/* optimized */
int8_t u8g2_font_decode_glyph(u8g2_t *u8g2, const uint8_t *glyph_data)
{
 80017cc:	b580      	push	{r7, lr}
 80017ce:	b08a      	sub	sp, #40	@ 0x28
 80017d0:	af02      	add	r7, sp, #8
 80017d2:	6078      	str	r0, [r7, #4]
 80017d4:	6039      	str	r1, [r7, #0]
  uint8_t a, b;
  int8_t x, y;
  int8_t d;
  int8_t h;
  u8g2_font_decode_t *decode = &(u8g2->font_decode);
 80017d6:	687b      	ldr	r3, [r7, #4]
 80017d8:	3360      	adds	r3, #96	@ 0x60
 80017da:	617b      	str	r3, [r7, #20]
    
  u8g2_font_setup_decode(u8g2, glyph_data);     /* set values in u8g2->font_decode data structure */
 80017dc:	6839      	ldr	r1, [r7, #0]
 80017de:	6878      	ldr	r0, [r7, #4]
 80017e0:	f7ff ffbd 	bl	800175e <u8g2_font_setup_decode>
  h = u8g2->font_decode.glyph_height;
 80017e4:	687b      	ldr	r3, [r7, #4]
 80017e6:	f893 306b 	ldrb.w	r3, [r3, #107]	@ 0x6b
 80017ea:	74fb      	strb	r3, [r7, #19]
  
  x = u8g2_font_decode_get_signed_bits(decode, u8g2->font_info.bits_per_char_x);
 80017ec:	687b      	ldr	r3, [r7, #4]
 80017ee:	f893 307a 	ldrb.w	r3, [r3, #122]	@ 0x7a
 80017f2:	4619      	mov	r1, r3
 80017f4:	6978      	ldr	r0, [r7, #20]
 80017f6:	f7ff fe91 	bl	800151c <u8g2_font_decode_get_signed_bits>
 80017fa:	4603      	mov	r3, r0
 80017fc:	74bb      	strb	r3, [r7, #18]
  y = u8g2_font_decode_get_signed_bits(decode, u8g2->font_info.bits_per_char_y);
 80017fe:	687b      	ldr	r3, [r7, #4]
 8001800:	f893 307b 	ldrb.w	r3, [r3, #123]	@ 0x7b
 8001804:	4619      	mov	r1, r3
 8001806:	6978      	ldr	r0, [r7, #20]
 8001808:	f7ff fe88 	bl	800151c <u8g2_font_decode_get_signed_bits>
 800180c:	4603      	mov	r3, r0
 800180e:	747b      	strb	r3, [r7, #17]
  d = u8g2_font_decode_get_signed_bits(decode, u8g2->font_info.bits_per_delta_x);
 8001810:	687b      	ldr	r3, [r7, #4]
 8001812:	f893 307c 	ldrb.w	r3, [r3, #124]	@ 0x7c
 8001816:	4619      	mov	r1, r3
 8001818:	6978      	ldr	r0, [r7, #20]
 800181a:	f7ff fe7f 	bl	800151c <u8g2_font_decode_get_signed_bits>
 800181e:	4603      	mov	r3, r0
 8001820:	743b      	strb	r3, [r7, #16]
  
  if ( decode->glyph_width > 0 )
 8001822:	697b      	ldr	r3, [r7, #20]
 8001824:	f993 300a 	ldrsb.w	r3, [r3, #10]
 8001828:	2b00      	cmp	r3, #0
 800182a:	f340 80d7 	ble.w	80019dc <u8g2_font_decode_glyph+0x210>
  {
#ifdef U8G2_WITH_FONT_ROTATION
    decode->target_x = u8g2_add_vector_x(decode->target_x, x, -(h+y), decode->dir);
 800182e:	697b      	ldr	r3, [r7, #20]
 8001830:	8898      	ldrh	r0, [r3, #4]
 8001832:	7cfa      	ldrb	r2, [r7, #19]
 8001834:	7c7b      	ldrb	r3, [r7, #17]
 8001836:	4413      	add	r3, r2
 8001838:	b2db      	uxtb	r3, r3
 800183a:	425b      	negs	r3, r3
 800183c:	b2db      	uxtb	r3, r3
 800183e:	b25a      	sxtb	r2, r3
 8001840:	697b      	ldr	r3, [r7, #20]
 8001842:	7c1b      	ldrb	r3, [r3, #16]
 8001844:	f997 1012 	ldrsb.w	r1, [r7, #18]
 8001848:	f7ff fec6 	bl	80015d8 <u8g2_add_vector_x>
 800184c:	4603      	mov	r3, r0
 800184e:	461a      	mov	r2, r3
 8001850:	697b      	ldr	r3, [r7, #20]
 8001852:	809a      	strh	r2, [r3, #4]
    decode->target_y = u8g2_add_vector_y(decode->target_y, x, -(h+y), decode->dir);
 8001854:	697b      	ldr	r3, [r7, #20]
 8001856:	88d8      	ldrh	r0, [r3, #6]
 8001858:	7cfa      	ldrb	r2, [r7, #19]
 800185a:	7c7b      	ldrb	r3, [r7, #17]
 800185c:	4413      	add	r3, r2
 800185e:	b2db      	uxtb	r3, r3
 8001860:	425b      	negs	r3, r3
 8001862:	b2db      	uxtb	r3, r3
 8001864:	b25a      	sxtb	r2, r3
 8001866:	697b      	ldr	r3, [r7, #20]
 8001868:	7c1b      	ldrb	r3, [r3, #16]
 800186a:	f997 1012 	ldrsb.w	r1, [r7, #18]
 800186e:	f7ff fe78 	bl	8001562 <u8g2_add_vector_y>
 8001872:	4603      	mov	r3, r0
 8001874:	461a      	mov	r2, r3
 8001876:	697b      	ldr	r3, [r7, #20]
 8001878:	80da      	strh	r2, [r3, #6]
    //u8g2_add_vector(&(decode->target_x), &(decode->target_y), x, -(h+y), decode->dir);

#ifdef U8G2_WITH_INTERSECTION
    {
      u8g2_uint_t x0, x1, y0, y1;
      x0 = decode->target_x;
 800187a:	697b      	ldr	r3, [r7, #20]
 800187c:	889b      	ldrh	r3, [r3, #4]
 800187e:	83fb      	strh	r3, [r7, #30]
      y0 = decode->target_y;
 8001880:	697b      	ldr	r3, [r7, #20]
 8001882:	88db      	ldrh	r3, [r3, #6]
 8001884:	837b      	strh	r3, [r7, #26]
      x1 = x0;
 8001886:	8bfb      	ldrh	r3, [r7, #30]
 8001888:	83bb      	strh	r3, [r7, #28]
      y1 = y0;
 800188a:	8b7b      	ldrh	r3, [r7, #26]
 800188c:	833b      	strh	r3, [r7, #24]
      
#ifdef U8G2_WITH_FONT_ROTATION
      switch(decode->dir)
 800188e:	697b      	ldr	r3, [r7, #20]
 8001890:	7c1b      	ldrb	r3, [r3, #16]
 8001892:	2b03      	cmp	r3, #3
 8001894:	d85a      	bhi.n	800194c <u8g2_font_decode_glyph+0x180>
 8001896:	a201      	add	r2, pc, #4	@ (adr r2, 800189c <u8g2_font_decode_glyph+0xd0>)
 8001898:	f852 f023 	ldr.w	pc, [r2, r3, lsl #2]
 800189c:	080018ad 	.word	0x080018ad
 80018a0:	080018c9 	.word	0x080018c9
 80018a4:	080018f1 	.word	0x080018f1
 80018a8:	08001925 	.word	0x08001925
      {
	case 0:
	    x1 += decode->glyph_width;
 80018ac:	697b      	ldr	r3, [r7, #20]
 80018ae:	f993 300a 	ldrsb.w	r3, [r3, #10]
 80018b2:	b29a      	uxth	r2, r3
 80018b4:	8bbb      	ldrh	r3, [r7, #28]
 80018b6:	4413      	add	r3, r2
 80018b8:	83bb      	strh	r3, [r7, #28]
	    y1 += h;
 80018ba:	f997 3013 	ldrsb.w	r3, [r7, #19]
 80018be:	b29a      	uxth	r2, r3
 80018c0:	8b3b      	ldrh	r3, [r7, #24]
 80018c2:	4413      	add	r3, r2
 80018c4:	833b      	strh	r3, [r7, #24]
	    break;
 80018c6:	e041      	b.n	800194c <u8g2_font_decode_glyph+0x180>
	case 1:
	    x0 -= h;
 80018c8:	f997 3013 	ldrsb.w	r3, [r7, #19]
 80018cc:	b29b      	uxth	r3, r3
 80018ce:	8bfa      	ldrh	r2, [r7, #30]
 80018d0:	1ad3      	subs	r3, r2, r3
 80018d2:	83fb      	strh	r3, [r7, #30]
	    x0++;	/* shift down, because of assymetric boundaries for the interseciton test */
 80018d4:	8bfb      	ldrh	r3, [r7, #30]
 80018d6:	3301      	adds	r3, #1
 80018d8:	83fb      	strh	r3, [r7, #30]
	    x1++;
 80018da:	8bbb      	ldrh	r3, [r7, #28]
 80018dc:	3301      	adds	r3, #1
 80018de:	83bb      	strh	r3, [r7, #28]
	    y1 += decode->glyph_width;
 80018e0:	697b      	ldr	r3, [r7, #20]
 80018e2:	f993 300a 	ldrsb.w	r3, [r3, #10]
 80018e6:	b29a      	uxth	r2, r3
 80018e8:	8b3b      	ldrh	r3, [r7, #24]
 80018ea:	4413      	add	r3, r2
 80018ec:	833b      	strh	r3, [r7, #24]
	    break;
 80018ee:	e02d      	b.n	800194c <u8g2_font_decode_glyph+0x180>
	case 2:
	    x0 -= decode->glyph_width;
 80018f0:	697b      	ldr	r3, [r7, #20]
 80018f2:	f993 300a 	ldrsb.w	r3, [r3, #10]
 80018f6:	b29b      	uxth	r3, r3
 80018f8:	8bfa      	ldrh	r2, [r7, #30]
 80018fa:	1ad3      	subs	r3, r2, r3
 80018fc:	83fb      	strh	r3, [r7, #30]
	    x0++;	/* shift down, because of assymetric boundaries for the interseciton test */
 80018fe:	8bfb      	ldrh	r3, [r7, #30]
 8001900:	3301      	adds	r3, #1
 8001902:	83fb      	strh	r3, [r7, #30]
	    x1++;
 8001904:	8bbb      	ldrh	r3, [r7, #28]
 8001906:	3301      	adds	r3, #1
 8001908:	83bb      	strh	r3, [r7, #28]
	    y0 -= h;
 800190a:	f997 3013 	ldrsb.w	r3, [r7, #19]
 800190e:	b29b      	uxth	r3, r3
 8001910:	8b7a      	ldrh	r2, [r7, #26]
 8001912:	1ad3      	subs	r3, r2, r3
 8001914:	837b      	strh	r3, [r7, #26]
	    y0++;	/* shift down, because of assymetric boundaries for the interseciton test */
 8001916:	8b7b      	ldrh	r3, [r7, #26]
 8001918:	3301      	adds	r3, #1
 800191a:	837b      	strh	r3, [r7, #26]
	    y1++;
 800191c:	8b3b      	ldrh	r3, [r7, #24]
 800191e:	3301      	adds	r3, #1
 8001920:	833b      	strh	r3, [r7, #24]
	    break;	  
 8001922:	e013      	b.n	800194c <u8g2_font_decode_glyph+0x180>
	case 3:
	    x1 += h;
 8001924:	f997 3013 	ldrsb.w	r3, [r7, #19]
 8001928:	b29a      	uxth	r2, r3
 800192a:	8bbb      	ldrh	r3, [r7, #28]
 800192c:	4413      	add	r3, r2
 800192e:	83bb      	strh	r3, [r7, #28]
	    y0 -= decode->glyph_width;
 8001930:	697b      	ldr	r3, [r7, #20]
 8001932:	f993 300a 	ldrsb.w	r3, [r3, #10]
 8001936:	b29b      	uxth	r3, r3
 8001938:	8b7a      	ldrh	r2, [r7, #26]
 800193a:	1ad3      	subs	r3, r2, r3
 800193c:	837b      	strh	r3, [r7, #26]
	    y0++;	/* shift down, because of assymetric boundaries for the interseciton test */
 800193e:	8b7b      	ldrh	r3, [r7, #26]
 8001940:	3301      	adds	r3, #1
 8001942:	837b      	strh	r3, [r7, #26]
	    y1++;
 8001944:	8b3b      	ldrh	r3, [r7, #24]
 8001946:	3301      	adds	r3, #1
 8001948:	833b      	strh	r3, [r7, #24]
	    break;	  
 800194a:	bf00      	nop
#else /* U8G2_WITH_FONT_ROTATION */
      x1 += decode->glyph_width;
      y1 += h;      
#endif
      
      if ( u8g2_IsIntersection(u8g2, x0, y0, x1, y1) == 0 ) 
 800194c:	8bb8      	ldrh	r0, [r7, #28]
 800194e:	8b7a      	ldrh	r2, [r7, #26]
 8001950:	8bf9      	ldrh	r1, [r7, #30]
 8001952:	8b3b      	ldrh	r3, [r7, #24]
 8001954:	9300      	str	r3, [sp, #0]
 8001956:	4603      	mov	r3, r0
 8001958:	6878      	ldr	r0, [r7, #4]
 800195a:	f000 fb88 	bl	800206e <u8g2_IsIntersection>
 800195e:	4603      	mov	r3, r0
 8001960:	2b00      	cmp	r3, #0
 8001962:	d102      	bne.n	800196a <u8g2_font_decode_glyph+0x19e>
	return d;
 8001964:	f997 3010 	ldrsb.w	r3, [r7, #16]
 8001968:	e03a      	b.n	80019e0 <u8g2_font_decode_glyph+0x214>
    }
#endif /* U8G2_WITH_INTERSECTION */
   
    /* reset local x/y position */
    decode->x = 0;
 800196a:	697b      	ldr	r3, [r7, #20]
 800196c:	2200      	movs	r2, #0
 800196e:	721a      	strb	r2, [r3, #8]
    decode->y = 0;
 8001970:	697b      	ldr	r3, [r7, #20]
 8001972:	2200      	movs	r2, #0
 8001974:	725a      	strb	r2, [r3, #9]
    
    /* decode glyph */
    for(;;)
    {
      a = u8g2_font_decode_get_unsigned_bits(decode, u8g2->font_info.bits_per_0);
 8001976:	687b      	ldr	r3, [r7, #4]
 8001978:	f893 3076 	ldrb.w	r3, [r3, #118]	@ 0x76
 800197c:	4619      	mov	r1, r3
 800197e:	6978      	ldr	r0, [r7, #20]
 8001980:	f7ff fd81 	bl	8001486 <u8g2_font_decode_get_unsigned_bits>
 8001984:	4603      	mov	r3, r0
 8001986:	73fb      	strb	r3, [r7, #15]
      b = u8g2_font_decode_get_unsigned_bits(decode, u8g2->font_info.bits_per_1);
 8001988:	687b      	ldr	r3, [r7, #4]
 800198a:	f893 3077 	ldrb.w	r3, [r3, #119]	@ 0x77
 800198e:	4619      	mov	r1, r3
 8001990:	6978      	ldr	r0, [r7, #20]
 8001992:	f7ff fd78 	bl	8001486 <u8g2_font_decode_get_unsigned_bits>
 8001996:	4603      	mov	r3, r0
 8001998:	73bb      	strb	r3, [r7, #14]
      do
      {
	u8g2_font_decode_len(u8g2, a, 0);
 800199a:	7bfb      	ldrb	r3, [r7, #15]
 800199c:	2200      	movs	r2, #0
 800199e:	4619      	mov	r1, r3
 80019a0:	6878      	ldr	r0, [r7, #4]
 80019a2:	f7ff fe54 	bl	800164e <u8g2_font_decode_len>
	u8g2_font_decode_len(u8g2, b, 1);
 80019a6:	7bbb      	ldrb	r3, [r7, #14]
 80019a8:	2201      	movs	r2, #1
 80019aa:	4619      	mov	r1, r3
 80019ac:	6878      	ldr	r0, [r7, #4]
 80019ae:	f7ff fe4e 	bl	800164e <u8g2_font_decode_len>
      } while( u8g2_font_decode_get_unsigned_bits(decode, 1) != 0 );
 80019b2:	2101      	movs	r1, #1
 80019b4:	6978      	ldr	r0, [r7, #20]
 80019b6:	f7ff fd66 	bl	8001486 <u8g2_font_decode_get_unsigned_bits>
 80019ba:	4603      	mov	r3, r0
 80019bc:	2b00      	cmp	r3, #0
 80019be:	d1ec      	bne.n	800199a <u8g2_font_decode_glyph+0x1ce>

      if ( decode->y >= h )
 80019c0:	697b      	ldr	r3, [r7, #20]
 80019c2:	f993 3009 	ldrsb.w	r3, [r3, #9]
 80019c6:	f997 2013 	ldrsb.w	r2, [r7, #19]
 80019ca:	429a      	cmp	r2, r3
 80019cc:	dd00      	ble.n	80019d0 <u8g2_font_decode_glyph+0x204>
      a = u8g2_font_decode_get_unsigned_bits(decode, u8g2->font_info.bits_per_0);
 80019ce:	e7d2      	b.n	8001976 <u8g2_font_decode_glyph+0x1aa>
	break;
 80019d0:	bf00      	nop
    }
    
    /* restore the u8g2 draw color, because this is modified by the decode algo */
    u8g2->draw_color = decode->fg_color;
 80019d2:	697b      	ldr	r3, [r7, #20]
 80019d4:	7b9a      	ldrb	r2, [r3, #14]
 80019d6:	687b      	ldr	r3, [r7, #4]
 80019d8:	f883 2092 	strb.w	r2, [r3, #146]	@ 0x92
  }
  return d;
 80019dc:	f997 3010 	ldrsb.w	r3, [r7, #16]
}
 80019e0:	4618      	mov	r0, r3
 80019e2:	3720      	adds	r7, #32
 80019e4:	46bd      	mov	sp, r7
 80019e6:	bd80      	pop	{r7, pc}

080019e8 <u8g2_font_get_glyph_data>:
    encoding: Encoding (ASCII or Unicode) of the glyph
  Return:
    Address of the glyph data or NULL, if the encoding is not avialable in the font.
*/
const uint8_t *u8g2_font_get_glyph_data(u8g2_t *u8g2, uint16_t encoding)
{
 80019e8:	b580      	push	{r7, lr}
 80019ea:	b086      	sub	sp, #24
 80019ec:	af00      	add	r7, sp, #0
 80019ee:	6078      	str	r0, [r7, #4]
 80019f0:	460b      	mov	r3, r1
 80019f2:	807b      	strh	r3, [r7, #2]
  const uint8_t *font = u8g2->font;
 80019f4:	687b      	ldr	r3, [r7, #4]
 80019f6:	6d9b      	ldr	r3, [r3, #88]	@ 0x58
 80019f8:	617b      	str	r3, [r7, #20]
  font += U8G2_FONT_DATA_STRUCT_SIZE;
 80019fa:	697b      	ldr	r3, [r7, #20]
 80019fc:	3317      	adds	r3, #23
 80019fe:	617b      	str	r3, [r7, #20]

  
  if ( encoding <= 255 )
 8001a00:	887b      	ldrh	r3, [r7, #2]
 8001a02:	2bff      	cmp	r3, #255	@ 0xff
 8001a04:	d82a      	bhi.n	8001a5c <u8g2_font_get_glyph_data+0x74>
  {
    if ( encoding >= 'a' )
 8001a06:	887b      	ldrh	r3, [r7, #2]
 8001a08:	2b60      	cmp	r3, #96	@ 0x60
 8001a0a:	d907      	bls.n	8001a1c <u8g2_font_get_glyph_data+0x34>
    {
      font += u8g2->font_info.start_pos_lower_a;
 8001a0c:	687b      	ldr	r3, [r7, #4]
 8001a0e:	f8b3 3088 	ldrh.w	r3, [r3, #136]	@ 0x88
 8001a12:	461a      	mov	r2, r3
 8001a14:	697b      	ldr	r3, [r7, #20]
 8001a16:	4413      	add	r3, r2
 8001a18:	617b      	str	r3, [r7, #20]
 8001a1a:	e009      	b.n	8001a30 <u8g2_font_get_glyph_data+0x48>
    }
    else if ( encoding >= 'A' )
 8001a1c:	887b      	ldrh	r3, [r7, #2]
 8001a1e:	2b40      	cmp	r3, #64	@ 0x40
 8001a20:	d906      	bls.n	8001a30 <u8g2_font_get_glyph_data+0x48>
    {
      font += u8g2->font_info.start_pos_upper_A;
 8001a22:	687b      	ldr	r3, [r7, #4]
 8001a24:	f8b3 3086 	ldrh.w	r3, [r3, #134]	@ 0x86
 8001a28:	461a      	mov	r2, r3
 8001a2a:	697b      	ldr	r3, [r7, #20]
 8001a2c:	4413      	add	r3, r2
 8001a2e:	617b      	str	r3, [r7, #20]
    }
    
    for(;;)
    {
      if ( u8x8_pgm_read( font + 1 ) == 0 )
 8001a30:	697b      	ldr	r3, [r7, #20]
 8001a32:	3301      	adds	r3, #1
 8001a34:	781b      	ldrb	r3, [r3, #0]
 8001a36:	2b00      	cmp	r3, #0
 8001a38:	d04e      	beq.n	8001ad8 <u8g2_font_get_glyph_data+0xf0>
	break;
      if ( u8x8_pgm_read( font ) == encoding )
 8001a3a:	697b      	ldr	r3, [r7, #20]
 8001a3c:	781b      	ldrb	r3, [r3, #0]
 8001a3e:	461a      	mov	r2, r3
 8001a40:	887b      	ldrh	r3, [r7, #2]
 8001a42:	4293      	cmp	r3, r2
 8001a44:	d102      	bne.n	8001a4c <u8g2_font_get_glyph_data+0x64>
      {
	return font+2;	/* skip encoding and glyph size */
 8001a46:	697b      	ldr	r3, [r7, #20]
 8001a48:	3302      	adds	r3, #2
 8001a4a:	e049      	b.n	8001ae0 <u8g2_font_get_glyph_data+0xf8>
      }
      font += u8x8_pgm_read( font + 1 );
 8001a4c:	697b      	ldr	r3, [r7, #20]
 8001a4e:	3301      	adds	r3, #1
 8001a50:	781b      	ldrb	r3, [r3, #0]
 8001a52:	461a      	mov	r2, r3
 8001a54:	697b      	ldr	r3, [r7, #20]
 8001a56:	4413      	add	r3, r2
 8001a58:	617b      	str	r3, [r7, #20]
      if ( u8x8_pgm_read( font + 1 ) == 0 )
 8001a5a:	e7e9      	b.n	8001a30 <u8g2_font_get_glyph_data+0x48>
//	font = u8g2->last_font_data;
//    }
//    else
//#endif 

    font += u8g2->font_info.start_pos_unicode;
 8001a5c:	687b      	ldr	r3, [r7, #4]
 8001a5e:	f8b3 308a 	ldrh.w	r3, [r3, #138]	@ 0x8a
 8001a62:	461a      	mov	r2, r3
 8001a64:	697b      	ldr	r3, [r7, #20]
 8001a66:	4413      	add	r3, r2
 8001a68:	617b      	str	r3, [r7, #20]
    unicode_lookup_table = font; 
 8001a6a:	697b      	ldr	r3, [r7, #20]
 8001a6c:	613b      	str	r3, [r7, #16]
  
    /* issue 596: search for the glyph start in the unicode lookup table */
    do
    {
      font += u8g2_font_get_word(unicode_lookup_table, 0);
 8001a6e:	2100      	movs	r1, #0
 8001a70:	6938      	ldr	r0, [r7, #16]
 8001a72:	f7ff fc3f 	bl	80012f4 <u8g2_font_get_word>
 8001a76:	4603      	mov	r3, r0
 8001a78:	461a      	mov	r2, r3
 8001a7a:	697b      	ldr	r3, [r7, #20]
 8001a7c:	4413      	add	r3, r2
 8001a7e:	617b      	str	r3, [r7, #20]
      e = u8g2_font_get_word(unicode_lookup_table, 2);
 8001a80:	2102      	movs	r1, #2
 8001a82:	6938      	ldr	r0, [r7, #16]
 8001a84:	f7ff fc36 	bl	80012f4 <u8g2_font_get_word>
 8001a88:	4603      	mov	r3, r0
 8001a8a:	81fb      	strh	r3, [r7, #14]
      unicode_lookup_table+=4;
 8001a8c:	693b      	ldr	r3, [r7, #16]
 8001a8e:	3304      	adds	r3, #4
 8001a90:	613b      	str	r3, [r7, #16]
    } while( e < encoding );
 8001a92:	89fa      	ldrh	r2, [r7, #14]
 8001a94:	887b      	ldrh	r3, [r7, #2]
 8001a96:	429a      	cmp	r2, r3
 8001a98:	d3e9      	bcc.n	8001a6e <u8g2_font_get_glyph_data+0x86>
    
  
    for(;;)
    {
      e = u8x8_pgm_read( font );
 8001a9a:	697b      	ldr	r3, [r7, #20]
 8001a9c:	781b      	ldrb	r3, [r3, #0]
 8001a9e:	81fb      	strh	r3, [r7, #14]
      e <<= 8;
 8001aa0:	89fb      	ldrh	r3, [r7, #14]
 8001aa2:	021b      	lsls	r3, r3, #8
 8001aa4:	81fb      	strh	r3, [r7, #14]
      e |= u8x8_pgm_read( font + 1 );
 8001aa6:	697b      	ldr	r3, [r7, #20]
 8001aa8:	3301      	adds	r3, #1
 8001aaa:	781b      	ldrb	r3, [r3, #0]
 8001aac:	461a      	mov	r2, r3
 8001aae:	89fb      	ldrh	r3, [r7, #14]
 8001ab0:	4313      	orrs	r3, r2
 8001ab2:	81fb      	strh	r3, [r7, #14]
//#ifdef  __unix__
//      if ( encoding < e )
//        break;
//#endif 

      if ( e == 0 )
 8001ab4:	89fb      	ldrh	r3, [r7, #14]
 8001ab6:	2b00      	cmp	r3, #0
 8001ab8:	d010      	beq.n	8001adc <u8g2_font_get_glyph_data+0xf4>
	break;
  
      if ( e == encoding )
 8001aba:	89fa      	ldrh	r2, [r7, #14]
 8001abc:	887b      	ldrh	r3, [r7, #2]
 8001abe:	429a      	cmp	r2, r3
 8001ac0:	d102      	bne.n	8001ac8 <u8g2_font_get_glyph_data+0xe0>
// removed, there is now the new index table
//#ifdef  __unix__
//	u8g2->last_font_data = font;
//	u8g2->last_unicode = encoding;
//#endif 
	return font+3;	/* skip encoding and glyph size */
 8001ac2:	697b      	ldr	r3, [r7, #20]
 8001ac4:	3303      	adds	r3, #3
 8001ac6:	e00b      	b.n	8001ae0 <u8g2_font_get_glyph_data+0xf8>
      }
      font += u8x8_pgm_read( font + 2 );
 8001ac8:	697b      	ldr	r3, [r7, #20]
 8001aca:	3302      	adds	r3, #2
 8001acc:	781b      	ldrb	r3, [r3, #0]
 8001ace:	461a      	mov	r2, r3
 8001ad0:	697b      	ldr	r3, [r7, #20]
 8001ad2:	4413      	add	r3, r2
 8001ad4:	617b      	str	r3, [r7, #20]
      e = u8x8_pgm_read( font );
 8001ad6:	e7e0      	b.n	8001a9a <u8g2_font_get_glyph_data+0xb2>
	break;
 8001ad8:	bf00      	nop
 8001ada:	e000      	b.n	8001ade <u8g2_font_get_glyph_data+0xf6>
	break;
 8001adc:	bf00      	nop
    }  
  }
#endif
  
  return NULL;
 8001ade:	2300      	movs	r3, #0
}
 8001ae0:	4618      	mov	r0, r3
 8001ae2:	3718      	adds	r7, #24
 8001ae4:	46bd      	mov	sp, r7
 8001ae6:	bd80      	pop	{r7, pc}

08001ae8 <u8g2_font_draw_glyph>:

static u8g2_uint_t u8g2_font_draw_glyph(u8g2_t *u8g2, u8g2_uint_t x, u8g2_uint_t y, uint16_t encoding)
{
 8001ae8:	b580      	push	{r7, lr}
 8001aea:	b086      	sub	sp, #24
 8001aec:	af00      	add	r7, sp, #0
 8001aee:	60f8      	str	r0, [r7, #12]
 8001af0:	4608      	mov	r0, r1
 8001af2:	4611      	mov	r1, r2
 8001af4:	461a      	mov	r2, r3
 8001af6:	4603      	mov	r3, r0
 8001af8:	817b      	strh	r3, [r7, #10]
 8001afa:	460b      	mov	r3, r1
 8001afc:	813b      	strh	r3, [r7, #8]
 8001afe:	4613      	mov	r3, r2
 8001b00:	80fb      	strh	r3, [r7, #6]
  u8g2_uint_t dx = 0;
 8001b02:	2300      	movs	r3, #0
 8001b04:	82fb      	strh	r3, [r7, #22]
  u8g2->font_decode.target_x = x;
 8001b06:	68fb      	ldr	r3, [r7, #12]
 8001b08:	897a      	ldrh	r2, [r7, #10]
 8001b0a:	f8a3 2064 	strh.w	r2, [r3, #100]	@ 0x64
  u8g2->font_decode.target_y = y;
 8001b0e:	68fb      	ldr	r3, [r7, #12]
 8001b10:	893a      	ldrh	r2, [r7, #8]
 8001b12:	f8a3 2066 	strh.w	r2, [r3, #102]	@ 0x66
  //u8g2->font_decode.is_transparent = is_transparent; this is already set
  //u8g2->font_decode.dir = dir;
  const uint8_t *glyph_data = u8g2_font_get_glyph_data(u8g2, encoding);
 8001b16:	88fb      	ldrh	r3, [r7, #6]
 8001b18:	4619      	mov	r1, r3
 8001b1a:	68f8      	ldr	r0, [r7, #12]
 8001b1c:	f7ff ff64 	bl	80019e8 <u8g2_font_get_glyph_data>
 8001b20:	6138      	str	r0, [r7, #16]
  if ( glyph_data != NULL )
 8001b22:	693b      	ldr	r3, [r7, #16]
 8001b24:	2b00      	cmp	r3, #0
 8001b26:	d005      	beq.n	8001b34 <u8g2_font_draw_glyph+0x4c>
  {
    dx = u8g2_font_decode_glyph(u8g2, glyph_data);
 8001b28:	6939      	ldr	r1, [r7, #16]
 8001b2a:	68f8      	ldr	r0, [r7, #12]
 8001b2c:	f7ff fe4e 	bl	80017cc <u8g2_font_decode_glyph>
 8001b30:	4603      	mov	r3, r0
 8001b32:	82fb      	strh	r3, [r7, #22]
  }
  return dx;
 8001b34:	8afb      	ldrh	r3, [r7, #22]
}
 8001b36:	4618      	mov	r0, r3
 8001b38:	3718      	adds	r7, #24
 8001b3a:	46bd      	mov	sp, r7
 8001b3c:	bd80      	pop	{r7, pc}
	...

08001b40 <u8g2_DrawGlyph>:
{
  u8g2->font_decode.is_transparent = is_transparent;		// new font procedures
}

u8g2_uint_t u8g2_DrawGlyph(u8g2_t *u8g2, u8g2_uint_t x, u8g2_uint_t y, uint16_t encoding)
{
 8001b40:	b580      	push	{r7, lr}
 8001b42:	b084      	sub	sp, #16
 8001b44:	af00      	add	r7, sp, #0
 8001b46:	60f8      	str	r0, [r7, #12]
 8001b48:	4608      	mov	r0, r1
 8001b4a:	4611      	mov	r1, r2
 8001b4c:	461a      	mov	r2, r3
 8001b4e:	4603      	mov	r3, r0
 8001b50:	817b      	strh	r3, [r7, #10]
 8001b52:	460b      	mov	r3, r1
 8001b54:	813b      	strh	r3, [r7, #8]
 8001b56:	4613      	mov	r3, r2
 8001b58:	80fb      	strh	r3, [r7, #6]
#ifdef U8G2_WITH_FONT_ROTATION
  switch(u8g2->font_decode.dir)
 8001b5a:	68fb      	ldr	r3, [r7, #12]
 8001b5c:	f893 3070 	ldrb.w	r3, [r3, #112]	@ 0x70
 8001b60:	2b03      	cmp	r3, #3
 8001b62:	d833      	bhi.n	8001bcc <u8g2_DrawGlyph+0x8c>
 8001b64:	a201      	add	r2, pc, #4	@ (adr r2, 8001b6c <u8g2_DrawGlyph+0x2c>)
 8001b66:	f852 f023 	ldr.w	pc, [r2, r3, lsl #2]
 8001b6a:	bf00      	nop
 8001b6c:	08001b7d 	.word	0x08001b7d
 8001b70:	08001b91 	.word	0x08001b91
 8001b74:	08001ba5 	.word	0x08001ba5
 8001b78:	08001bb9 	.word	0x08001bb9
  {
    case 0:
      y += u8g2->font_calc_vref(u8g2);
 8001b7c:	68fb      	ldr	r3, [r7, #12]
 8001b7e:	6ddb      	ldr	r3, [r3, #92]	@ 0x5c
 8001b80:	68f8      	ldr	r0, [r7, #12]
 8001b82:	4798      	blx	r3
 8001b84:	4603      	mov	r3, r0
 8001b86:	461a      	mov	r2, r3
 8001b88:	893b      	ldrh	r3, [r7, #8]
 8001b8a:	4413      	add	r3, r2
 8001b8c:	813b      	strh	r3, [r7, #8]
      break;
 8001b8e:	e01d      	b.n	8001bcc <u8g2_DrawGlyph+0x8c>
    case 1:
      x -= u8g2->font_calc_vref(u8g2);
 8001b90:	68fb      	ldr	r3, [r7, #12]
 8001b92:	6ddb      	ldr	r3, [r3, #92]	@ 0x5c
 8001b94:	68f8      	ldr	r0, [r7, #12]
 8001b96:	4798      	blx	r3
 8001b98:	4603      	mov	r3, r0
 8001b9a:	461a      	mov	r2, r3
 8001b9c:	897b      	ldrh	r3, [r7, #10]
 8001b9e:	1a9b      	subs	r3, r3, r2
 8001ba0:	817b      	strh	r3, [r7, #10]
      break;
 8001ba2:	e013      	b.n	8001bcc <u8g2_DrawGlyph+0x8c>
    case 2:
      y -= u8g2->font_calc_vref(u8g2);
 8001ba4:	68fb      	ldr	r3, [r7, #12]
 8001ba6:	6ddb      	ldr	r3, [r3, #92]	@ 0x5c
 8001ba8:	68f8      	ldr	r0, [r7, #12]
 8001baa:	4798      	blx	r3
 8001bac:	4603      	mov	r3, r0
 8001bae:	461a      	mov	r2, r3
 8001bb0:	893b      	ldrh	r3, [r7, #8]
 8001bb2:	1a9b      	subs	r3, r3, r2
 8001bb4:	813b      	strh	r3, [r7, #8]
      break;
 8001bb6:	e009      	b.n	8001bcc <u8g2_DrawGlyph+0x8c>
    case 3:
      x += u8g2->font_calc_vref(u8g2);
 8001bb8:	68fb      	ldr	r3, [r7, #12]
 8001bba:	6ddb      	ldr	r3, [r3, #92]	@ 0x5c
 8001bbc:	68f8      	ldr	r0, [r7, #12]
 8001bbe:	4798      	blx	r3
 8001bc0:	4603      	mov	r3, r0
 8001bc2:	461a      	mov	r2, r3
 8001bc4:	897b      	ldrh	r3, [r7, #10]
 8001bc6:	4413      	add	r3, r2
 8001bc8:	817b      	strh	r3, [r7, #10]
      break;
 8001bca:	bf00      	nop
  }
#else
  y += u8g2->font_calc_vref(u8g2);
#endif
  return u8g2_font_draw_glyph(u8g2, x, y, encoding);
 8001bcc:	88fb      	ldrh	r3, [r7, #6]
 8001bce:	893a      	ldrh	r2, [r7, #8]
 8001bd0:	8979      	ldrh	r1, [r7, #10]
 8001bd2:	68f8      	ldr	r0, [r7, #12]
 8001bd4:	f7ff ff88 	bl	8001ae8 <u8g2_font_draw_glyph>
 8001bd8:	4603      	mov	r3, r0
}
 8001bda:	4618      	mov	r0, r3
 8001bdc:	3710      	adds	r7, #16
 8001bde:	46bd      	mov	sp, r7
 8001be0:	bd80      	pop	{r7, pc}
 8001be2:	bf00      	nop

08001be4 <u8g2_draw_string>:
  return u8g2_font_2x_draw_glyph(u8g2, x, y, encoding);
}

static u8g2_uint_t u8g2_draw_string(u8g2_t *u8g2, u8g2_uint_t x, u8g2_uint_t y, const char *str) U8G2_NOINLINE;
static u8g2_uint_t u8g2_draw_string(u8g2_t *u8g2, u8g2_uint_t x, u8g2_uint_t y, const char *str)
{
 8001be4:	b580      	push	{r7, lr}
 8001be6:	b086      	sub	sp, #24
 8001be8:	af00      	add	r7, sp, #0
 8001bea:	60f8      	str	r0, [r7, #12]
 8001bec:	607b      	str	r3, [r7, #4]
 8001bee:	460b      	mov	r3, r1
 8001bf0:	817b      	strh	r3, [r7, #10]
 8001bf2:	4613      	mov	r3, r2
 8001bf4:	813b      	strh	r3, [r7, #8]
  uint16_t e;
  u8g2_uint_t delta, sum;
  u8x8_utf8_init(u8g2_GetU8x8(u8g2));
 8001bf6:	68f8      	ldr	r0, [r7, #12]
 8001bf8:	f000 fca7 	bl	800254a <u8x8_utf8_init>
  sum = 0;
 8001bfc:	2300      	movs	r3, #0
 8001bfe:	82fb      	strh	r3, [r7, #22]
  for(;;)
  {
    e = u8g2->u8x8.next_cb(u8g2_GetU8x8(u8g2), (uint8_t)*str);
 8001c00:	68fb      	ldr	r3, [r7, #12]
 8001c02:	685b      	ldr	r3, [r3, #4]
 8001c04:	687a      	ldr	r2, [r7, #4]
 8001c06:	7812      	ldrb	r2, [r2, #0]
 8001c08:	4611      	mov	r1, r2
 8001c0a:	68f8      	ldr	r0, [r7, #12]
 8001c0c:	4798      	blx	r3
 8001c0e:	4603      	mov	r3, r0
 8001c10:	82bb      	strh	r3, [r7, #20]
    if ( e == 0x0ffff )
 8001c12:	8abb      	ldrh	r3, [r7, #20]
 8001c14:	f64f 72ff 	movw	r2, #65535	@ 0xffff
 8001c18:	4293      	cmp	r3, r2
 8001c1a:	d038      	beq.n	8001c8e <u8g2_draw_string+0xaa>
      break;
    str++;
 8001c1c:	687b      	ldr	r3, [r7, #4]
 8001c1e:	3301      	adds	r3, #1
 8001c20:	607b      	str	r3, [r7, #4]
    if ( e != 0x0fffe )
 8001c22:	8abb      	ldrh	r3, [r7, #20]
 8001c24:	f64f 72fe 	movw	r2, #65534	@ 0xfffe
 8001c28:	4293      	cmp	r3, r2
 8001c2a:	d0e9      	beq.n	8001c00 <u8g2_draw_string+0x1c>
    {
      delta = u8g2_DrawGlyph(u8g2, x, y, e);
 8001c2c:	8abb      	ldrh	r3, [r7, #20]
 8001c2e:	893a      	ldrh	r2, [r7, #8]
 8001c30:	8979      	ldrh	r1, [r7, #10]
 8001c32:	68f8      	ldr	r0, [r7, #12]
 8001c34:	f7ff ff84 	bl	8001b40 <u8g2_DrawGlyph>
 8001c38:	4603      	mov	r3, r0
 8001c3a:	827b      	strh	r3, [r7, #18]
    
#ifdef U8G2_WITH_FONT_ROTATION
      switch(u8g2->font_decode.dir)
 8001c3c:	68fb      	ldr	r3, [r7, #12]
 8001c3e:	f893 3070 	ldrb.w	r3, [r3, #112]	@ 0x70
 8001c42:	2b03      	cmp	r3, #3
 8001c44:	d81e      	bhi.n	8001c84 <u8g2_draw_string+0xa0>
 8001c46:	a201      	add	r2, pc, #4	@ (adr r2, 8001c4c <u8g2_draw_string+0x68>)
 8001c48:	f852 f023 	ldr.w	pc, [r2, r3, lsl #2]
 8001c4c:	08001c5d 	.word	0x08001c5d
 8001c50:	08001c67 	.word	0x08001c67
 8001c54:	08001c71 	.word	0x08001c71
 8001c58:	08001c7b 	.word	0x08001c7b
      {
	case 0:
	  x += delta;
 8001c5c:	897a      	ldrh	r2, [r7, #10]
 8001c5e:	8a7b      	ldrh	r3, [r7, #18]
 8001c60:	4413      	add	r3, r2
 8001c62:	817b      	strh	r3, [r7, #10]
	  break;
 8001c64:	e00e      	b.n	8001c84 <u8g2_draw_string+0xa0>
	case 1:
	  y += delta;
 8001c66:	893a      	ldrh	r2, [r7, #8]
 8001c68:	8a7b      	ldrh	r3, [r7, #18]
 8001c6a:	4413      	add	r3, r2
 8001c6c:	813b      	strh	r3, [r7, #8]
	  break;
 8001c6e:	e009      	b.n	8001c84 <u8g2_draw_string+0xa0>
	case 2:
	  x -= delta;
 8001c70:	897a      	ldrh	r2, [r7, #10]
 8001c72:	8a7b      	ldrh	r3, [r7, #18]
 8001c74:	1ad3      	subs	r3, r2, r3
 8001c76:	817b      	strh	r3, [r7, #10]
	  break;
 8001c78:	e004      	b.n	8001c84 <u8g2_draw_string+0xa0>
	case 3:
	  y -= delta;
 8001c7a:	893a      	ldrh	r2, [r7, #8]
 8001c7c:	8a7b      	ldrh	r3, [r7, #18]
 8001c7e:	1ad3      	subs	r3, r2, r3
 8001c80:	813b      	strh	r3, [r7, #8]
	  break;
 8001c82:	bf00      	nop

#else
      x += delta;
#endif

      sum += delta;    
 8001c84:	8afa      	ldrh	r2, [r7, #22]
 8001c86:	8a7b      	ldrh	r3, [r7, #18]
 8001c88:	4413      	add	r3, r2
 8001c8a:	82fb      	strh	r3, [r7, #22]
    e = u8g2->u8x8.next_cb(u8g2_GetU8x8(u8g2), (uint8_t)*str);
 8001c8c:	e7b8      	b.n	8001c00 <u8g2_draw_string+0x1c>
      break;
 8001c8e:	bf00      	nop
    }
  }
  return sum;
 8001c90:	8afb      	ldrh	r3, [r7, #22]
}
 8001c92:	4618      	mov	r0, r3
 8001c94:	3718      	adds	r7, #24
 8001c96:	46bd      	mov	sp, r7
 8001c98:	bd80      	pop	{r7, pc}
 8001c9a:	bf00      	nop

08001c9c <u8g2_DrawStr>:
  }
  return sum;
}

u8g2_uint_t u8g2_DrawStr(u8g2_t *u8g2, u8g2_uint_t x, u8g2_uint_t y, const char *str)
{
 8001c9c:	b580      	push	{r7, lr}
 8001c9e:	b084      	sub	sp, #16
 8001ca0:	af00      	add	r7, sp, #0
 8001ca2:	60f8      	str	r0, [r7, #12]
 8001ca4:	607b      	str	r3, [r7, #4]
 8001ca6:	460b      	mov	r3, r1
 8001ca8:	817b      	strh	r3, [r7, #10]
 8001caa:	4613      	mov	r3, r2
 8001cac:	813b      	strh	r3, [r7, #8]
  u8g2->u8x8.next_cb = u8x8_ascii_next;
 8001cae:	68fb      	ldr	r3, [r7, #12]
 8001cb0:	4a06      	ldr	r2, [pc, #24]	@ (8001ccc <u8g2_DrawStr+0x30>)
 8001cb2:	605a      	str	r2, [r3, #4]
  return u8g2_draw_string(u8g2, x, y, str);
 8001cb4:	893a      	ldrh	r2, [r7, #8]
 8001cb6:	8979      	ldrh	r1, [r7, #10]
 8001cb8:	687b      	ldr	r3, [r7, #4]
 8001cba:	68f8      	ldr	r0, [r7, #12]
 8001cbc:	f7ff ff92 	bl	8001be4 <u8g2_draw_string>
 8001cc0:	4603      	mov	r3, r0
}
 8001cc2:	4618      	mov	r0, r3
 8001cc4:	3710      	adds	r7, #16
 8001cc6:	46bd      	mov	sp, r7
 8001cc8:	bd80      	pop	{r7, pc}
 8001cca:	bf00      	nop
 8001ccc:	08002567 	.word	0x08002567

08001cd0 <u8g2_UpdateRefHeight>:
/*===============================================*/

/* set ascent/descent for reference point calculation */

void u8g2_UpdateRefHeight(u8g2_t *u8g2)
{
 8001cd0:	b480      	push	{r7}
 8001cd2:	b083      	sub	sp, #12
 8001cd4:	af00      	add	r7, sp, #0
 8001cd6:	6078      	str	r0, [r7, #4]
  if ( u8g2->font == NULL )
 8001cd8:	687b      	ldr	r3, [r7, #4]
 8001cda:	6d9b      	ldr	r3, [r3, #88]	@ 0x58
 8001cdc:	2b00      	cmp	r3, #0
 8001cde:	d05d      	beq.n	8001d9c <u8g2_UpdateRefHeight+0xcc>
    return;
  u8g2->font_ref_ascent = u8g2->font_info.ascent_A;
 8001ce0:	687b      	ldr	r3, [r7, #4]
 8001ce2:	f993 2081 	ldrsb.w	r2, [r3, #129]	@ 0x81
 8001ce6:	687b      	ldr	r3, [r7, #4]
 8001ce8:	f883 208e 	strb.w	r2, [r3, #142]	@ 0x8e
  u8g2->font_ref_descent = u8g2->font_info.descent_g;
 8001cec:	687b      	ldr	r3, [r7, #4]
 8001cee:	f993 2082 	ldrsb.w	r2, [r3, #130]	@ 0x82
 8001cf2:	687b      	ldr	r3, [r7, #4]
 8001cf4:	f883 208f 	strb.w	r2, [r3, #143]	@ 0x8f
  if ( u8g2->font_height_mode == U8G2_FONT_HEIGHT_MODE_TEXT )
 8001cf8:	687b      	ldr	r3, [r7, #4]
 8001cfa:	f893 308d 	ldrb.w	r3, [r3, #141]	@ 0x8d
 8001cfe:	2b00      	cmp	r3, #0
 8001d00:	d04d      	beq.n	8001d9e <u8g2_UpdateRefHeight+0xce>
  {
  }
  else if ( u8g2->font_height_mode == U8G2_FONT_HEIGHT_MODE_XTEXT )
 8001d02:	687b      	ldr	r3, [r7, #4]
 8001d04:	f893 308d 	ldrb.w	r3, [r3, #141]	@ 0x8d
 8001d08:	2b01      	cmp	r3, #1
 8001d0a:	d11c      	bne.n	8001d46 <u8g2_UpdateRefHeight+0x76>
  {
    if ( u8g2->font_ref_ascent < u8g2->font_info.ascent_para )
 8001d0c:	687b      	ldr	r3, [r7, #4]
 8001d0e:	f993 208e 	ldrsb.w	r2, [r3, #142]	@ 0x8e
 8001d12:	687b      	ldr	r3, [r7, #4]
 8001d14:	f993 3083 	ldrsb.w	r3, [r3, #131]	@ 0x83
 8001d18:	429a      	cmp	r2, r3
 8001d1a:	da05      	bge.n	8001d28 <u8g2_UpdateRefHeight+0x58>
      u8g2->font_ref_ascent = u8g2->font_info.ascent_para;
 8001d1c:	687b      	ldr	r3, [r7, #4]
 8001d1e:	f993 2083 	ldrsb.w	r2, [r3, #131]	@ 0x83
 8001d22:	687b      	ldr	r3, [r7, #4]
 8001d24:	f883 208e 	strb.w	r2, [r3, #142]	@ 0x8e
    if ( u8g2->font_ref_descent > u8g2->font_info.descent_para )
 8001d28:	687b      	ldr	r3, [r7, #4]
 8001d2a:	f993 208f 	ldrsb.w	r2, [r3, #143]	@ 0x8f
 8001d2e:	687b      	ldr	r3, [r7, #4]
 8001d30:	f993 3084 	ldrsb.w	r3, [r3, #132]	@ 0x84
 8001d34:	429a      	cmp	r2, r3
 8001d36:	dd32      	ble.n	8001d9e <u8g2_UpdateRefHeight+0xce>
      u8g2->font_ref_descent = u8g2->font_info.descent_para;
 8001d38:	687b      	ldr	r3, [r7, #4]
 8001d3a:	f993 2084 	ldrsb.w	r2, [r3, #132]	@ 0x84
 8001d3e:	687b      	ldr	r3, [r7, #4]
 8001d40:	f883 208f 	strb.w	r2, [r3, #143]	@ 0x8f
 8001d44:	e02b      	b.n	8001d9e <u8g2_UpdateRefHeight+0xce>
  }
  else
  {
    if ( u8g2->font_ref_ascent < u8g2->font_info.max_char_height+u8g2->font_info.y_offset )
 8001d46:	687b      	ldr	r3, [r7, #4]
 8001d48:	f993 308e 	ldrsb.w	r3, [r3, #142]	@ 0x8e
 8001d4c:	461a      	mov	r2, r3
 8001d4e:	687b      	ldr	r3, [r7, #4]
 8001d50:	f993 307e 	ldrsb.w	r3, [r3, #126]	@ 0x7e
 8001d54:	4619      	mov	r1, r3
 8001d56:	687b      	ldr	r3, [r7, #4]
 8001d58:	f993 3080 	ldrsb.w	r3, [r3, #128]	@ 0x80
 8001d5c:	440b      	add	r3, r1
 8001d5e:	429a      	cmp	r2, r3
 8001d60:	da0d      	bge.n	8001d7e <u8g2_UpdateRefHeight+0xae>
      u8g2->font_ref_ascent = u8g2->font_info.max_char_height+u8g2->font_info.y_offset;
 8001d62:	687b      	ldr	r3, [r7, #4]
 8001d64:	f993 307e 	ldrsb.w	r3, [r3, #126]	@ 0x7e
 8001d68:	b2da      	uxtb	r2, r3
 8001d6a:	687b      	ldr	r3, [r7, #4]
 8001d6c:	f993 3080 	ldrsb.w	r3, [r3, #128]	@ 0x80
 8001d70:	b2db      	uxtb	r3, r3
 8001d72:	4413      	add	r3, r2
 8001d74:	b2db      	uxtb	r3, r3
 8001d76:	b25a      	sxtb	r2, r3
 8001d78:	687b      	ldr	r3, [r7, #4]
 8001d7a:	f883 208e 	strb.w	r2, [r3, #142]	@ 0x8e
    if ( u8g2->font_ref_descent > u8g2->font_info.y_offset )
 8001d7e:	687b      	ldr	r3, [r7, #4]
 8001d80:	f993 208f 	ldrsb.w	r2, [r3, #143]	@ 0x8f
 8001d84:	687b      	ldr	r3, [r7, #4]
 8001d86:	f993 3080 	ldrsb.w	r3, [r3, #128]	@ 0x80
 8001d8a:	429a      	cmp	r2, r3
 8001d8c:	dd07      	ble.n	8001d9e <u8g2_UpdateRefHeight+0xce>
      u8g2->font_ref_descent = u8g2->font_info.y_offset;
 8001d8e:	687b      	ldr	r3, [r7, #4]
 8001d90:	f993 2080 	ldrsb.w	r2, [r3, #128]	@ 0x80
 8001d94:	687b      	ldr	r3, [r7, #4]
 8001d96:	f883 208f 	strb.w	r2, [r3, #143]	@ 0x8f
 8001d9a:	e000      	b.n	8001d9e <u8g2_UpdateRefHeight+0xce>
    return;
 8001d9c:	bf00      	nop
  }  
}
 8001d9e:	370c      	adds	r7, #12
 8001da0:	46bd      	mov	sp, r7
 8001da2:	f85d 7b04 	ldr.w	r7, [sp], #4
 8001da6:	4770      	bx	lr

08001da8 <u8g2_font_calc_vref_font>:

/*===============================================*/
/* callback procedures to correct the y position */

u8g2_uint_t u8g2_font_calc_vref_font(U8X8_UNUSED u8g2_t *u8g2)
{
 8001da8:	b480      	push	{r7}
 8001daa:	b083      	sub	sp, #12
 8001dac:	af00      	add	r7, sp, #0
 8001dae:	6078      	str	r0, [r7, #4]
  return 0;
 8001db0:	2300      	movs	r3, #0
}
 8001db2:	4618      	mov	r0, r3
 8001db4:	370c      	adds	r7, #12
 8001db6:	46bd      	mov	sp, r7
 8001db8:	f85d 7b04 	ldr.w	r7, [sp], #4
 8001dbc:	4770      	bx	lr
	...

08001dc0 <u8g2_SetFontPosBaseline>:

void u8g2_SetFontPosBaseline(u8g2_t *u8g2)
{
 8001dc0:	b480      	push	{r7}
 8001dc2:	b083      	sub	sp, #12
 8001dc4:	af00      	add	r7, sp, #0
 8001dc6:	6078      	str	r0, [r7, #4]
  u8g2->font_calc_vref = u8g2_font_calc_vref_font;
 8001dc8:	687b      	ldr	r3, [r7, #4]
 8001dca:	4a04      	ldr	r2, [pc, #16]	@ (8001ddc <u8g2_SetFontPosBaseline+0x1c>)
 8001dcc:	65da      	str	r2, [r3, #92]	@ 0x5c
}
 8001dce:	bf00      	nop
 8001dd0:	370c      	adds	r7, #12
 8001dd2:	46bd      	mov	sp, r7
 8001dd4:	f85d 7b04 	ldr.w	r7, [sp], #4
 8001dd8:	4770      	bx	lr
 8001dda:	bf00      	nop
 8001ddc:	08001da9 	.word	0x08001da9

08001de0 <u8g2_SetFont>:
}

/*===============================================*/

void u8g2_SetFont(u8g2_t *u8g2, const uint8_t  *font)
{
 8001de0:	b580      	push	{r7, lr}
 8001de2:	b082      	sub	sp, #8
 8001de4:	af00      	add	r7, sp, #0
 8001de6:	6078      	str	r0, [r7, #4]
 8001de8:	6039      	str	r1, [r7, #0]
  if ( u8g2->font != font )
 8001dea:	687b      	ldr	r3, [r7, #4]
 8001dec:	6d9b      	ldr	r3, [r3, #88]	@ 0x58
 8001dee:	683a      	ldr	r2, [r7, #0]
 8001df0:	429a      	cmp	r2, r3
 8001df2:	d00b      	beq.n	8001e0c <u8g2_SetFont+0x2c>
  {
//#ifdef  __unix__
//	u8g2->last_font_data = NULL;
//	u8g2->last_unicode = 0x0ffff;
//#endif 
    u8g2->font = font;
 8001df4:	687b      	ldr	r3, [r7, #4]
 8001df6:	683a      	ldr	r2, [r7, #0]
 8001df8:	659a      	str	r2, [r3, #88]	@ 0x58
    u8g2_read_font_info(&(u8g2->font_info), font);
 8001dfa:	687b      	ldr	r3, [r7, #4]
 8001dfc:	3374      	adds	r3, #116	@ 0x74
 8001dfe:	6839      	ldr	r1, [r7, #0]
 8001e00:	4618      	mov	r0, r3
 8001e02:	f7ff fa97 	bl	8001334 <u8g2_read_font_info>
    u8g2_UpdateRefHeight(u8g2);
 8001e06:	6878      	ldr	r0, [r7, #4]
 8001e08:	f7ff ff62 	bl	8001cd0 <u8g2_UpdateRefHeight>
    /* u8g2_SetFontPosBaseline(u8g2); */ /* removed with issue 195 */
  }
}
 8001e0c:	bf00      	nop
 8001e0e:	3708      	adds	r7, #8
 8001e10:	46bd      	mov	sp, r7
 8001e12:	bd80      	pop	{r7, pc}

08001e14 <u8g2_clip_intersection2>:
 will return 0 if there is no intersection and if a > b

 */

static uint8_t u8g2_clip_intersection2(u8g2_uint_t *ap, u8g2_uint_t *len,
		u8g2_uint_t c, u8g2_uint_t d) {
 8001e14:	b480      	push	{r7}
 8001e16:	b087      	sub	sp, #28
 8001e18:	af00      	add	r7, sp, #0
 8001e1a:	60f8      	str	r0, [r7, #12]
 8001e1c:	60b9      	str	r1, [r7, #8]
 8001e1e:	4611      	mov	r1, r2
 8001e20:	461a      	mov	r2, r3
 8001e22:	460b      	mov	r3, r1
 8001e24:	80fb      	strh	r3, [r7, #6]
 8001e26:	4613      	mov	r3, r2
 8001e28:	80bb      	strh	r3, [r7, #4]
	u8g2_uint_t a = *ap;
 8001e2a:	68fb      	ldr	r3, [r7, #12]
 8001e2c:	881b      	ldrh	r3, [r3, #0]
 8001e2e:	82fb      	strh	r3, [r7, #22]
	u8g2_uint_t b;
	b = a;
 8001e30:	8afb      	ldrh	r3, [r7, #22]
 8001e32:	82bb      	strh	r3, [r7, #20]
	b += *len;
 8001e34:	68bb      	ldr	r3, [r7, #8]
 8001e36:	881a      	ldrh	r2, [r3, #0]
 8001e38:	8abb      	ldrh	r3, [r7, #20]
 8001e3a:	4413      	add	r3, r2
 8001e3c:	82bb      	strh	r3, [r7, #20]
	/* be removed completly (be aware about memory curruption for wrong */
	/* arguments) or return 0 for a>b (will lead to skipped lines for wrong */
	/* arguments) */

	/* removing the following if clause completly may lead to memory corruption of a>b */
	if (a > b) {
 8001e3e:	8afa      	ldrh	r2, [r7, #22]
 8001e40:	8abb      	ldrh	r3, [r7, #20]
 8001e42:	429a      	cmp	r2, r3
 8001e44:	d90b      	bls.n	8001e5e <u8g2_clip_intersection2+0x4a>
		/* replacing this if with a simple "return 0;" will not handle the case with negative a */
		if (a < d) {
 8001e46:	8afa      	ldrh	r2, [r7, #22]
 8001e48:	88bb      	ldrh	r3, [r7, #4]
 8001e4a:	429a      	cmp	r2, r3
 8001e4c:	d205      	bcs.n	8001e5a <u8g2_clip_intersection2+0x46>
			b = d;
 8001e4e:	88bb      	ldrh	r3, [r7, #4]
 8001e50:	82bb      	strh	r3, [r7, #20]
			b--;
 8001e52:	8abb      	ldrh	r3, [r7, #20]
 8001e54:	3b01      	subs	r3, #1
 8001e56:	82bb      	strh	r3, [r7, #20]
 8001e58:	e001      	b.n	8001e5e <u8g2_clip_intersection2+0x4a>
		} else {
			a = c;
 8001e5a:	88fb      	ldrh	r3, [r7, #6]
 8001e5c:	82fb      	strh	r3, [r7, #22]
		}
	}

	/* from now on, the asumption a <= b is ok */

	if (a >= d)
 8001e5e:	8afa      	ldrh	r2, [r7, #22]
 8001e60:	88bb      	ldrh	r3, [r7, #4]
 8001e62:	429a      	cmp	r2, r3
 8001e64:	d301      	bcc.n	8001e6a <u8g2_clip_intersection2+0x56>
		return 0;
 8001e66:	2300      	movs	r3, #0
 8001e68:	e01c      	b.n	8001ea4 <u8g2_clip_intersection2+0x90>
	if (b <= c)
 8001e6a:	8aba      	ldrh	r2, [r7, #20]
 8001e6c:	88fb      	ldrh	r3, [r7, #6]
 8001e6e:	429a      	cmp	r2, r3
 8001e70:	d801      	bhi.n	8001e76 <u8g2_clip_intersection2+0x62>
		return 0;
 8001e72:	2300      	movs	r3, #0
 8001e74:	e016      	b.n	8001ea4 <u8g2_clip_intersection2+0x90>
	if (a < c)
 8001e76:	8afa      	ldrh	r2, [r7, #22]
 8001e78:	88fb      	ldrh	r3, [r7, #6]
 8001e7a:	429a      	cmp	r2, r3
 8001e7c:	d201      	bcs.n	8001e82 <u8g2_clip_intersection2+0x6e>
		a = c;
 8001e7e:	88fb      	ldrh	r3, [r7, #6]
 8001e80:	82fb      	strh	r3, [r7, #22]
	if (b > d)
 8001e82:	8aba      	ldrh	r2, [r7, #20]
 8001e84:	88bb      	ldrh	r3, [r7, #4]
 8001e86:	429a      	cmp	r2, r3
 8001e88:	d901      	bls.n	8001e8e <u8g2_clip_intersection2+0x7a>
		b = d;
 8001e8a:	88bb      	ldrh	r3, [r7, #4]
 8001e8c:	82bb      	strh	r3, [r7, #20]

	*ap = a;
 8001e8e:	68fb      	ldr	r3, [r7, #12]
 8001e90:	8afa      	ldrh	r2, [r7, #22]
 8001e92:	801a      	strh	r2, [r3, #0]
	b -= a;
 8001e94:	8aba      	ldrh	r2, [r7, #20]
 8001e96:	8afb      	ldrh	r3, [r7, #22]
 8001e98:	1ad3      	subs	r3, r2, r3
 8001e9a:	82bb      	strh	r3, [r7, #20]
	*len = b;
 8001e9c:	68bb      	ldr	r3, [r7, #8]
 8001e9e:	8aba      	ldrh	r2, [r7, #20]
 8001ea0:	801a      	strh	r2, [r3, #0]
	return 1;
 8001ea2:	2301      	movs	r3, #1
}
 8001ea4:	4618      	mov	r0, r3
 8001ea6:	371c      	adds	r7, #28
 8001ea8:	46bd      	mov	sp, r7
 8001eaa:	f85d 7b04 	ldr.w	r7, [sp], #4
 8001eae:	4770      	bx	lr

08001eb0 <u8g2_draw_hv_line_2dir>:
 This function first adjusts the y position to the local buffer. Then it
 will clip the line and call u8g2_draw_low_level_hv_line()

 */
void u8g2_draw_hv_line_2dir(u8g2_t *u8g2, u8g2_uint_t x, u8g2_uint_t y,
		u8g2_uint_t len, uint8_t dir) {
 8001eb0:	b590      	push	{r4, r7, lr}
 8001eb2:	b087      	sub	sp, #28
 8001eb4:	af02      	add	r7, sp, #8
 8001eb6:	60f8      	str	r0, [r7, #12]
 8001eb8:	4608      	mov	r0, r1
 8001eba:	4611      	mov	r1, r2
 8001ebc:	461a      	mov	r2, r3
 8001ebe:	4603      	mov	r3, r0
 8001ec0:	817b      	strh	r3, [r7, #10]
 8001ec2:	460b      	mov	r3, r1
 8001ec4:	813b      	strh	r3, [r7, #8]
 8001ec6:	4613      	mov	r3, r2
 8001ec8:	80fb      	strh	r3, [r7, #6]

	/* clipping happens before the display rotation */

	/* transform to pixel buffer coordinates */
	y -= u8g2->pixel_curr_row;
 8001eca:	68fb      	ldr	r3, [r7, #12]
 8001ecc:	8fdb      	ldrh	r3, [r3, #62]	@ 0x3e
 8001ece:	893a      	ldrh	r2, [r7, #8]
 8001ed0:	1ad3      	subs	r3, r2, r3
 8001ed2:	813b      	strh	r3, [r7, #8]

	u8g2->ll_hvline(u8g2, x, y, len, dir);
 8001ed4:	68fb      	ldr	r3, [r7, #12]
 8001ed6:	6adc      	ldr	r4, [r3, #44]	@ 0x2c
 8001ed8:	88f8      	ldrh	r0, [r7, #6]
 8001eda:	893a      	ldrh	r2, [r7, #8]
 8001edc:	8979      	ldrh	r1, [r7, #10]
 8001ede:	f897 3020 	ldrb.w	r3, [r7, #32]
 8001ee2:	9300      	str	r3, [sp, #0]
 8001ee4:	4603      	mov	r3, r0
 8001ee6:	68f8      	ldr	r0, [r7, #12]
 8001ee8:	47a0      	blx	r4
}
 8001eea:	bf00      	nop
 8001eec:	3714      	adds	r7, #20
 8001eee:	46bd      	mov	sp, r7
 8001ef0:	bd90      	pop	{r4, r7, pc}

08001ef2 <u8g2_DrawHVLine>:
 This function should be called by the user.

 "dir" may have 4 directions: 0 (left to right), 1, 2, 3 (down up)
 */
void u8g2_DrawHVLine(u8g2_t *u8g2, u8g2_uint_t x, u8g2_uint_t y,
		u8g2_uint_t len, uint8_t dir) {
 8001ef2:	b590      	push	{r4, r7, lr}
 8001ef4:	b087      	sub	sp, #28
 8001ef6:	af02      	add	r7, sp, #8
 8001ef8:	60f8      	str	r0, [r7, #12]
 8001efa:	4608      	mov	r0, r1
 8001efc:	4611      	mov	r1, r2
 8001efe:	461a      	mov	r2, r3
 8001f00:	4603      	mov	r3, r0
 8001f02:	817b      	strh	r3, [r7, #10]
 8001f04:	460b      	mov	r3, r1
 8001f06:	813b      	strh	r3, [r7, #8]
 8001f08:	4613      	mov	r3, r2
 8001f0a:	80fb      	strh	r3, [r7, #6]
	/* Make a call to the callback function (e.g. u8g2_draw_l90_r0). */
	/* The callback may rotate the hv line */
	/* after rotation this will call u8g2_draw_hv_line_4dir() */

#ifdef U8G2_WITH_CLIP_WINDOW_SUPPORT
	if (u8g2->is_page_clip_window_intersection != 0)
 8001f0c:	68fb      	ldr	r3, [r7, #12]
 8001f0e:	f893 308c 	ldrb.w	r3, [r3, #140]	@ 0x8c
 8001f12:	2b00      	cmp	r3, #0
 8001f14:	d075      	beq.n	8002002 <u8g2_DrawHVLine+0x110>
#endif /* U8G2_WITH_CLIP_WINDOW_SUPPORT */
		if (len != 0) {
 8001f16:	88fb      	ldrh	r3, [r7, #6]
 8001f18:	2b00      	cmp	r3, #0
 8001f1a:	d072      	beq.n	8002002 <u8g2_DrawHVLine+0x110>

			/* convert to two directions */
			if (len > 1) {
 8001f1c:	88fb      	ldrh	r3, [r7, #6]
 8001f1e:	2b01      	cmp	r3, #1
 8001f20:	d91a      	bls.n	8001f58 <u8g2_DrawHVLine+0x66>
				if (dir == 2) {
 8001f22:	f897 3020 	ldrb.w	r3, [r7, #32]
 8001f26:	2b02      	cmp	r3, #2
 8001f28:	d109      	bne.n	8001f3e <u8g2_DrawHVLine+0x4c>
					x -= len;
 8001f2a:	897a      	ldrh	r2, [r7, #10]
 8001f2c:	88fb      	ldrh	r3, [r7, #6]
 8001f2e:	1ad3      	subs	r3, r2, r3
 8001f30:	b29b      	uxth	r3, r3
 8001f32:	817b      	strh	r3, [r7, #10]
					x++;
 8001f34:	897b      	ldrh	r3, [r7, #10]
 8001f36:	3301      	adds	r3, #1
 8001f38:	b29b      	uxth	r3, r3
 8001f3a:	817b      	strh	r3, [r7, #10]
 8001f3c:	e00c      	b.n	8001f58 <u8g2_DrawHVLine+0x66>
				} else if (dir == 3) {
 8001f3e:	f897 3020 	ldrb.w	r3, [r7, #32]
 8001f42:	2b03      	cmp	r3, #3
 8001f44:	d108      	bne.n	8001f58 <u8g2_DrawHVLine+0x66>
					y -= len;
 8001f46:	893a      	ldrh	r2, [r7, #8]
 8001f48:	88fb      	ldrh	r3, [r7, #6]
 8001f4a:	1ad3      	subs	r3, r2, r3
 8001f4c:	b29b      	uxth	r3, r3
 8001f4e:	813b      	strh	r3, [r7, #8]
					y++;
 8001f50:	893b      	ldrh	r3, [r7, #8]
 8001f52:	3301      	adds	r3, #1
 8001f54:	b29b      	uxth	r3, r3
 8001f56:	813b      	strh	r3, [r7, #8]
				}
			}
			dir &= 1;
 8001f58:	f897 3020 	ldrb.w	r3, [r7, #32]
 8001f5c:	f003 0301 	and.w	r3, r3, #1
 8001f60:	f887 3020 	strb.w	r3, [r7, #32]

			/* clip against the user window */
			if (dir == 0) {
 8001f64:	f897 3020 	ldrb.w	r3, [r7, #32]
 8001f68:	2b00      	cmp	r3, #0
 8001f6a:	d11a      	bne.n	8001fa2 <u8g2_DrawHVLine+0xb0>
				if (y < u8g2->user_y0)
 8001f6c:	68fb      	ldr	r3, [r7, #12]
 8001f6e:	f8b3 204c 	ldrh.w	r2, [r3, #76]	@ 0x4c
 8001f72:	893b      	ldrh	r3, [r7, #8]
 8001f74:	429a      	cmp	r2, r3
 8001f76:	d83b      	bhi.n	8001ff0 <u8g2_DrawHVLine+0xfe>
					return;
				if (y >= u8g2->user_y1)
 8001f78:	68fb      	ldr	r3, [r7, #12]
 8001f7a:	f8b3 204e 	ldrh.w	r2, [r3, #78]	@ 0x4e
 8001f7e:	893b      	ldrh	r3, [r7, #8]
 8001f80:	429a      	cmp	r2, r3
 8001f82:	d937      	bls.n	8001ff4 <u8g2_DrawHVLine+0x102>
					return;
				if (u8g2_clip_intersection2(&x, &len, u8g2->user_x0,
 8001f84:	68fb      	ldr	r3, [r7, #12]
 8001f86:	f8b3 2048 	ldrh.w	r2, [r3, #72]	@ 0x48
 8001f8a:	68fb      	ldr	r3, [r7, #12]
 8001f8c:	f8b3 304a 	ldrh.w	r3, [r3, #74]	@ 0x4a
 8001f90:	1db9      	adds	r1, r7, #6
 8001f92:	f107 000a 	add.w	r0, r7, #10
 8001f96:	f7ff ff3d 	bl	8001e14 <u8g2_clip_intersection2>
 8001f9a:	4603      	mov	r3, r0
 8001f9c:	2b00      	cmp	r3, #0
 8001f9e:	d11a      	bne.n	8001fd6 <u8g2_DrawHVLine+0xe4>
						u8g2->user_x1) == 0)
					return;
 8001fa0:	e02f      	b.n	8002002 <u8g2_DrawHVLine+0x110>
			} else {
				if (x < u8g2->user_x0)
 8001fa2:	68fb      	ldr	r3, [r7, #12]
 8001fa4:	f8b3 2048 	ldrh.w	r2, [r3, #72]	@ 0x48
 8001fa8:	897b      	ldrh	r3, [r7, #10]
 8001faa:	429a      	cmp	r2, r3
 8001fac:	d824      	bhi.n	8001ff8 <u8g2_DrawHVLine+0x106>
					return;
				if (x >= u8g2->user_x1)
 8001fae:	68fb      	ldr	r3, [r7, #12]
 8001fb0:	f8b3 204a 	ldrh.w	r2, [r3, #74]	@ 0x4a
 8001fb4:	897b      	ldrh	r3, [r7, #10]
 8001fb6:	429a      	cmp	r2, r3
 8001fb8:	d920      	bls.n	8001ffc <u8g2_DrawHVLine+0x10a>
					return;
				if (u8g2_clip_intersection2(&y, &len, u8g2->user_y0,
 8001fba:	68fb      	ldr	r3, [r7, #12]
 8001fbc:	f8b3 204c 	ldrh.w	r2, [r3, #76]	@ 0x4c
 8001fc0:	68fb      	ldr	r3, [r7, #12]
 8001fc2:	f8b3 304e 	ldrh.w	r3, [r3, #78]	@ 0x4e
 8001fc6:	1db9      	adds	r1, r7, #6
 8001fc8:	f107 0008 	add.w	r0, r7, #8
 8001fcc:	f7ff ff22 	bl	8001e14 <u8g2_clip_intersection2>
 8001fd0:	4603      	mov	r3, r0
 8001fd2:	2b00      	cmp	r3, #0
 8001fd4:	d014      	beq.n	8002000 <u8g2_DrawHVLine+0x10e>
						u8g2->user_y1) == 0)
					return;
			}

			u8g2->cb->draw_l90(u8g2, x, y, len, dir);
 8001fd6:	68fb      	ldr	r3, [r7, #12]
 8001fd8:	6b1b      	ldr	r3, [r3, #48]	@ 0x30
 8001fda:	689c      	ldr	r4, [r3, #8]
 8001fdc:	8979      	ldrh	r1, [r7, #10]
 8001fde:	893a      	ldrh	r2, [r7, #8]
 8001fe0:	88f8      	ldrh	r0, [r7, #6]
 8001fe2:	f897 3020 	ldrb.w	r3, [r7, #32]
 8001fe6:	9300      	str	r3, [sp, #0]
 8001fe8:	4603      	mov	r3, r0
 8001fea:	68f8      	ldr	r0, [r7, #12]
 8001fec:	47a0      	blx	r4
 8001fee:	e008      	b.n	8002002 <u8g2_DrawHVLine+0x110>
					return;
 8001ff0:	bf00      	nop
 8001ff2:	e006      	b.n	8002002 <u8g2_DrawHVLine+0x110>
					return;
 8001ff4:	bf00      	nop
 8001ff6:	e004      	b.n	8002002 <u8g2_DrawHVLine+0x110>
					return;
 8001ff8:	bf00      	nop
 8001ffa:	e002      	b.n	8002002 <u8g2_DrawHVLine+0x110>
					return;
 8001ffc:	bf00      	nop
 8001ffe:	e000      	b.n	8002002 <u8g2_DrawHVLine+0x110>
					return;
 8002000:	bf00      	nop
		}
}
 8002002:	3714      	adds	r7, #20
 8002004:	46bd      	mov	sp, r7
 8002006:	bd90      	pop	{r4, r7, pc}

08002008 <u8g2_is_intersection_decision_tree>:
  version with asymetric boundaries.
  a1 and v1 are excluded
  v0 == v1 is not support end return 1
*/
uint8_t u8g2_is_intersection_decision_tree(u8g2_uint_t a0, u8g2_uint_t a1, u8g2_uint_t v0, u8g2_uint_t v1)
{
 8002008:	b490      	push	{r4, r7}
 800200a:	b082      	sub	sp, #8
 800200c:	af00      	add	r7, sp, #0
 800200e:	4604      	mov	r4, r0
 8002010:	4608      	mov	r0, r1
 8002012:	4611      	mov	r1, r2
 8002014:	461a      	mov	r2, r3
 8002016:	4623      	mov	r3, r4
 8002018:	80fb      	strh	r3, [r7, #6]
 800201a:	4603      	mov	r3, r0
 800201c:	80bb      	strh	r3, [r7, #4]
 800201e:	460b      	mov	r3, r1
 8002020:	807b      	strh	r3, [r7, #2]
 8002022:	4613      	mov	r3, r2
 8002024:	803b      	strh	r3, [r7, #0]
  if ( v0 < a1 )		// v0 <= a1
 8002026:	887a      	ldrh	r2, [r7, #2]
 8002028:	88bb      	ldrh	r3, [r7, #4]
 800202a:	429a      	cmp	r2, r3
 800202c:	d20d      	bcs.n	800204a <u8g2_is_intersection_decision_tree+0x42>
  {
    if ( v1 > a0 )	// v1 >= a0
 800202e:	883a      	ldrh	r2, [r7, #0]
 8002030:	88fb      	ldrh	r3, [r7, #6]
 8002032:	429a      	cmp	r2, r3
 8002034:	d901      	bls.n	800203a <u8g2_is_intersection_decision_tree+0x32>
    {
      return 1;
 8002036:	2301      	movs	r3, #1
 8002038:	e014      	b.n	8002064 <u8g2_is_intersection_decision_tree+0x5c>
    }
    else
    {
      if ( v0 > v1 )	// v0 > v1
 800203a:	887a      	ldrh	r2, [r7, #2]
 800203c:	883b      	ldrh	r3, [r7, #0]
 800203e:	429a      	cmp	r2, r3
 8002040:	d901      	bls.n	8002046 <u8g2_is_intersection_decision_tree+0x3e>
      {
	return 1;
 8002042:	2301      	movs	r3, #1
 8002044:	e00e      	b.n	8002064 <u8g2_is_intersection_decision_tree+0x5c>
      }
      else
      {
	return 0;
 8002046:	2300      	movs	r3, #0
 8002048:	e00c      	b.n	8002064 <u8g2_is_intersection_decision_tree+0x5c>
      }
    }
  }
  else
  {
    if ( v1 > a0 )	// v1 >= a0
 800204a:	883a      	ldrh	r2, [r7, #0]
 800204c:	88fb      	ldrh	r3, [r7, #6]
 800204e:	429a      	cmp	r2, r3
 8002050:	d907      	bls.n	8002062 <u8g2_is_intersection_decision_tree+0x5a>
    {
      if ( v0 > v1 )	// v0 > v1
 8002052:	887a      	ldrh	r2, [r7, #2]
 8002054:	883b      	ldrh	r3, [r7, #0]
 8002056:	429a      	cmp	r2, r3
 8002058:	d901      	bls.n	800205e <u8g2_is_intersection_decision_tree+0x56>
      {
	return 1;
 800205a:	2301      	movs	r3, #1
 800205c:	e002      	b.n	8002064 <u8g2_is_intersection_decision_tree+0x5c>
      }
      else
      {
	return 0;
 800205e:	2300      	movs	r3, #0
 8002060:	e000      	b.n	8002064 <u8g2_is_intersection_decision_tree+0x5c>
      }
    }
    else
    {
      return 0;
 8002062:	2300      	movs	r3, #0
    }
  }
}
 8002064:	4618      	mov	r0, r3
 8002066:	3708      	adds	r7, #8
 8002068:	46bd      	mov	sp, r7
 800206a:	bc90      	pop	{r4, r7}
 800206c:	4770      	bx	lr

0800206e <u8g2_IsIntersection>:



/* upper limits are not included (asymetric boundaries) */
uint8_t u8g2_IsIntersection(u8g2_t *u8g2, u8g2_uint_t x0, u8g2_uint_t y0, u8g2_uint_t x1, u8g2_uint_t y1)
{
 800206e:	b580      	push	{r7, lr}
 8002070:	b084      	sub	sp, #16
 8002072:	af00      	add	r7, sp, #0
 8002074:	60f8      	str	r0, [r7, #12]
 8002076:	4608      	mov	r0, r1
 8002078:	4611      	mov	r1, r2
 800207a:	461a      	mov	r2, r3
 800207c:	4603      	mov	r3, r0
 800207e:	817b      	strh	r3, [r7, #10]
 8002080:	460b      	mov	r3, r1
 8002082:	813b      	strh	r3, [r7, #8]
 8002084:	4613      	mov	r3, r2
 8002086:	80fb      	strh	r3, [r7, #6]
  if ( u8g2_is_intersection_decision_tree(u8g2->user_y0, u8g2->user_y1, y0, y1) == 0 )
 8002088:	68fb      	ldr	r3, [r7, #12]
 800208a:	f8b3 004c 	ldrh.w	r0, [r3, #76]	@ 0x4c
 800208e:	68fb      	ldr	r3, [r7, #12]
 8002090:	f8b3 104e 	ldrh.w	r1, [r3, #78]	@ 0x4e
 8002094:	8b3b      	ldrh	r3, [r7, #24]
 8002096:	893a      	ldrh	r2, [r7, #8]
 8002098:	f7ff ffb6 	bl	8002008 <u8g2_is_intersection_decision_tree>
 800209c:	4603      	mov	r3, r0
 800209e:	2b00      	cmp	r3, #0
 80020a0:	d101      	bne.n	80020a6 <u8g2_IsIntersection+0x38>
    return 0; 
 80020a2:	2300      	movs	r3, #0
 80020a4:	e00a      	b.n	80020bc <u8g2_IsIntersection+0x4e>
  
  return u8g2_is_intersection_decision_tree(u8g2->user_x0, u8g2->user_x1, x0, x1);
 80020a6:	68fb      	ldr	r3, [r7, #12]
 80020a8:	f8b3 0048 	ldrh.w	r0, [r3, #72]	@ 0x48
 80020ac:	68fb      	ldr	r3, [r7, #12]
 80020ae:	f8b3 104a 	ldrh.w	r1, [r3, #74]	@ 0x4a
 80020b2:	88fb      	ldrh	r3, [r7, #6]
 80020b4:	897a      	ldrh	r2, [r7, #10]
 80020b6:	f7ff ffa7 	bl	8002008 <u8g2_is_intersection_decision_tree>
 80020ba:	4603      	mov	r3, r0
}
 80020bc:	4618      	mov	r0, r3
 80020be:	3710      	adds	r7, #16
 80020c0:	46bd      	mov	sp, r7
 80020c2:	bd80      	pop	{r7, pc}

080020c4 <u8g2_ll_hvline_vertical_top_lsb>:
		1: vertical line (top to bottom)
  asumption: 
    all clipping done
*/
void u8g2_ll_hvline_vertical_top_lsb(u8g2_t *u8g2, u8g2_uint_t x, u8g2_uint_t y, u8g2_uint_t len, uint8_t dir)
{
 80020c4:	b480      	push	{r7}
 80020c6:	b089      	sub	sp, #36	@ 0x24
 80020c8:	af00      	add	r7, sp, #0
 80020ca:	60f8      	str	r0, [r7, #12]
 80020cc:	4608      	mov	r0, r1
 80020ce:	4611      	mov	r1, r2
 80020d0:	461a      	mov	r2, r3
 80020d2:	4603      	mov	r3, r0
 80020d4:	817b      	strh	r3, [r7, #10]
 80020d6:	460b      	mov	r3, r1
 80020d8:	813b      	strh	r3, [r7, #8]
 80020da:	4613      	mov	r3, r2
 80020dc:	80fb      	strh	r3, [r7, #6]
  //assert(x < u8g2_GetU8x8(u8g2)->display_info->tile_width*8);
  //assert(y >= u8g2->buf_y0);
  //assert(y < u8g2_GetU8x8(u8g2)->display_info->tile_height*8);
  
  /* bytes are vertical, lsb on top (y=0), msb at bottom (y=7) */
  bit_pos = y;		/* overflow truncate is ok here... */
 80020de:	893b      	ldrh	r3, [r7, #8]
 80020e0:	76fb      	strb	r3, [r7, #27]
  bit_pos &= 7; 	/* ... because only the lowest 3 bits are needed */
 80020e2:	7efb      	ldrb	r3, [r7, #27]
 80020e4:	f003 0307 	and.w	r3, r3, #7
 80020e8:	76fb      	strb	r3, [r7, #27]
  mask = 1;
 80020ea:	2301      	movs	r3, #1
 80020ec:	763b      	strb	r3, [r7, #24]
  mask <<= bit_pos;
 80020ee:	7e3a      	ldrb	r2, [r7, #24]
 80020f0:	7efb      	ldrb	r3, [r7, #27]
 80020f2:	fa02 f303 	lsl.w	r3, r2, r3
 80020f6:	763b      	strb	r3, [r7, #24]

  or_mask = 0;
 80020f8:	2300      	movs	r3, #0
 80020fa:	76bb      	strb	r3, [r7, #26]
  xor_mask = 0;
 80020fc:	2300      	movs	r3, #0
 80020fe:	767b      	strb	r3, [r7, #25]
  if ( u8g2->draw_color <= 1 )
 8002100:	68fb      	ldr	r3, [r7, #12]
 8002102:	f893 3092 	ldrb.w	r3, [r3, #146]	@ 0x92
 8002106:	2b01      	cmp	r3, #1
 8002108:	d801      	bhi.n	800210e <u8g2_ll_hvline_vertical_top_lsb+0x4a>
    or_mask  = mask;
 800210a:	7e3b      	ldrb	r3, [r7, #24]
 800210c:	76bb      	strb	r3, [r7, #26]
  if ( u8g2->draw_color != 1 )
 800210e:	68fb      	ldr	r3, [r7, #12]
 8002110:	f893 3092 	ldrb.w	r3, [r3, #146]	@ 0x92
 8002114:	2b01      	cmp	r3, #1
 8002116:	d001      	beq.n	800211c <u8g2_ll_hvline_vertical_top_lsb+0x58>
    xor_mask = mask;
 8002118:	7e3b      	ldrb	r3, [r7, #24]
 800211a:	767b      	strb	r3, [r7, #25]


  offset = y;		/* y might be 8 or 16 bit, but we need 16 bit, so use a 16 bit variable */
 800211c:	893b      	ldrh	r3, [r7, #8]
 800211e:	82fb      	strh	r3, [r7, #22]
  offset &= ~7;
 8002120:	8afb      	ldrh	r3, [r7, #22]
 8002122:	f023 0307 	bic.w	r3, r3, #7
 8002126:	82fb      	strh	r3, [r7, #22]
  offset *= u8g2_GetU8x8(u8g2)->display_info->tile_width;
 8002128:	68fb      	ldr	r3, [r7, #12]
 800212a:	681b      	ldr	r3, [r3, #0]
 800212c:	7c1b      	ldrb	r3, [r3, #16]
 800212e:	461a      	mov	r2, r3
 8002130:	8afb      	ldrh	r3, [r7, #22]
 8002132:	fb13 f302 	smulbb	r3, r3, r2
 8002136:	82fb      	strh	r3, [r7, #22]
  ptr = u8g2->tile_buf_ptr;
 8002138:	68fb      	ldr	r3, [r7, #12]
 800213a:	6b5b      	ldr	r3, [r3, #52]	@ 0x34
 800213c:	61fb      	str	r3, [r7, #28]
  ptr += offset;
 800213e:	8afb      	ldrh	r3, [r7, #22]
 8002140:	69fa      	ldr	r2, [r7, #28]
 8002142:	4413      	add	r3, r2
 8002144:	61fb      	str	r3, [r7, #28]
  ptr += x;
 8002146:	897b      	ldrh	r3, [r7, #10]
 8002148:	69fa      	ldr	r2, [r7, #28]
 800214a:	4413      	add	r3, r2
 800214c:	61fb      	str	r3, [r7, #28]
  
  if ( dir == 0 )
 800214e:	f897 3028 	ldrb.w	r3, [r7, #40]	@ 0x28
 8002152:	2b00      	cmp	r3, #0
 8002154:	d117      	bne.n	8002186 <u8g2_ll_hvline_vertical_top_lsb+0xc2>
      do
      {
#ifdef __unix
	assert(ptr < max_ptr);
#endif
	*ptr |= or_mask;
 8002156:	69fb      	ldr	r3, [r7, #28]
 8002158:	781a      	ldrb	r2, [r3, #0]
 800215a:	7ebb      	ldrb	r3, [r7, #26]
 800215c:	4313      	orrs	r3, r2
 800215e:	b2da      	uxtb	r2, r3
 8002160:	69fb      	ldr	r3, [r7, #28]
 8002162:	701a      	strb	r2, [r3, #0]
	*ptr ^= xor_mask;
 8002164:	69fb      	ldr	r3, [r7, #28]
 8002166:	781a      	ldrb	r2, [r3, #0]
 8002168:	7e7b      	ldrb	r3, [r7, #25]
 800216a:	4053      	eors	r3, r2
 800216c:	b2da      	uxtb	r2, r3
 800216e:	69fb      	ldr	r3, [r7, #28]
 8002170:	701a      	strb	r2, [r3, #0]
	ptr++;
 8002172:	69fb      	ldr	r3, [r7, #28]
 8002174:	3301      	adds	r3, #1
 8002176:	61fb      	str	r3, [r7, #28]
	len--;
 8002178:	88fb      	ldrh	r3, [r7, #6]
 800217a:	3b01      	subs	r3, #1
 800217c:	80fb      	strh	r3, [r7, #6]
      } while( len != 0 );
 800217e:	88fb      	ldrh	r3, [r7, #6]
 8002180:	2b00      	cmp	r3, #0
 8002182:	d1e8      	bne.n	8002156 <u8g2_ll_hvline_vertical_top_lsb+0x92>
	or_mask <<= 1;
	xor_mask <<= 1;
      }
    } while( len != 0 );
  }
}
 8002184:	e038      	b.n	80021f8 <u8g2_ll_hvline_vertical_top_lsb+0x134>
      *ptr |= or_mask;
 8002186:	69fb      	ldr	r3, [r7, #28]
 8002188:	781a      	ldrb	r2, [r3, #0]
 800218a:	7ebb      	ldrb	r3, [r7, #26]
 800218c:	4313      	orrs	r3, r2
 800218e:	b2da      	uxtb	r2, r3
 8002190:	69fb      	ldr	r3, [r7, #28]
 8002192:	701a      	strb	r2, [r3, #0]
      *ptr ^= xor_mask;
 8002194:	69fb      	ldr	r3, [r7, #28]
 8002196:	781a      	ldrb	r2, [r3, #0]
 8002198:	7e7b      	ldrb	r3, [r7, #25]
 800219a:	4053      	eors	r3, r2
 800219c:	b2da      	uxtb	r2, r3
 800219e:	69fb      	ldr	r3, [r7, #28]
 80021a0:	701a      	strb	r2, [r3, #0]
      bit_pos++;
 80021a2:	7efb      	ldrb	r3, [r7, #27]
 80021a4:	3301      	adds	r3, #1
 80021a6:	76fb      	strb	r3, [r7, #27]
      bit_pos &= 7;
 80021a8:	7efb      	ldrb	r3, [r7, #27]
 80021aa:	f003 0307 	and.w	r3, r3, #7
 80021ae:	76fb      	strb	r3, [r7, #27]
      len--;
 80021b0:	88fb      	ldrh	r3, [r7, #6]
 80021b2:	3b01      	subs	r3, #1
 80021b4:	80fb      	strh	r3, [r7, #6]
      if ( bit_pos == 0 )
 80021b6:	7efb      	ldrb	r3, [r7, #27]
 80021b8:	2b00      	cmp	r3, #0
 80021ba:	d114      	bne.n	80021e6 <u8g2_ll_hvline_vertical_top_lsb+0x122>
	ptr+=u8g2->pixel_buf_width;	/* 6 Jan 17: Changed u8g2->width to u8g2->pixel_buf_width, issue #148 */
 80021bc:	68fb      	ldr	r3, [r7, #12]
 80021be:	8f5b      	ldrh	r3, [r3, #58]	@ 0x3a
 80021c0:	461a      	mov	r2, r3
 80021c2:	69fb      	ldr	r3, [r7, #28]
 80021c4:	4413      	add	r3, r2
 80021c6:	61fb      	str	r3, [r7, #28]
	if ( u8g2->draw_color <= 1 )
 80021c8:	68fb      	ldr	r3, [r7, #12]
 80021ca:	f893 3092 	ldrb.w	r3, [r3, #146]	@ 0x92
 80021ce:	2b01      	cmp	r3, #1
 80021d0:	d801      	bhi.n	80021d6 <u8g2_ll_hvline_vertical_top_lsb+0x112>
	  or_mask  = 1;
 80021d2:	2301      	movs	r3, #1
 80021d4:	76bb      	strb	r3, [r7, #26]
	if ( u8g2->draw_color != 1 )
 80021d6:	68fb      	ldr	r3, [r7, #12]
 80021d8:	f893 3092 	ldrb.w	r3, [r3, #146]	@ 0x92
 80021dc:	2b01      	cmp	r3, #1
 80021de:	d008      	beq.n	80021f2 <u8g2_ll_hvline_vertical_top_lsb+0x12e>
	  xor_mask = 1;
 80021e0:	2301      	movs	r3, #1
 80021e2:	767b      	strb	r3, [r7, #25]
 80021e4:	e005      	b.n	80021f2 <u8g2_ll_hvline_vertical_top_lsb+0x12e>
	or_mask <<= 1;
 80021e6:	7ebb      	ldrb	r3, [r7, #26]
 80021e8:	005b      	lsls	r3, r3, #1
 80021ea:	76bb      	strb	r3, [r7, #26]
	xor_mask <<= 1;
 80021ec:	7e7b      	ldrb	r3, [r7, #25]
 80021ee:	005b      	lsls	r3, r3, #1
 80021f0:	767b      	strb	r3, [r7, #25]
    } while( len != 0 );
 80021f2:	88fb      	ldrh	r3, [r7, #6]
 80021f4:	2b00      	cmp	r3, #0
 80021f6:	d1c6      	bne.n	8002186 <u8g2_ll_hvline_vertical_top_lsb+0xc2>
}
 80021f8:	bf00      	nop
 80021fa:	3724      	adds	r7, #36	@ 0x24
 80021fc:	46bd      	mov	sp, r7
 80021fe:	f85d 7b04 	ldr.w	r7, [sp], #4
 8002202:	4770      	bx	lr

08002204 <u8g2_SetMaxClipWindow>:


#ifdef U8G2_WITH_CLIP_WINDOW_SUPPORT

void u8g2_SetMaxClipWindow(u8g2_t *u8g2)
{
 8002204:	b580      	push	{r7, lr}
 8002206:	b082      	sub	sp, #8
 8002208:	af00      	add	r7, sp, #0
 800220a:	6078      	str	r0, [r7, #4]
  u8g2->clip_x0 = 0;
 800220c:	687b      	ldr	r3, [r7, #4]
 800220e:	2200      	movs	r2, #0
 8002210:	f8a3 2050 	strh.w	r2, [r3, #80]	@ 0x50
  u8g2->clip_y0 = 0;
 8002214:	687b      	ldr	r3, [r7, #4]
 8002216:	2200      	movs	r2, #0
 8002218:	f8a3 2054 	strh.w	r2, [r3, #84]	@ 0x54
  u8g2->clip_x1 = (u8g2_uint_t)~(u8g2_uint_t)0;
 800221c:	687b      	ldr	r3, [r7, #4]
 800221e:	f64f 72ff 	movw	r2, #65535	@ 0xffff
 8002222:	f8a3 2052 	strh.w	r2, [r3, #82]	@ 0x52
  u8g2->clip_y1 = (u8g2_uint_t)~(u8g2_uint_t)0;
 8002226:	687b      	ldr	r3, [r7, #4]
 8002228:	f64f 72ff 	movw	r2, #65535	@ 0xffff
 800222c:	f8a3 2056 	strh.w	r2, [r3, #86]	@ 0x56
  
  u8g2->cb->update_page_win(u8g2);
 8002230:	687b      	ldr	r3, [r7, #4]
 8002232:	6b1b      	ldr	r3, [r3, #48]	@ 0x30
 8002234:	685b      	ldr	r3, [r3, #4]
 8002236:	6878      	ldr	r0, [r7, #4]
 8002238:	4798      	blx	r3
}
 800223a:	bf00      	nop
 800223c:	3708      	adds	r7, #8
 800223e:	46bd      	mov	sp, r7
 8002240:	bd80      	pop	{r7, pc}

08002242 <u8g2_SetupBuffer>:
/*
  This procedure is called after setting up the display (u8x8 structure).
  --> This is the central init procedure for u8g2 object
*/
void u8g2_SetupBuffer(u8g2_t *u8g2, uint8_t *buf, uint8_t tile_buf_height, u8g2_draw_ll_hvline_cb ll_hvline_cb, const u8g2_cb_t *u8g2_cb)
{
 8002242:	b580      	push	{r7, lr}
 8002244:	b084      	sub	sp, #16
 8002246:	af00      	add	r7, sp, #0
 8002248:	60f8      	str	r0, [r7, #12]
 800224a:	60b9      	str	r1, [r7, #8]
 800224c:	603b      	str	r3, [r7, #0]
 800224e:	4613      	mov	r3, r2
 8002250:	71fb      	strb	r3, [r7, #7]
  u8g2->font = NULL;
 8002252:	68fb      	ldr	r3, [r7, #12]
 8002254:	2200      	movs	r2, #0
 8002256:	659a      	str	r2, [r3, #88]	@ 0x58
  //u8g2->kerning = NULL;
  //u8g2->get_kerning_cb = u8g2_GetNullKerning;
  
  //u8g2->ll_hvline = u8g2_ll_hvline_vertical_top_lsb;
  u8g2->ll_hvline = ll_hvline_cb;
 8002258:	68fb      	ldr	r3, [r7, #12]
 800225a:	683a      	ldr	r2, [r7, #0]
 800225c:	62da      	str	r2, [r3, #44]	@ 0x2c
  
  u8g2->tile_buf_ptr = buf;
 800225e:	68fb      	ldr	r3, [r7, #12]
 8002260:	68ba      	ldr	r2, [r7, #8]
 8002262:	635a      	str	r2, [r3, #52]	@ 0x34
  u8g2->tile_buf_height = tile_buf_height;
 8002264:	68fb      	ldr	r3, [r7, #12]
 8002266:	79fa      	ldrb	r2, [r7, #7]
 8002268:	f883 2038 	strb.w	r2, [r3, #56]	@ 0x38
  
  u8g2->tile_curr_row = 0;
 800226c:	68fb      	ldr	r3, [r7, #12]
 800226e:	2200      	movs	r2, #0
 8002270:	f883 2039 	strb.w	r2, [r3, #57]	@ 0x39
  
  u8g2->font_decode.is_transparent = 0; /* issue 443 */
 8002274:	68fb      	ldr	r3, [r7, #12]
 8002276:	2200      	movs	r2, #0
 8002278:	f883 206d 	strb.w	r2, [r3, #109]	@ 0x6d
  u8g2->bitmap_transparency = 0;
 800227c:	68fb      	ldr	r3, [r7, #12]
 800227e:	2200      	movs	r2, #0
 8002280:	f883 2091 	strb.w	r2, [r3, #145]	@ 0x91
  
  u8g2->font_height_mode = 0; /* issue 2046 */
 8002284:	68fb      	ldr	r3, [r7, #12]
 8002286:	2200      	movs	r2, #0
 8002288:	f883 208d 	strb.w	r2, [r3, #141]	@ 0x8d
  u8g2->draw_color = 1;
 800228c:	68fb      	ldr	r3, [r7, #12]
 800228e:	2201      	movs	r2, #1
 8002290:	f883 2092 	strb.w	r2, [r3, #146]	@ 0x92
  u8g2->is_auto_page_clear = 1;
 8002294:	68fb      	ldr	r3, [r7, #12]
 8002296:	2201      	movs	r2, #1
 8002298:	f883 2093 	strb.w	r2, [r3, #147]	@ 0x93
  
  u8g2->cb = u8g2_cb;
 800229c:	68fb      	ldr	r3, [r7, #12]
 800229e:	69ba      	ldr	r2, [r7, #24]
 80022a0:	631a      	str	r2, [r3, #48]	@ 0x30
  u8g2->cb->update_dimension(u8g2);
 80022a2:	68fb      	ldr	r3, [r7, #12]
 80022a4:	6b1b      	ldr	r3, [r3, #48]	@ 0x30
 80022a6:	681b      	ldr	r3, [r3, #0]
 80022a8:	68f8      	ldr	r0, [r7, #12]
 80022aa:	4798      	blx	r3
#ifdef U8G2_WITH_CLIP_WINDOW_SUPPORT
  u8g2_SetMaxClipWindow(u8g2);		/* assign a clip window and call the update() procedure */
 80022ac:	68f8      	ldr	r0, [r7, #12]
 80022ae:	f7ff ffa9 	bl	8002204 <u8g2_SetMaxClipWindow>
#else
  u8g2->cb->update_page_win(u8g2);
#endif

  u8g2_SetFontPosBaseline(u8g2);  /* issue 195 */
 80022b2:	68f8      	ldr	r0, [r7, #12]
 80022b4:	f7ff fd84 	bl	8001dc0 <u8g2_SetFontPosBaseline>
  
#ifdef U8G2_WITH_FONT_ROTATION  
  u8g2->font_decode.dir = 0;
 80022b8:	68fb      	ldr	r3, [r7, #12]
 80022ba:	2200      	movs	r2, #0
 80022bc:	f883 2070 	strb.w	r2, [r3, #112]	@ 0x70
#endif
}
 80022c0:	bf00      	nop
 80022c2:	3710      	adds	r7, #16
 80022c4:	46bd      	mov	sp, r7
 80022c6:	bd80      	pop	{r7, pc}

080022c8 <u8g2_update_dimension_common>:
    u8g2_uint_t buf_y0;
    u8g2_uint_t buf_y1; 	
*/

static void u8g2_update_dimension_common(u8g2_t *u8g2)
{
 80022c8:	b480      	push	{r7}
 80022ca:	b085      	sub	sp, #20
 80022cc:	af00      	add	r7, sp, #0
 80022ce:	6078      	str	r0, [r7, #4]
  const u8x8_display_info_t *display_info = u8g2_GetU8x8(u8g2)->display_info;
 80022d0:	687b      	ldr	r3, [r7, #4]
 80022d2:	681b      	ldr	r3, [r3, #0]
 80022d4:	60bb      	str	r3, [r7, #8]
  u8g2_uint_t t;
  
  t = u8g2->tile_buf_height;
 80022d6:	687b      	ldr	r3, [r7, #4]
 80022d8:	f893 3038 	ldrb.w	r3, [r3, #56]	@ 0x38
 80022dc:	81fb      	strh	r3, [r7, #14]
  t *= 8;
 80022de:	89fb      	ldrh	r3, [r7, #14]
 80022e0:	00db      	lsls	r3, r3, #3
 80022e2:	81fb      	strh	r3, [r7, #14]
  u8g2->pixel_buf_height = t;
 80022e4:	687b      	ldr	r3, [r7, #4]
 80022e6:	89fa      	ldrh	r2, [r7, #14]
 80022e8:	879a      	strh	r2, [r3, #60]	@ 0x3c
  
  t = display_info->tile_width;
 80022ea:	68bb      	ldr	r3, [r7, #8]
 80022ec:	7c1b      	ldrb	r3, [r3, #16]
 80022ee:	81fb      	strh	r3, [r7, #14]
#ifndef U8G2_16BIT
  if ( t >= 32 )
    t = 31;
#endif
  t *= 8;
 80022f0:	89fb      	ldrh	r3, [r7, #14]
 80022f2:	00db      	lsls	r3, r3, #3
 80022f4:	81fb      	strh	r3, [r7, #14]
  u8g2->pixel_buf_width = t;
 80022f6:	687b      	ldr	r3, [r7, #4]
 80022f8:	89fa      	ldrh	r2, [r7, #14]
 80022fa:	875a      	strh	r2, [r3, #58]	@ 0x3a
  
  t = u8g2->tile_curr_row;
 80022fc:	687b      	ldr	r3, [r7, #4]
 80022fe:	f893 3039 	ldrb.w	r3, [r3, #57]	@ 0x39
 8002302:	81fb      	strh	r3, [r7, #14]
  t *= 8;
 8002304:	89fb      	ldrh	r3, [r7, #14]
 8002306:	00db      	lsls	r3, r3, #3
 8002308:	81fb      	strh	r3, [r7, #14]
  u8g2->pixel_curr_row = t;
 800230a:	687b      	ldr	r3, [r7, #4]
 800230c:	89fa      	ldrh	r2, [r7, #14]
 800230e:	87da      	strh	r2, [r3, #62]	@ 0x3e
  
  t = u8g2->tile_buf_height;
 8002310:	687b      	ldr	r3, [r7, #4]
 8002312:	f893 3038 	ldrb.w	r3, [r3, #56]	@ 0x38
 8002316:	81fb      	strh	r3, [r7, #14]
  /* handle the case, where the buffer is larger than the (remaining) part of the display */
  if ( t + u8g2->tile_curr_row > display_info->tile_height )
 8002318:	89fb      	ldrh	r3, [r7, #14]
 800231a:	687a      	ldr	r2, [r7, #4]
 800231c:	f892 2039 	ldrb.w	r2, [r2, #57]	@ 0x39
 8002320:	4413      	add	r3, r2
 8002322:	68ba      	ldr	r2, [r7, #8]
 8002324:	7c52      	ldrb	r2, [r2, #17]
 8002326:	4293      	cmp	r3, r2
 8002328:	dd07      	ble.n	800233a <u8g2_update_dimension_common+0x72>
    t = display_info->tile_height - u8g2->tile_curr_row;
 800232a:	68bb      	ldr	r3, [r7, #8]
 800232c:	7c5b      	ldrb	r3, [r3, #17]
 800232e:	461a      	mov	r2, r3
 8002330:	687b      	ldr	r3, [r7, #4]
 8002332:	f893 3039 	ldrb.w	r3, [r3, #57]	@ 0x39
 8002336:	1ad3      	subs	r3, r2, r3
 8002338:	81fb      	strh	r3, [r7, #14]
  t *= 8;
 800233a:	89fb      	ldrh	r3, [r7, #14]
 800233c:	00db      	lsls	r3, r3, #3
 800233e:	81fb      	strh	r3, [r7, #14]
  
  u8g2->buf_y0 = u8g2->pixel_curr_row;   
 8002340:	687b      	ldr	r3, [r7, #4]
 8002342:	8fda      	ldrh	r2, [r3, #62]	@ 0x3e
 8002344:	687b      	ldr	r3, [r7, #4]
 8002346:	f8a3 2040 	strh.w	r2, [r3, #64]	@ 0x40
  u8g2->buf_y1 = u8g2->buf_y0;
 800234a:	687b      	ldr	r3, [r7, #4]
 800234c:	f8b3 2040 	ldrh.w	r2, [r3, #64]	@ 0x40
 8002350:	687b      	ldr	r3, [r7, #4]
 8002352:	f8a3 2042 	strh.w	r2, [r3, #66]	@ 0x42
  u8g2->buf_y1 += t;
 8002356:	687b      	ldr	r3, [r7, #4]
 8002358:	f8b3 2042 	ldrh.w	r2, [r3, #66]	@ 0x42
 800235c:	89fb      	ldrh	r3, [r7, #14]
 800235e:	4413      	add	r3, r2
 8002360:	b29a      	uxth	r2, r3
 8002362:	687b      	ldr	r3, [r7, #4]
 8002364:	f8a3 2042 	strh.w	r2, [r3, #66]	@ 0x42

  
#ifdef U8G2_16BIT
  u8g2->width = display_info->pixel_width;
 8002368:	68bb      	ldr	r3, [r7, #8]
 800236a:	8a9a      	ldrh	r2, [r3, #20]
 800236c:	687b      	ldr	r3, [r7, #4]
 800236e:	f8a3 2044 	strh.w	r2, [r3, #68]	@ 0x44
  u8g2->height = display_info->pixel_height;
 8002372:	68bb      	ldr	r3, [r7, #8]
 8002374:	8ada      	ldrh	r2, [r3, #22]
 8002376:	687b      	ldr	r3, [r7, #4]
 8002378:	f8a3 2046 	strh.w	r2, [r3, #70]	@ 0x46
  if ( display_info->pixel_width <= 240 )
    u8g2->width = display_info->pixel_width;
  u8g2->height = display_info->pixel_height;
#endif

}
 800237c:	bf00      	nop
 800237e:	3714      	adds	r7, #20
 8002380:	46bd      	mov	sp, r7
 8002382:	f85d 7b04 	ldr.w	r7, [sp], #4
 8002386:	4770      	bx	lr

08002388 <u8g2_apply_clip_window>:
/*==========================================================*/
/* apply clip window */

#ifdef U8G2_WITH_CLIP_WINDOW_SUPPORT
static void u8g2_apply_clip_window(u8g2_t *u8g2)
{
 8002388:	b580      	push	{r7, lr}
 800238a:	b084      	sub	sp, #16
 800238c:	af02      	add	r7, sp, #8
 800238e:	6078      	str	r0, [r7, #4]
  /* check aganst the current user_??? window */
  if ( u8g2_IsIntersection(u8g2, u8g2->clip_x0, u8g2->clip_y0, u8g2->clip_x1, u8g2->clip_y1) == 0 ) 
 8002390:	687b      	ldr	r3, [r7, #4]
 8002392:	f8b3 1050 	ldrh.w	r1, [r3, #80]	@ 0x50
 8002396:	687b      	ldr	r3, [r7, #4]
 8002398:	f8b3 2054 	ldrh.w	r2, [r3, #84]	@ 0x54
 800239c:	687b      	ldr	r3, [r7, #4]
 800239e:	f8b3 0052 	ldrh.w	r0, [r3, #82]	@ 0x52
 80023a2:	687b      	ldr	r3, [r7, #4]
 80023a4:	f8b3 3056 	ldrh.w	r3, [r3, #86]	@ 0x56
 80023a8:	9300      	str	r3, [sp, #0]
 80023aa:	4603      	mov	r3, r0
 80023ac:	6878      	ldr	r0, [r7, #4]
 80023ae:	f7ff fe5e 	bl	800206e <u8g2_IsIntersection>
 80023b2:	4603      	mov	r3, r0
 80023b4:	2b00      	cmp	r3, #0
 80023b6:	d104      	bne.n	80023c2 <u8g2_apply_clip_window+0x3a>
  {
    u8g2->is_page_clip_window_intersection = 0;
 80023b8:	687b      	ldr	r3, [r7, #4]
 80023ba:	2200      	movs	r2, #0
 80023bc:	f883 208c 	strb.w	r2, [r3, #140]	@ 0x8c
    if ( u8g2->user_y0 < u8g2->clip_y0 )
      u8g2->user_y0 = u8g2->clip_y0;
    if ( u8g2->user_y1 > u8g2->clip_y1 )
      u8g2->user_y1 = u8g2->clip_y1;
  }
}
 80023c0:	e03b      	b.n	800243a <u8g2_apply_clip_window+0xb2>
    u8g2->is_page_clip_window_intersection = 1;
 80023c2:	687b      	ldr	r3, [r7, #4]
 80023c4:	2201      	movs	r2, #1
 80023c6:	f883 208c 	strb.w	r2, [r3, #140]	@ 0x8c
    if ( u8g2->user_x0 < u8g2->clip_x0 )
 80023ca:	687b      	ldr	r3, [r7, #4]
 80023cc:	f8b3 2048 	ldrh.w	r2, [r3, #72]	@ 0x48
 80023d0:	687b      	ldr	r3, [r7, #4]
 80023d2:	f8b3 3050 	ldrh.w	r3, [r3, #80]	@ 0x50
 80023d6:	429a      	cmp	r2, r3
 80023d8:	d205      	bcs.n	80023e6 <u8g2_apply_clip_window+0x5e>
      u8g2->user_x0 = u8g2->clip_x0;
 80023da:	687b      	ldr	r3, [r7, #4]
 80023dc:	f8b3 2050 	ldrh.w	r2, [r3, #80]	@ 0x50
 80023e0:	687b      	ldr	r3, [r7, #4]
 80023e2:	f8a3 2048 	strh.w	r2, [r3, #72]	@ 0x48
    if ( u8g2->user_x1 > u8g2->clip_x1 )
 80023e6:	687b      	ldr	r3, [r7, #4]
 80023e8:	f8b3 204a 	ldrh.w	r2, [r3, #74]	@ 0x4a
 80023ec:	687b      	ldr	r3, [r7, #4]
 80023ee:	f8b3 3052 	ldrh.w	r3, [r3, #82]	@ 0x52
 80023f2:	429a      	cmp	r2, r3
 80023f4:	d905      	bls.n	8002402 <u8g2_apply_clip_window+0x7a>
      u8g2->user_x1 = u8g2->clip_x1;
 80023f6:	687b      	ldr	r3, [r7, #4]
 80023f8:	f8b3 2052 	ldrh.w	r2, [r3, #82]	@ 0x52
 80023fc:	687b      	ldr	r3, [r7, #4]
 80023fe:	f8a3 204a 	strh.w	r2, [r3, #74]	@ 0x4a
    if ( u8g2->user_y0 < u8g2->clip_y0 )
 8002402:	687b      	ldr	r3, [r7, #4]
 8002404:	f8b3 204c 	ldrh.w	r2, [r3, #76]	@ 0x4c
 8002408:	687b      	ldr	r3, [r7, #4]
 800240a:	f8b3 3054 	ldrh.w	r3, [r3, #84]	@ 0x54
 800240e:	429a      	cmp	r2, r3
 8002410:	d205      	bcs.n	800241e <u8g2_apply_clip_window+0x96>
      u8g2->user_y0 = u8g2->clip_y0;
 8002412:	687b      	ldr	r3, [r7, #4]
 8002414:	f8b3 2054 	ldrh.w	r2, [r3, #84]	@ 0x54
 8002418:	687b      	ldr	r3, [r7, #4]
 800241a:	f8a3 204c 	strh.w	r2, [r3, #76]	@ 0x4c
    if ( u8g2->user_y1 > u8g2->clip_y1 )
 800241e:	687b      	ldr	r3, [r7, #4]
 8002420:	f8b3 204e 	ldrh.w	r2, [r3, #78]	@ 0x4e
 8002424:	687b      	ldr	r3, [r7, #4]
 8002426:	f8b3 3056 	ldrh.w	r3, [r3, #86]	@ 0x56
 800242a:	429a      	cmp	r2, r3
 800242c:	d905      	bls.n	800243a <u8g2_apply_clip_window+0xb2>
      u8g2->user_y1 = u8g2->clip_y1;
 800242e:	687b      	ldr	r3, [r7, #4]
 8002430:	f8b3 2056 	ldrh.w	r2, [r3, #86]	@ 0x56
 8002434:	687b      	ldr	r3, [r7, #4]
 8002436:	f8a3 204e 	strh.w	r2, [r3, #78]	@ 0x4e
}
 800243a:	bf00      	nop
 800243c:	3708      	adds	r7, #8
 800243e:	46bd      	mov	sp, r7
 8002440:	bd80      	pop	{r7, pc}

08002442 <u8g2_update_dimension_r2>:
  u8g2_apply_clip_window(u8g2);
#endif /* U8G2_WITH_CLIP_WINDOW_SUPPORT */
}

void u8g2_update_dimension_r2(u8g2_t *u8g2)
{
 8002442:	b580      	push	{r7, lr}
 8002444:	b082      	sub	sp, #8
 8002446:	af00      	add	r7, sp, #0
 8002448:	6078      	str	r0, [r7, #4]
  u8g2_update_dimension_common(u8g2);
 800244a:	6878      	ldr	r0, [r7, #4]
 800244c:	f7ff ff3c 	bl	80022c8 <u8g2_update_dimension_common>
}
 8002450:	bf00      	nop
 8002452:	3708      	adds	r7, #8
 8002454:	46bd      	mov	sp, r7
 8002456:	bd80      	pop	{r7, pc}

08002458 <u8g2_update_page_win_r2>:

void u8g2_update_page_win_r2(u8g2_t *u8g2)
{
 8002458:	b580      	push	{r7, lr}
 800245a:	b082      	sub	sp, #8
 800245c:	af00      	add	r7, sp, #0
 800245e:	6078      	str	r0, [r7, #4]
  u8g2->user_x0 = 0;
 8002460:	687b      	ldr	r3, [r7, #4]
 8002462:	2200      	movs	r2, #0
 8002464:	f8a3 2048 	strh.w	r2, [r3, #72]	@ 0x48
  u8g2->user_x1 = u8g2->width;	/* pixel_buf_width replaced with width */
 8002468:	687b      	ldr	r3, [r7, #4]
 800246a:	f8b3 2044 	ldrh.w	r2, [r3, #68]	@ 0x44
 800246e:	687b      	ldr	r3, [r7, #4]
 8002470:	f8a3 204a 	strh.w	r2, [r3, #74]	@ 0x4a
  
  /* there are ases where the height is not a multiple of 8. */
  /* in such a case u8g2->buf_y1 might be heigher than u8g2->height */
  u8g2->user_y0 = 0;
 8002474:	687b      	ldr	r3, [r7, #4]
 8002476:	2200      	movs	r2, #0
 8002478:	f8a3 204c 	strh.w	r2, [r3, #76]	@ 0x4c
  if ( u8g2->height >= u8g2->buf_y1 )
 800247c:	687b      	ldr	r3, [r7, #4]
 800247e:	f8b3 2046 	ldrh.w	r2, [r3, #70]	@ 0x46
 8002482:	687b      	ldr	r3, [r7, #4]
 8002484:	f8b3 3042 	ldrh.w	r3, [r3, #66]	@ 0x42
 8002488:	429a      	cmp	r2, r3
 800248a:	d30a      	bcc.n	80024a2 <u8g2_update_page_win_r2+0x4a>
    u8g2->user_y0 = u8g2->height - u8g2->buf_y1;
 800248c:	687b      	ldr	r3, [r7, #4]
 800248e:	f8b3 2046 	ldrh.w	r2, [r3, #70]	@ 0x46
 8002492:	687b      	ldr	r3, [r7, #4]
 8002494:	f8b3 3042 	ldrh.w	r3, [r3, #66]	@ 0x42
 8002498:	1ad3      	subs	r3, r2, r3
 800249a:	b29a      	uxth	r2, r3
 800249c:	687b      	ldr	r3, [r7, #4]
 800249e:	f8a3 204c 	strh.w	r2, [r3, #76]	@ 0x4c
  u8g2->user_y1 = u8g2->height - u8g2->buf_y0;
 80024a2:	687b      	ldr	r3, [r7, #4]
 80024a4:	f8b3 2046 	ldrh.w	r2, [r3, #70]	@ 0x46
 80024a8:	687b      	ldr	r3, [r7, #4]
 80024aa:	f8b3 3040 	ldrh.w	r3, [r3, #64]	@ 0x40
 80024ae:	1ad3      	subs	r3, r2, r3
 80024b0:	b29a      	uxth	r2, r3
 80024b2:	687b      	ldr	r3, [r7, #4]
 80024b4:	f8a3 204e 	strh.w	r2, [r3, #78]	@ 0x4e

#ifdef U8G2_WITH_CLIP_WINDOW_SUPPORT
  u8g2_apply_clip_window(u8g2);
 80024b8:	6878      	ldr	r0, [r7, #4]
 80024ba:	f7ff ff65 	bl	8002388 <u8g2_apply_clip_window>
#endif /* U8G2_WITH_CLIP_WINDOW_SUPPORT */
}
 80024be:	bf00      	nop
 80024c0:	3708      	adds	r7, #8
 80024c2:	46bd      	mov	sp, r7
 80024c4:	bd80      	pop	{r7, pc}

080024c6 <u8g2_draw_l90_r2>:
  
  u8g2_draw_hv_line_2dir(u8g2, xx, yy, len, dir);
}

void u8g2_draw_l90_r2(u8g2_t *u8g2, u8g2_uint_t x, u8g2_uint_t y, u8g2_uint_t len, uint8_t dir)
{
 80024c6:	b580      	push	{r7, lr}
 80024c8:	b088      	sub	sp, #32
 80024ca:	af02      	add	r7, sp, #8
 80024cc:	60f8      	str	r0, [r7, #12]
 80024ce:	4608      	mov	r0, r1
 80024d0:	4611      	mov	r1, r2
 80024d2:	461a      	mov	r2, r3
 80024d4:	4603      	mov	r3, r0
 80024d6:	817b      	strh	r3, [r7, #10]
 80024d8:	460b      	mov	r3, r1
 80024da:	813b      	strh	r3, [r7, #8]
 80024dc:	4613      	mov	r3, r2
 80024de:	80fb      	strh	r3, [r7, #6]
    yy -= len;
    yy++;
  }
  */

  yy = u8g2->height;
 80024e0:	68fb      	ldr	r3, [r7, #12]
 80024e2:	f8b3 3046 	ldrh.w	r3, [r3, #70]	@ 0x46
 80024e6:	82bb      	strh	r3, [r7, #20]
  yy -= y;
 80024e8:	8aba      	ldrh	r2, [r7, #20]
 80024ea:	893b      	ldrh	r3, [r7, #8]
 80024ec:	1ad3      	subs	r3, r2, r3
 80024ee:	82bb      	strh	r3, [r7, #20]
  
  xx = u8g2->width;
 80024f0:	68fb      	ldr	r3, [r7, #12]
 80024f2:	f8b3 3044 	ldrh.w	r3, [r3, #68]	@ 0x44
 80024f6:	82fb      	strh	r3, [r7, #22]
  xx -= x;
 80024f8:	8afa      	ldrh	r2, [r7, #22]
 80024fa:	897b      	ldrh	r3, [r7, #10]
 80024fc:	1ad3      	subs	r3, r2, r3
 80024fe:	82fb      	strh	r3, [r7, #22]
  
  if ( dir == 0 )
 8002500:	f897 3020 	ldrb.w	r3, [r7, #32]
 8002504:	2b00      	cmp	r3, #0
 8002506:	d107      	bne.n	8002518 <u8g2_draw_l90_r2+0x52>
  {
    yy--;
 8002508:	8abb      	ldrh	r3, [r7, #20]
 800250a:	3b01      	subs	r3, #1
 800250c:	82bb      	strh	r3, [r7, #20]
    xx -= len;
 800250e:	8afa      	ldrh	r2, [r7, #22]
 8002510:	88fb      	ldrh	r3, [r7, #6]
 8002512:	1ad3      	subs	r3, r2, r3
 8002514:	82fb      	strh	r3, [r7, #22]
 8002516:	e00a      	b.n	800252e <u8g2_draw_l90_r2+0x68>
  }
  else if ( dir == 1 )
 8002518:	f897 3020 	ldrb.w	r3, [r7, #32]
 800251c:	2b01      	cmp	r3, #1
 800251e:	d106      	bne.n	800252e <u8g2_draw_l90_r2+0x68>
  {
    xx--;
 8002520:	8afb      	ldrh	r3, [r7, #22]
 8002522:	3b01      	subs	r3, #1
 8002524:	82fb      	strh	r3, [r7, #22]
    yy -= len;
 8002526:	8aba      	ldrh	r2, [r7, #20]
 8002528:	88fb      	ldrh	r3, [r7, #6]
 800252a:	1ad3      	subs	r3, r2, r3
 800252c:	82bb      	strh	r3, [r7, #20]
  }

  u8g2_draw_hv_line_2dir(u8g2, xx, yy, len, dir);
 800252e:	88f8      	ldrh	r0, [r7, #6]
 8002530:	8aba      	ldrh	r2, [r7, #20]
 8002532:	8af9      	ldrh	r1, [r7, #22]
 8002534:	f897 3020 	ldrb.w	r3, [r7, #32]
 8002538:	9300      	str	r3, [sp, #0]
 800253a:	4603      	mov	r3, r0
 800253c:	68f8      	ldr	r0, [r7, #12]
 800253e:	f7ff fcb7 	bl	8001eb0 <u8g2_draw_hv_line_2dir>
}
 8002542:	bf00      	nop
 8002544:	3718      	adds	r7, #24
 8002546:	46bd      	mov	sp, r7
 8002548:	bd80      	pop	{r7, pc}

0800254a <u8x8_utf8_init>:

*/

/* reset the internal state machine */
void u8x8_utf8_init(u8x8_t *u8x8)
{
 800254a:	b480      	push	{r7}
 800254c:	b083      	sub	sp, #12
 800254e:	af00      	add	r7, sp, #0
 8002550:	6078      	str	r0, [r7, #4]
  u8x8->utf8_state = 0;	/* also reset during u8x8_SetupDefaults() */
 8002552:	687b      	ldr	r3, [r7, #4]
 8002554:	2200      	movs	r2, #0
 8002556:	f883 2026 	strb.w	r2, [r3, #38]	@ 0x26
}
 800255a:	bf00      	nop
 800255c:	370c      	adds	r7, #12
 800255e:	46bd      	mov	sp, r7
 8002560:	f85d 7b04 	ldr.w	r7, [sp], #4
 8002564:	4770      	bx	lr

08002566 <u8x8_ascii_next>:

uint16_t u8x8_ascii_next(U8X8_UNUSED u8x8_t *u8x8, uint8_t b)
{
 8002566:	b480      	push	{r7}
 8002568:	b083      	sub	sp, #12
 800256a:	af00      	add	r7, sp, #0
 800256c:	6078      	str	r0, [r7, #4]
 800256e:	460b      	mov	r3, r1
 8002570:	70fb      	strb	r3, [r7, #3]
  if ( b == 0 || b == '\n' ) /* '\n' terminates the string to support the string list procedures */
 8002572:	78fb      	ldrb	r3, [r7, #3]
 8002574:	2b00      	cmp	r3, #0
 8002576:	d002      	beq.n	800257e <u8x8_ascii_next+0x18>
 8002578:	78fb      	ldrb	r3, [r7, #3]
 800257a:	2b0a      	cmp	r3, #10
 800257c:	d102      	bne.n	8002584 <u8x8_ascii_next+0x1e>
    return 0x0ffff;	/* end of string detected*/
 800257e:	f64f 73ff 	movw	r3, #65535	@ 0xffff
 8002582:	e001      	b.n	8002588 <u8x8_ascii_next+0x22>
  return b;
 8002584:	78fb      	ldrb	r3, [r7, #3]
 8002586:	b29b      	uxth	r3, r3
}
 8002588:	4618      	mov	r0, r3
 800258a:	370c      	adds	r7, #12
 800258c:	46bd      	mov	sp, r7
 800258e:	f85d 7b04 	ldr.w	r7, [sp], #4
 8002592:	4770      	bx	lr

08002594 <u8x8_byte_SetDC>:
*/

#include "u8x8.h"

uint8_t u8x8_byte_SetDC(u8x8_t *u8x8, uint8_t dc)
{
 8002594:	b590      	push	{r4, r7, lr}
 8002596:	b083      	sub	sp, #12
 8002598:	af00      	add	r7, sp, #0
 800259a:	6078      	str	r0, [r7, #4]
 800259c:	460b      	mov	r3, r1
 800259e:	70fb      	strb	r3, [r7, #3]
  return u8x8->byte_cb(u8x8, U8X8_MSG_BYTE_SET_DC, dc, NULL);
 80025a0:	687b      	ldr	r3, [r7, #4]
 80025a2:	691c      	ldr	r4, [r3, #16]
 80025a4:	78fa      	ldrb	r2, [r7, #3]
 80025a6:	2300      	movs	r3, #0
 80025a8:	2120      	movs	r1, #32
 80025aa:	6878      	ldr	r0, [r7, #4]
 80025ac:	47a0      	blx	r4
 80025ae:	4603      	mov	r3, r0
}
 80025b0:	4618      	mov	r0, r3
 80025b2:	370c      	adds	r7, #12
 80025b4:	46bd      	mov	sp, r7
 80025b6:	bd90      	pop	{r4, r7, pc}

080025b8 <u8x8_byte_SendBytes>:

uint8_t u8x8_byte_SendBytes(u8x8_t *u8x8, uint8_t cnt, uint8_t *data)
{
 80025b8:	b590      	push	{r4, r7, lr}
 80025ba:	b085      	sub	sp, #20
 80025bc:	af00      	add	r7, sp, #0
 80025be:	60f8      	str	r0, [r7, #12]
 80025c0:	460b      	mov	r3, r1
 80025c2:	607a      	str	r2, [r7, #4]
 80025c4:	72fb      	strb	r3, [r7, #11]
  return u8x8->byte_cb(u8x8, U8X8_MSG_BYTE_SEND, cnt, (void *)data);
 80025c6:	68fb      	ldr	r3, [r7, #12]
 80025c8:	691c      	ldr	r4, [r3, #16]
 80025ca:	7afa      	ldrb	r2, [r7, #11]
 80025cc:	687b      	ldr	r3, [r7, #4]
 80025ce:	2117      	movs	r1, #23
 80025d0:	68f8      	ldr	r0, [r7, #12]
 80025d2:	47a0      	blx	r4
 80025d4:	4603      	mov	r3, r0
}
 80025d6:	4618      	mov	r0, r3
 80025d8:	3714      	adds	r7, #20
 80025da:	46bd      	mov	sp, r7
 80025dc:	bd90      	pop	{r4, r7, pc}

080025de <u8x8_byte_SendByte>:

uint8_t u8x8_byte_SendByte(u8x8_t *u8x8, uint8_t byte)
{
 80025de:	b580      	push	{r7, lr}
 80025e0:	b082      	sub	sp, #8
 80025e2:	af00      	add	r7, sp, #0
 80025e4:	6078      	str	r0, [r7, #4]
 80025e6:	460b      	mov	r3, r1
 80025e8:	70fb      	strb	r3, [r7, #3]
  return u8x8_byte_SendBytes(u8x8, 1, &byte);
 80025ea:	1cfb      	adds	r3, r7, #3
 80025ec:	461a      	mov	r2, r3
 80025ee:	2101      	movs	r1, #1
 80025f0:	6878      	ldr	r0, [r7, #4]
 80025f2:	f7ff ffe1 	bl	80025b8 <u8x8_byte_SendBytes>
 80025f6:	4603      	mov	r3, r0
}
 80025f8:	4618      	mov	r0, r3
 80025fa:	3708      	adds	r7, #8
 80025fc:	46bd      	mov	sp, r7
 80025fe:	bd80      	pop	{r7, pc}

08002600 <u8x8_cad_SendCmd>:
*/

#include "u8x8.h"

uint8_t u8x8_cad_SendCmd(u8x8_t *u8x8, uint8_t cmd)
{
 8002600:	b590      	push	{r4, r7, lr}
 8002602:	b083      	sub	sp, #12
 8002604:	af00      	add	r7, sp, #0
 8002606:	6078      	str	r0, [r7, #4]
 8002608:	460b      	mov	r3, r1
 800260a:	70fb      	strb	r3, [r7, #3]
  return u8x8->cad_cb(u8x8, U8X8_MSG_CAD_SEND_CMD, cmd, NULL);
 800260c:	687b      	ldr	r3, [r7, #4]
 800260e:	68dc      	ldr	r4, [r3, #12]
 8002610:	78fa      	ldrb	r2, [r7, #3]
 8002612:	2300      	movs	r3, #0
 8002614:	2115      	movs	r1, #21
 8002616:	6878      	ldr	r0, [r7, #4]
 8002618:	47a0      	blx	r4
 800261a:	4603      	mov	r3, r0
}
 800261c:	4618      	mov	r0, r3
 800261e:	370c      	adds	r7, #12
 8002620:	46bd      	mov	sp, r7
 8002622:	bd90      	pop	{r4, r7, pc}

08002624 <u8x8_cad_SendArg>:

uint8_t u8x8_cad_SendArg(u8x8_t *u8x8, uint8_t arg)
{
 8002624:	b590      	push	{r4, r7, lr}
 8002626:	b083      	sub	sp, #12
 8002628:	af00      	add	r7, sp, #0
 800262a:	6078      	str	r0, [r7, #4]
 800262c:	460b      	mov	r3, r1
 800262e:	70fb      	strb	r3, [r7, #3]
  return u8x8->cad_cb(u8x8, U8X8_MSG_CAD_SEND_ARG, arg, NULL);
 8002630:	687b      	ldr	r3, [r7, #4]
 8002632:	68dc      	ldr	r4, [r3, #12]
 8002634:	78fa      	ldrb	r2, [r7, #3]
 8002636:	2300      	movs	r3, #0
 8002638:	2116      	movs	r1, #22
 800263a:	6878      	ldr	r0, [r7, #4]
 800263c:	47a0      	blx	r4
 800263e:	4603      	mov	r3, r0
}
 8002640:	4618      	mov	r0, r3
 8002642:	370c      	adds	r7, #12
 8002644:	46bd      	mov	sp, r7
 8002646:	bd90      	pop	{r4, r7, pc}

08002648 <u8x8_cad_SendData>:
  }
  return 1;
}

uint8_t u8x8_cad_SendData(u8x8_t *u8x8, uint8_t cnt, uint8_t *data)
{
 8002648:	b590      	push	{r4, r7, lr}
 800264a:	b085      	sub	sp, #20
 800264c:	af00      	add	r7, sp, #0
 800264e:	60f8      	str	r0, [r7, #12]
 8002650:	460b      	mov	r3, r1
 8002652:	607a      	str	r2, [r7, #4]
 8002654:	72fb      	strb	r3, [r7, #11]
  return u8x8->cad_cb(u8x8, U8X8_MSG_CAD_SEND_DATA, cnt, data);
 8002656:	68fb      	ldr	r3, [r7, #12]
 8002658:	68dc      	ldr	r4, [r3, #12]
 800265a:	7afa      	ldrb	r2, [r7, #11]
 800265c:	687b      	ldr	r3, [r7, #4]
 800265e:	2117      	movs	r1, #23
 8002660:	68f8      	ldr	r0, [r7, #12]
 8002662:	47a0      	blx	r4
 8002664:	4603      	mov	r3, r0
}
 8002666:	4618      	mov	r0, r3
 8002668:	3714      	adds	r7, #20
 800266a:	46bd      	mov	sp, r7
 800266c:	bd90      	pop	{r4, r7, pc}

0800266e <u8x8_cad_StartTransfer>:

uint8_t u8x8_cad_StartTransfer(u8x8_t *u8x8)
{
 800266e:	b590      	push	{r4, r7, lr}
 8002670:	b083      	sub	sp, #12
 8002672:	af00      	add	r7, sp, #0
 8002674:	6078      	str	r0, [r7, #4]
  return u8x8->cad_cb(u8x8, U8X8_MSG_CAD_START_TRANSFER, 0, NULL);
 8002676:	687b      	ldr	r3, [r7, #4]
 8002678:	68dc      	ldr	r4, [r3, #12]
 800267a:	2300      	movs	r3, #0
 800267c:	2200      	movs	r2, #0
 800267e:	2118      	movs	r1, #24
 8002680:	6878      	ldr	r0, [r7, #4]
 8002682:	47a0      	blx	r4
 8002684:	4603      	mov	r3, r0
}
 8002686:	4618      	mov	r0, r3
 8002688:	370c      	adds	r7, #12
 800268a:	46bd      	mov	sp, r7
 800268c:	bd90      	pop	{r4, r7, pc}

0800268e <u8x8_cad_EndTransfer>:

uint8_t u8x8_cad_EndTransfer(u8x8_t *u8x8)
{
 800268e:	b590      	push	{r4, r7, lr}
 8002690:	b083      	sub	sp, #12
 8002692:	af00      	add	r7, sp, #0
 8002694:	6078      	str	r0, [r7, #4]
  return u8x8->cad_cb(u8x8, U8X8_MSG_CAD_END_TRANSFER, 0, NULL);
 8002696:	687b      	ldr	r3, [r7, #4]
 8002698:	68dc      	ldr	r4, [r3, #12]
 800269a:	2300      	movs	r3, #0
 800269c:	2200      	movs	r2, #0
 800269e:	2119      	movs	r1, #25
 80026a0:	6878      	ldr	r0, [r7, #4]
 80026a2:	47a0      	blx	r4
 80026a4:	4603      	mov	r3, r0
}
 80026a6:	4618      	mov	r0, r3
 80026a8:	370c      	adds	r7, #12
 80026aa:	46bd      	mov	sp, r7
 80026ac:	bd90      	pop	{r4, r7, pc}

080026ae <u8x8_cad_SendSequence>:
  254 milli	delay by milliseconds
  255		end of sequence
*/

void u8x8_cad_SendSequence(u8x8_t *u8x8, uint8_t const *data)
{
 80026ae:	b590      	push	{r4, r7, lr}
 80026b0:	b085      	sub	sp, #20
 80026b2:	af00      	add	r7, sp, #0
 80026b4:	6078      	str	r0, [r7, #4]
 80026b6:	6039      	str	r1, [r7, #0]
  uint8_t cmd;
  uint8_t v;

  for(;;)
  {
    cmd = *data;
 80026b8:	683b      	ldr	r3, [r7, #0]
 80026ba:	781b      	ldrb	r3, [r3, #0]
 80026bc:	73fb      	strb	r3, [r7, #15]
    data++;
 80026be:	683b      	ldr	r3, [r7, #0]
 80026c0:	3301      	adds	r3, #1
 80026c2:	603b      	str	r3, [r7, #0]
    switch( cmd )
 80026c4:	7bfb      	ldrb	r3, [r7, #15]
 80026c6:	2bfe      	cmp	r3, #254	@ 0xfe
 80026c8:	d031      	beq.n	800272e <u8x8_cad_SendSequence+0x80>
 80026ca:	2bfe      	cmp	r3, #254	@ 0xfe
 80026cc:	dc3d      	bgt.n	800274a <u8x8_cad_SendSequence+0x9c>
 80026ce:	2b19      	cmp	r3, #25
 80026d0:	dc3b      	bgt.n	800274a <u8x8_cad_SendSequence+0x9c>
 80026d2:	2b18      	cmp	r3, #24
 80026d4:	da23      	bge.n	800271e <u8x8_cad_SendSequence+0x70>
 80026d6:	2b16      	cmp	r3, #22
 80026d8:	dc02      	bgt.n	80026e0 <u8x8_cad_SendSequence+0x32>
 80026da:	2b15      	cmp	r3, #21
 80026dc:	da03      	bge.n	80026e6 <u8x8_cad_SendSequence+0x38>
	  v = *data;
	  u8x8_gpio_Delay(u8x8, U8X8_MSG_DELAY_MILLI, v);	    
	  data++;
	  break;
      default:
	return;
 80026de:	e034      	b.n	800274a <u8x8_cad_SendSequence+0x9c>
    switch( cmd )
 80026e0:	2b17      	cmp	r3, #23
 80026e2:	d00e      	beq.n	8002702 <u8x8_cad_SendSequence+0x54>
	return;
 80026e4:	e031      	b.n	800274a <u8x8_cad_SendSequence+0x9c>
	  v = *data;
 80026e6:	683b      	ldr	r3, [r7, #0]
 80026e8:	781b      	ldrb	r3, [r3, #0]
 80026ea:	73bb      	strb	r3, [r7, #14]
	  u8x8->cad_cb(u8x8, cmd, v, NULL);
 80026ec:	687b      	ldr	r3, [r7, #4]
 80026ee:	68dc      	ldr	r4, [r3, #12]
 80026f0:	7bba      	ldrb	r2, [r7, #14]
 80026f2:	7bf9      	ldrb	r1, [r7, #15]
 80026f4:	2300      	movs	r3, #0
 80026f6:	6878      	ldr	r0, [r7, #4]
 80026f8:	47a0      	blx	r4
	  data++;
 80026fa:	683b      	ldr	r3, [r7, #0]
 80026fc:	3301      	adds	r3, #1
 80026fe:	603b      	str	r3, [r7, #0]
	  break;
 8002700:	e022      	b.n	8002748 <u8x8_cad_SendSequence+0x9a>
	  v = *data;
 8002702:	683b      	ldr	r3, [r7, #0]
 8002704:	781b      	ldrb	r3, [r3, #0]
 8002706:	73bb      	strb	r3, [r7, #14]
	  u8x8_cad_SendData(u8x8, 1, &v);
 8002708:	f107 030e 	add.w	r3, r7, #14
 800270c:	461a      	mov	r2, r3
 800270e:	2101      	movs	r1, #1
 8002710:	6878      	ldr	r0, [r7, #4]
 8002712:	f7ff ff99 	bl	8002648 <u8x8_cad_SendData>
	  data++;
 8002716:	683b      	ldr	r3, [r7, #0]
 8002718:	3301      	adds	r3, #1
 800271a:	603b      	str	r3, [r7, #0]
	  break;
 800271c:	e014      	b.n	8002748 <u8x8_cad_SendSequence+0x9a>
	  u8x8->cad_cb(u8x8, cmd, 0, NULL);
 800271e:	687b      	ldr	r3, [r7, #4]
 8002720:	68dc      	ldr	r4, [r3, #12]
 8002722:	7bf9      	ldrb	r1, [r7, #15]
 8002724:	2300      	movs	r3, #0
 8002726:	2200      	movs	r2, #0
 8002728:	6878      	ldr	r0, [r7, #4]
 800272a:	47a0      	blx	r4
	  break;
 800272c:	e00c      	b.n	8002748 <u8x8_cad_SendSequence+0x9a>
	  v = *data;
 800272e:	683b      	ldr	r3, [r7, #0]
 8002730:	781b      	ldrb	r3, [r3, #0]
 8002732:	73bb      	strb	r3, [r7, #14]
	  u8x8_gpio_Delay(u8x8, U8X8_MSG_DELAY_MILLI, v);	    
 8002734:	7bbb      	ldrb	r3, [r7, #14]
 8002736:	461a      	mov	r2, r3
 8002738:	2129      	movs	r1, #41	@ 0x29
 800273a:	6878      	ldr	r0, [r7, #4]
 800273c:	f000 f9ee 	bl	8002b1c <u8x8_gpio_call>
	  data++;
 8002740:	683b      	ldr	r3, [r7, #0]
 8002742:	3301      	adds	r3, #1
 8002744:	603b      	str	r3, [r7, #0]
	  break;
 8002746:	bf00      	nop
    cmd = *data;
 8002748:	e7b6      	b.n	80026b8 <u8x8_cad_SendSequence+0xa>
	return;
 800274a:	bf00      	nop
    }
  }
}
 800274c:	3714      	adds	r7, #20
 800274e:	46bd      	mov	sp, r7
 8002750:	bd90      	pop	{r4, r7, pc}
	...

08002754 <u8x8_cad_001>:
  convert to bytes by using 
    dc = 0 for commands and args and
    dc = 1 for data
*/
uint8_t u8x8_cad_001(u8x8_t *u8x8, uint8_t msg, uint8_t arg_int, void *arg_ptr)
{
 8002754:	b590      	push	{r4, r7, lr}
 8002756:	b085      	sub	sp, #20
 8002758:	af00      	add	r7, sp, #0
 800275a:	60f8      	str	r0, [r7, #12]
 800275c:	607b      	str	r3, [r7, #4]
 800275e:	460b      	mov	r3, r1
 8002760:	72fb      	strb	r3, [r7, #11]
 8002762:	4613      	mov	r3, r2
 8002764:	72bb      	strb	r3, [r7, #10]
  switch(msg)
 8002766:	7afb      	ldrb	r3, [r7, #11]
 8002768:	3b14      	subs	r3, #20
 800276a:	2b05      	cmp	r3, #5
 800276c:	d82f      	bhi.n	80027ce <u8x8_cad_001+0x7a>
 800276e:	a201      	add	r2, pc, #4	@ (adr r2, 8002774 <u8x8_cad_001+0x20>)
 8002770:	f852 f023 	ldr.w	pc, [r2, r3, lsl #2]
 8002774:	080027bd 	.word	0x080027bd
 8002778:	0800278d 	.word	0x0800278d
 800277c:	080027a1 	.word	0x080027a1
 8002780:	080027b5 	.word	0x080027b5
 8002784:	080027bd 	.word	0x080027bd
 8002788:	080027bd 	.word	0x080027bd
  {
    case U8X8_MSG_CAD_SEND_CMD:
      u8x8_byte_SetDC(u8x8, 0);
 800278c:	2100      	movs	r1, #0
 800278e:	68f8      	ldr	r0, [r7, #12]
 8002790:	f7ff ff00 	bl	8002594 <u8x8_byte_SetDC>
      u8x8_byte_SendByte(u8x8, arg_int);
 8002794:	7abb      	ldrb	r3, [r7, #10]
 8002796:	4619      	mov	r1, r3
 8002798:	68f8      	ldr	r0, [r7, #12]
 800279a:	f7ff ff20 	bl	80025de <u8x8_byte_SendByte>
      break;
 800279e:	e018      	b.n	80027d2 <u8x8_cad_001+0x7e>
    case U8X8_MSG_CAD_SEND_ARG:
      u8x8_byte_SetDC(u8x8, 0);
 80027a0:	2100      	movs	r1, #0
 80027a2:	68f8      	ldr	r0, [r7, #12]
 80027a4:	f7ff fef6 	bl	8002594 <u8x8_byte_SetDC>
      u8x8_byte_SendByte(u8x8, arg_int);
 80027a8:	7abb      	ldrb	r3, [r7, #10]
 80027aa:	4619      	mov	r1, r3
 80027ac:	68f8      	ldr	r0, [r7, #12]
 80027ae:	f7ff ff16 	bl	80025de <u8x8_byte_SendByte>
      break;
 80027b2:	e00e      	b.n	80027d2 <u8x8_cad_001+0x7e>
    case U8X8_MSG_CAD_SEND_DATA:
      u8x8_byte_SetDC(u8x8, 1);
 80027b4:	2101      	movs	r1, #1
 80027b6:	68f8      	ldr	r0, [r7, #12]
 80027b8:	f7ff feec 	bl	8002594 <u8x8_byte_SetDC>
      //break;
      /* fall through */
    case U8X8_MSG_CAD_INIT:
    case U8X8_MSG_CAD_START_TRANSFER:
    case U8X8_MSG_CAD_END_TRANSFER:
      return u8x8->byte_cb(u8x8, msg, arg_int, arg_ptr);
 80027bc:	68fb      	ldr	r3, [r7, #12]
 80027be:	691c      	ldr	r4, [r3, #16]
 80027c0:	7aba      	ldrb	r2, [r7, #10]
 80027c2:	7af9      	ldrb	r1, [r7, #11]
 80027c4:	687b      	ldr	r3, [r7, #4]
 80027c6:	68f8      	ldr	r0, [r7, #12]
 80027c8:	47a0      	blx	r4
 80027ca:	4603      	mov	r3, r0
 80027cc:	e002      	b.n	80027d4 <u8x8_cad_001+0x80>
    default:
      return 0;
 80027ce:	2300      	movs	r3, #0
 80027d0:	e000      	b.n	80027d4 <u8x8_cad_001+0x80>
  }
  return 1;
 80027d2:	2301      	movs	r3, #1
}
 80027d4:	4618      	mov	r0, r3
 80027d6:	3714      	adds	r7, #20
 80027d8:	46bd      	mov	sp, r7
 80027da:	bd90      	pop	{r4, r7, pc}

080027dc <u8x8_d_st7565_common>:
  /* pixel_width = */ 128,
  /* pixel_height = */ 64
};

uint8_t u8x8_d_st7565_common(u8x8_t *u8x8, uint8_t msg, uint8_t arg_int, void *arg_ptr)
{
 80027dc:	b580      	push	{r7, lr}
 80027de:	b086      	sub	sp, #24
 80027e0:	af00      	add	r7, sp, #0
 80027e2:	60f8      	str	r0, [r7, #12]
 80027e4:	607b      	str	r3, [r7, #4]
 80027e6:	460b      	mov	r3, r1
 80027e8:	72fb      	strb	r3, [r7, #11]
 80027ea:	4613      	mov	r3, r2
 80027ec:	72bb      	strb	r3, [r7, #10]
  uint8_t x, c;
  uint8_t *ptr;
  switch(msg)
 80027ee:	7afb      	ldrb	r3, [r7, #11]
 80027f0:	2b0f      	cmp	r3, #15
 80027f2:	d006      	beq.n	8002802 <u8x8_d_st7565_common+0x26>
 80027f4:	2b0f      	cmp	r3, #15
 80027f6:	dc71      	bgt.n	80028dc <u8x8_d_st7565_common+0x100>
 80027f8:	2b0b      	cmp	r3, #11
 80027fa:	d050      	beq.n	800289e <u8x8_d_st7565_common+0xc2>
 80027fc:	2b0e      	cmp	r3, #14
 80027fe:	d05b      	beq.n	80028b8 <u8x8_d_st7565_common+0xdc>
 8002800:	e06c      	b.n	80028dc <u8x8_d_st7565_common+0x100>
  {
    case U8X8_MSG_DISPLAY_DRAW_TILE:
      u8x8_cad_StartTransfer(u8x8);
 8002802:	68f8      	ldr	r0, [r7, #12]
 8002804:	f7ff ff33 	bl	800266e <u8x8_cad_StartTransfer>
    
      x = ((u8x8_tile_t *)arg_ptr)->x_pos;
 8002808:	687b      	ldr	r3, [r7, #4]
 800280a:	795b      	ldrb	r3, [r3, #5]
 800280c:	75bb      	strb	r3, [r7, #22]
      x *= 8;
 800280e:	7dbb      	ldrb	r3, [r7, #22]
 8002810:	00db      	lsls	r3, r3, #3
 8002812:	75bb      	strb	r3, [r7, #22]
      x += u8x8->x_offset;
 8002814:	68fb      	ldr	r3, [r7, #12]
 8002816:	f893 2022 	ldrb.w	r2, [r3, #34]	@ 0x22
 800281a:	7dbb      	ldrb	r3, [r7, #22]
 800281c:	4413      	add	r3, r2
 800281e:	75bb      	strb	r3, [r7, #22]
      u8x8_cad_SendCmd(u8x8, 0x010 | (x>>4) );
 8002820:	7dbb      	ldrb	r3, [r7, #22]
 8002822:	091b      	lsrs	r3, r3, #4
 8002824:	b2db      	uxtb	r3, r3
 8002826:	f043 0310 	orr.w	r3, r3, #16
 800282a:	b2db      	uxtb	r3, r3
 800282c:	4619      	mov	r1, r3
 800282e:	68f8      	ldr	r0, [r7, #12]
 8002830:	f7ff fee6 	bl	8002600 <u8x8_cad_SendCmd>
      u8x8_cad_SendCmd(u8x8, 0x000 | ((x&15)));
 8002834:	7dbb      	ldrb	r3, [r7, #22]
 8002836:	f003 030f 	and.w	r3, r3, #15
 800283a:	b2db      	uxtb	r3, r3
 800283c:	4619      	mov	r1, r3
 800283e:	68f8      	ldr	r0, [r7, #12]
 8002840:	f7ff fede 	bl	8002600 <u8x8_cad_SendCmd>
      u8x8_cad_SendCmd(u8x8, 0x0b0 | (((u8x8_tile_t *)arg_ptr)->y_pos));
 8002844:	687b      	ldr	r3, [r7, #4]
 8002846:	799b      	ldrb	r3, [r3, #6]
 8002848:	f063 034f 	orn	r3, r3, #79	@ 0x4f
 800284c:	b2db      	uxtb	r3, r3
 800284e:	4619      	mov	r1, r3
 8002850:	68f8      	ldr	r0, [r7, #12]
 8002852:	f7ff fed5 	bl	8002600 <u8x8_cad_SendCmd>
    
      c = ((u8x8_tile_t *)arg_ptr)->cnt;
 8002856:	687b      	ldr	r3, [r7, #4]
 8002858:	791b      	ldrb	r3, [r3, #4]
 800285a:	75fb      	strb	r3, [r7, #23]
      c *= 8;
 800285c:	7dfb      	ldrb	r3, [r7, #23]
 800285e:	00db      	lsls	r3, r3, #3
 8002860:	75fb      	strb	r3, [r7, #23]
      ptr = ((u8x8_tile_t *)arg_ptr)->tile_ptr;
 8002862:	687b      	ldr	r3, [r7, #4]
 8002864:	681b      	ldr	r3, [r3, #0]
 8002866:	613b      	str	r3, [r7, #16]
      /* 
	The following if condition checks the hardware limits of the st7565 
	controller: It is not allowed to write beyond the display limits.
	This is in fact an issue within flip mode.
      */
      if ( c + x > 132u )
 8002868:	7dfa      	ldrb	r2, [r7, #23]
 800286a:	7dbb      	ldrb	r3, [r7, #22]
 800286c:	4413      	add	r3, r2
 800286e:	2b84      	cmp	r3, #132	@ 0x84
 8002870:	d905      	bls.n	800287e <u8x8_d_st7565_common+0xa2>
      {
	c = 132u;
 8002872:	2384      	movs	r3, #132	@ 0x84
 8002874:	75fb      	strb	r3, [r7, #23]
	c -= x;
 8002876:	7dfa      	ldrb	r2, [r7, #23]
 8002878:	7dbb      	ldrb	r3, [r7, #22]
 800287a:	1ad3      	subs	r3, r2, r3
 800287c:	75fb      	strb	r3, [r7, #23]
      }
      do
      {
	u8x8_cad_SendData(u8x8, c, ptr);	/* note: SendData can not handle more than 255 bytes */
 800287e:	7dfb      	ldrb	r3, [r7, #23]
 8002880:	693a      	ldr	r2, [r7, #16]
 8002882:	4619      	mov	r1, r3
 8002884:	68f8      	ldr	r0, [r7, #12]
 8002886:	f7ff fedf 	bl	8002648 <u8x8_cad_SendData>
	arg_int--;
 800288a:	7abb      	ldrb	r3, [r7, #10]
 800288c:	3b01      	subs	r3, #1
 800288e:	72bb      	strb	r3, [r7, #10]
      } while( arg_int > 0 );
 8002890:	7abb      	ldrb	r3, [r7, #10]
 8002892:	2b00      	cmp	r3, #0
 8002894:	d1f3      	bne.n	800287e <u8x8_d_st7565_common+0xa2>
      
      u8x8_cad_EndTransfer(u8x8);
 8002896:	68f8      	ldr	r0, [r7, #12]
 8002898:	f7ff fef9 	bl	800268e <u8x8_cad_EndTransfer>
      break;
 800289c:	e020      	b.n	80028e0 <u8x8_d_st7565_common+0x104>
      u8x8_d_helper_display_init(u8x8);
      u8x8_cad_SendSequence(u8x8, u8x8_d_uc1701_dogs102_init_seq);
      break;
    */
    case U8X8_MSG_DISPLAY_SET_POWER_SAVE:
      if ( arg_int == 0 )
 800289e:	7abb      	ldrb	r3, [r7, #10]
 80028a0:	2b00      	cmp	r3, #0
 80028a2:	d104      	bne.n	80028ae <u8x8_d_st7565_common+0xd2>
	u8x8_cad_SendSequence(u8x8, u8x8_d_st7565_powersave0_seq);
 80028a4:	4911      	ldr	r1, [pc, #68]	@ (80028ec <u8x8_d_st7565_common+0x110>)
 80028a6:	68f8      	ldr	r0, [r7, #12]
 80028a8:	f7ff ff01 	bl	80026ae <u8x8_cad_SendSequence>
      else
	u8x8_cad_SendSequence(u8x8, u8x8_d_st7565_powersave1_seq);
      break;
 80028ac:	e018      	b.n	80028e0 <u8x8_d_st7565_common+0x104>
	u8x8_cad_SendSequence(u8x8, u8x8_d_st7565_powersave1_seq);
 80028ae:	4910      	ldr	r1, [pc, #64]	@ (80028f0 <u8x8_d_st7565_common+0x114>)
 80028b0:	68f8      	ldr	r0, [r7, #12]
 80028b2:	f7ff fefc 	bl	80026ae <u8x8_cad_SendSequence>
      break;
 80028b6:	e013      	b.n	80028e0 <u8x8_d_st7565_common+0x104>
#ifdef U8X8_WITH_SET_CONTRAST
    case U8X8_MSG_DISPLAY_SET_CONTRAST:
      u8x8_cad_StartTransfer(u8x8);
 80028b8:	68f8      	ldr	r0, [r7, #12]
 80028ba:	f7ff fed8 	bl	800266e <u8x8_cad_StartTransfer>
      u8x8_cad_SendCmd(u8x8, 0x081 );
 80028be:	2181      	movs	r1, #129	@ 0x81
 80028c0:	68f8      	ldr	r0, [r7, #12]
 80028c2:	f7ff fe9d 	bl	8002600 <u8x8_cad_SendCmd>
      u8x8_cad_SendArg(u8x8, arg_int >> 2 );	/* st7565 has range from 0 to 63 */
 80028c6:	7abb      	ldrb	r3, [r7, #10]
 80028c8:	089b      	lsrs	r3, r3, #2
 80028ca:	b2db      	uxtb	r3, r3
 80028cc:	4619      	mov	r1, r3
 80028ce:	68f8      	ldr	r0, [r7, #12]
 80028d0:	f7ff fea8 	bl	8002624 <u8x8_cad_SendArg>
      u8x8_cad_EndTransfer(u8x8);
 80028d4:	68f8      	ldr	r0, [r7, #12]
 80028d6:	f7ff feda 	bl	800268e <u8x8_cad_EndTransfer>
      break;
 80028da:	e001      	b.n	80028e0 <u8x8_d_st7565_common+0x104>
#endif
    default:
      return 0;
 80028dc:	2300      	movs	r3, #0
 80028de:	e000      	b.n	80028e2 <u8x8_d_st7565_common+0x106>
  }
  return 1;
 80028e0:	2301      	movs	r3, #1
}
 80028e2:	4618      	mov	r0, r3
 80028e4:	3718      	adds	r7, #24
 80028e6:	46bd      	mov	sp, r7
 80028e8:	bd80      	pop	{r7, pc}
 80028ea:	bf00      	nop
 80028ec:	08007b9c 	.word	0x08007b9c
 80028f0:	08007ba4 	.word	0x08007ba4

080028f4 <u8x8_d_st7565_64128n>:
  /* pixel_width = */ 128,
  /* pixel_height = */ 64
};

uint8_t u8x8_d_st7565_64128n(u8x8_t *u8x8, uint8_t msg, uint8_t arg_int, void *arg_ptr)
{
 80028f4:	b580      	push	{r7, lr}
 80028f6:	b084      	sub	sp, #16
 80028f8:	af00      	add	r7, sp, #0
 80028fa:	60f8      	str	r0, [r7, #12]
 80028fc:	607b      	str	r3, [r7, #4]
 80028fe:	460b      	mov	r3, r1
 8002900:	72fb      	strb	r3, [r7, #11]
 8002902:	4613      	mov	r3, r2
 8002904:	72bb      	strb	r3, [r7, #10]
  /* call common procedure first and handle messages there */
  if ( u8x8_d_st7565_common(u8x8, msg, arg_int, arg_ptr) == 0 )
 8002906:	7aba      	ldrb	r2, [r7, #10]
 8002908:	7af9      	ldrb	r1, [r7, #11]
 800290a:	687b      	ldr	r3, [r7, #4]
 800290c:	68f8      	ldr	r0, [r7, #12]
 800290e:	f7ff ff65 	bl	80027dc <u8x8_d_st7565_common>
 8002912:	4603      	mov	r3, r0
 8002914:	2b00      	cmp	r3, #0
 8002916:	d131      	bne.n	800297c <u8x8_d_st7565_64128n+0x88>
  {
    /* msg not handled, then try here */
    switch(msg)
 8002918:	7afb      	ldrb	r3, [r7, #11]
 800291a:	2b0d      	cmp	r3, #13
 800291c:	d013      	beq.n	8002946 <u8x8_d_st7565_64128n+0x52>
 800291e:	2b0d      	cmp	r3, #13
 8002920:	dc2a      	bgt.n	8002978 <u8x8_d_st7565_64128n+0x84>
 8002922:	2b09      	cmp	r3, #9
 8002924:	d002      	beq.n	800292c <u8x8_d_st7565_64128n+0x38>
 8002926:	2b0a      	cmp	r3, #10
 8002928:	d005      	beq.n	8002936 <u8x8_d_st7565_64128n+0x42>
 800292a:	e025      	b.n	8002978 <u8x8_d_st7565_64128n+0x84>
    {
      case U8X8_MSG_DISPLAY_SETUP_MEMORY:
	u8x8_d_helper_display_setup_memory(u8x8, &u8x8_st7565_64128n_display_info);
 800292c:	4916      	ldr	r1, [pc, #88]	@ (8002988 <u8x8_d_st7565_64128n+0x94>)
 800292e:	68f8      	ldr	r0, [r7, #12]
 8002930:	f000 f832 	bl	8002998 <u8x8_d_helper_display_setup_memory>
	break;
 8002934:	e022      	b.n	800297c <u8x8_d_st7565_64128n+0x88>
      case U8X8_MSG_DISPLAY_INIT:
	u8x8_d_helper_display_init(u8x8);
 8002936:	68f8      	ldr	r0, [r7, #12]
 8002938:	f000 f842 	bl	80029c0 <u8x8_d_helper_display_init>
	u8x8_cad_SendSequence(u8x8, u8x8_d_st7565_64128n_init_seq);
 800293c:	4913      	ldr	r1, [pc, #76]	@ (800298c <u8x8_d_st7565_64128n+0x98>)
 800293e:	68f8      	ldr	r0, [r7, #12]
 8002940:	f7ff feb5 	bl	80026ae <u8x8_cad_SendSequence>
	break;
 8002944:	e01a      	b.n	800297c <u8x8_d_st7565_64128n+0x88>
      case U8X8_MSG_DISPLAY_SET_FLIP_MODE:
	if ( arg_int == 0 )
 8002946:	7abb      	ldrb	r3, [r7, #10]
 8002948:	2b00      	cmp	r3, #0
 800294a:	d10a      	bne.n	8002962 <u8x8_d_st7565_64128n+0x6e>
	{
	  u8x8_cad_SendSequence(u8x8, u8x8_d_st7565_flip0_seq);
 800294c:	4910      	ldr	r1, [pc, #64]	@ (8002990 <u8x8_d_st7565_64128n+0x9c>)
 800294e:	68f8      	ldr	r0, [r7, #12]
 8002950:	f7ff fead 	bl	80026ae <u8x8_cad_SendSequence>
	  u8x8->x_offset = u8x8->display_info->default_x_offset;
 8002954:	68fb      	ldr	r3, [r7, #12]
 8002956:	681b      	ldr	r3, [r3, #0]
 8002958:	7c9a      	ldrb	r2, [r3, #18]
 800295a:	68fb      	ldr	r3, [r7, #12]
 800295c:	f883 2022 	strb.w	r2, [r3, #34]	@ 0x22
	else
	{
	  u8x8_cad_SendSequence(u8x8, u8x8_d_st7565_flip1_seq);
	  u8x8->x_offset = u8x8->display_info->flipmode_x_offset;
	}	
	break;
 8002960:	e00c      	b.n	800297c <u8x8_d_st7565_64128n+0x88>
	  u8x8_cad_SendSequence(u8x8, u8x8_d_st7565_flip1_seq);
 8002962:	490c      	ldr	r1, [pc, #48]	@ (8002994 <u8x8_d_st7565_64128n+0xa0>)
 8002964:	68f8      	ldr	r0, [r7, #12]
 8002966:	f7ff fea2 	bl	80026ae <u8x8_cad_SendSequence>
	  u8x8->x_offset = u8x8->display_info->flipmode_x_offset;
 800296a:	68fb      	ldr	r3, [r7, #12]
 800296c:	681b      	ldr	r3, [r3, #0]
 800296e:	7cda      	ldrb	r2, [r3, #19]
 8002970:	68fb      	ldr	r3, [r7, #12]
 8002972:	f883 2022 	strb.w	r2, [r3, #34]	@ 0x22
	break;
 8002976:	e001      	b.n	800297c <u8x8_d_st7565_64128n+0x88>
      default:
	return 0;		/* msg unknown */
 8002978:	2300      	movs	r3, #0
 800297a:	e000      	b.n	800297e <u8x8_d_st7565_64128n+0x8a>
    }
  }
  return 1;
 800297c:	2301      	movs	r3, #1
}
 800297e:	4618      	mov	r0, r3
 8002980:	3710      	adds	r7, #16
 8002982:	46bd      	mov	sp, r7
 8002984:	bd80      	pop	{r7, pc}
 8002986:	bf00      	nop
 8002988:	08007bdc 	.word	0x08007bdc
 800298c:	08007bbc 	.word	0x08007bbc
 8002990:	08007bac 	.word	0x08007bac
 8002994:	08007bb4 	.word	0x08007bb4

08002998 <u8x8_d_helper_display_setup_memory>:
  this is a helper function for the U8X8_MSG_DISPLAY_SETUP_MEMORY function.
  It can be called within the display callback function to carry out the usual standard tasks.
  
*/
void u8x8_d_helper_display_setup_memory(u8x8_t *u8x8, const u8x8_display_info_t *display_info)
{
 8002998:	b480      	push	{r7}
 800299a:	b083      	sub	sp, #12
 800299c:	af00      	add	r7, sp, #0
 800299e:	6078      	str	r0, [r7, #4]
 80029a0:	6039      	str	r1, [r7, #0]
      /* 1) set display info struct */
      u8x8->display_info = display_info;
 80029a2:	687b      	ldr	r3, [r7, #4]
 80029a4:	683a      	ldr	r2, [r7, #0]
 80029a6:	601a      	str	r2, [r3, #0]
      u8x8->x_offset = u8x8->display_info->default_x_offset;
 80029a8:	687b      	ldr	r3, [r7, #4]
 80029aa:	681b      	ldr	r3, [r3, #0]
 80029ac:	7c9a      	ldrb	r2, [r3, #18]
 80029ae:	687b      	ldr	r3, [r7, #4]
 80029b0:	f883 2022 	strb.w	r2, [r3, #34]	@ 0x22
}
 80029b4:	bf00      	nop
 80029b6:	370c      	adds	r7, #12
 80029b8:	46bd      	mov	sp, r7
 80029ba:	f85d 7b04 	ldr.w	r7, [sp], #4
 80029be:	4770      	bx	lr

080029c0 <u8x8_d_helper_display_init>:
  this is a helper function for the U8X8_MSG_DISPLAY_INIT function.
  It can be called within the display callback function to carry out the usual standard tasks.
  
*/
void u8x8_d_helper_display_init(u8x8_t *u8x8)
{
 80029c0:	b590      	push	{r4, r7, lr}
 80029c2:	b083      	sub	sp, #12
 80029c4:	af00      	add	r7, sp, #0
 80029c6:	6078      	str	r0, [r7, #4]
      /* 2) apply port directions to the GPIO lines and apply default values for the IO lines*/
      u8x8_gpio_Init(u8x8);
 80029c8:	687b      	ldr	r3, [r7, #4]
 80029ca:	695c      	ldr	r4, [r3, #20]
 80029cc:	2300      	movs	r3, #0
 80029ce:	2200      	movs	r2, #0
 80029d0:	2128      	movs	r1, #40	@ 0x28
 80029d2:	6878      	ldr	r0, [r7, #4]
 80029d4:	47a0      	blx	r4
      u8x8_cad_Init(u8x8);              /* this will also call U8X8_MSG_BYTE_INIT, byte init will NOT call GPIO_INIT */
 80029d6:	687b      	ldr	r3, [r7, #4]
 80029d8:	68dc      	ldr	r4, [r3, #12]
 80029da:	2300      	movs	r3, #0
 80029dc:	2200      	movs	r2, #0
 80029de:	2114      	movs	r1, #20
 80029e0:	6878      	ldr	r0, [r7, #4]
 80029e2:	47a0      	blx	r4

      /* 3) do reset */
      u8x8_gpio_SetReset(u8x8, 1);
 80029e4:	2201      	movs	r2, #1
 80029e6:	214b      	movs	r1, #75	@ 0x4b
 80029e8:	6878      	ldr	r0, [r7, #4]
 80029ea:	f000 f897 	bl	8002b1c <u8x8_gpio_call>
      u8x8_gpio_Delay(u8x8, U8X8_MSG_DELAY_MILLI, u8x8->display_info->reset_pulse_width_ms);
 80029ee:	687b      	ldr	r3, [r7, #4]
 80029f0:	681b      	ldr	r3, [r3, #0]
 80029f2:	791b      	ldrb	r3, [r3, #4]
 80029f4:	461a      	mov	r2, r3
 80029f6:	2129      	movs	r1, #41	@ 0x29
 80029f8:	6878      	ldr	r0, [r7, #4]
 80029fa:	f000 f88f 	bl	8002b1c <u8x8_gpio_call>
      u8x8_gpio_SetReset(u8x8, 0);
 80029fe:	2200      	movs	r2, #0
 8002a00:	214b      	movs	r1, #75	@ 0x4b
 8002a02:	6878      	ldr	r0, [r7, #4]
 8002a04:	f000 f88a 	bl	8002b1c <u8x8_gpio_call>
      u8x8_gpio_Delay(u8x8, U8X8_MSG_DELAY_MILLI, u8x8->display_info->reset_pulse_width_ms);
 8002a08:	687b      	ldr	r3, [r7, #4]
 8002a0a:	681b      	ldr	r3, [r3, #0]
 8002a0c:	791b      	ldrb	r3, [r3, #4]
 8002a0e:	461a      	mov	r2, r3
 8002a10:	2129      	movs	r1, #41	@ 0x29
 8002a12:	6878      	ldr	r0, [r7, #4]
 8002a14:	f000 f882 	bl	8002b1c <u8x8_gpio_call>
      u8x8_gpio_SetReset(u8x8, 1);
 8002a18:	2201      	movs	r2, #1
 8002a1a:	214b      	movs	r1, #75	@ 0x4b
 8002a1c:	6878      	ldr	r0, [r7, #4]
 8002a1e:	f000 f87d 	bl	8002b1c <u8x8_gpio_call>
      u8x8_gpio_Delay(u8x8, U8X8_MSG_DELAY_MILLI, u8x8->display_info->post_reset_wait_ms);
 8002a22:	687b      	ldr	r3, [r7, #4]
 8002a24:	681b      	ldr	r3, [r3, #0]
 8002a26:	795b      	ldrb	r3, [r3, #5]
 8002a28:	461a      	mov	r2, r3
 8002a2a:	2129      	movs	r1, #41	@ 0x29
 8002a2c:	6878      	ldr	r0, [r7, #4]
 8002a2e:	f000 f875 	bl	8002b1c <u8x8_gpio_call>
}    
 8002a32:	bf00      	nop
 8002a34:	370c      	adds	r7, #12
 8002a36:	46bd      	mov	sp, r7
 8002a38:	bd90      	pop	{r4, r7, pc}

08002a3a <u8x8_DrawTile>:

/*==========================================*/
/* official functions */

uint8_t u8x8_DrawTile(u8x8_t *u8x8, uint8_t x, uint8_t y, uint8_t cnt, uint8_t *tile_ptr)
{
 8002a3a:	b590      	push	{r4, r7, lr}
 8002a3c:	b085      	sub	sp, #20
 8002a3e:	af00      	add	r7, sp, #0
 8002a40:	6078      	str	r0, [r7, #4]
 8002a42:	4608      	mov	r0, r1
 8002a44:	4611      	mov	r1, r2
 8002a46:	461a      	mov	r2, r3
 8002a48:	4603      	mov	r3, r0
 8002a4a:	70fb      	strb	r3, [r7, #3]
 8002a4c:	460b      	mov	r3, r1
 8002a4e:	70bb      	strb	r3, [r7, #2]
 8002a50:	4613      	mov	r3, r2
 8002a52:	707b      	strb	r3, [r7, #1]
  u8x8_tile_t tile;
  tile.x_pos = x;
 8002a54:	78fb      	ldrb	r3, [r7, #3]
 8002a56:	737b      	strb	r3, [r7, #13]
  tile.y_pos = y;
 8002a58:	78bb      	ldrb	r3, [r7, #2]
 8002a5a:	73bb      	strb	r3, [r7, #14]
  tile.cnt = cnt;
 8002a5c:	787b      	ldrb	r3, [r7, #1]
 8002a5e:	733b      	strb	r3, [r7, #12]
  tile.tile_ptr = tile_ptr;
 8002a60:	6a3b      	ldr	r3, [r7, #32]
 8002a62:	60bb      	str	r3, [r7, #8]
  return u8x8->display_cb(u8x8, U8X8_MSG_DISPLAY_DRAW_TILE, 1, (void *)&tile);
 8002a64:	687b      	ldr	r3, [r7, #4]
 8002a66:	689c      	ldr	r4, [r3, #8]
 8002a68:	f107 0308 	add.w	r3, r7, #8
 8002a6c:	2201      	movs	r2, #1
 8002a6e:	210f      	movs	r1, #15
 8002a70:	6878      	ldr	r0, [r7, #4]
 8002a72:	47a0      	blx	r4
 8002a74:	4603      	mov	r3, r0
}
 8002a76:	4618      	mov	r0, r3
 8002a78:	3714      	adds	r7, #20
 8002a7a:	46bd      	mov	sp, r7
 8002a7c:	bd90      	pop	{r4, r7, pc}

08002a7e <u8x8_SetupMemory>:

/* should be implemented as macro */
void u8x8_SetupMemory(u8x8_t *u8x8)
{
 8002a7e:	b590      	push	{r4, r7, lr}
 8002a80:	b083      	sub	sp, #12
 8002a82:	af00      	add	r7, sp, #0
 8002a84:	6078      	str	r0, [r7, #4]
  u8x8->display_cb(u8x8, U8X8_MSG_DISPLAY_SETUP_MEMORY, 0, NULL);  
 8002a86:	687b      	ldr	r3, [r7, #4]
 8002a88:	689c      	ldr	r4, [r3, #8]
 8002a8a:	2300      	movs	r3, #0
 8002a8c:	2200      	movs	r2, #0
 8002a8e:	2109      	movs	r1, #9
 8002a90:	6878      	ldr	r0, [r7, #4]
 8002a92:	47a0      	blx	r4
}
 8002a94:	bf00      	nop
 8002a96:	370c      	adds	r7, #12
 8002a98:	46bd      	mov	sp, r7
 8002a9a:	bd90      	pop	{r4, r7, pc}

08002a9c <u8x8_InitDisplay>:
  In some cases it is not required to init the display (for example if the display is already running, but the controller comes out of deep sleep mode).
  Then InitDisplay can be skipped, but u8x8_InitInterface()  (== u8x8_gpio_Init() and u8x8_cad_Init()) need to be executed.

*/
void u8x8_InitDisplay(u8x8_t *u8x8)
{
 8002a9c:	b590      	push	{r4, r7, lr}
 8002a9e:	b083      	sub	sp, #12
 8002aa0:	af00      	add	r7, sp, #0
 8002aa2:	6078      	str	r0, [r7, #4]
  u8x8->display_cb(u8x8, U8X8_MSG_DISPLAY_INIT, 0, NULL);       /* this will call u8x8_d_helper_display_init() and send the init seqence to the display */
 8002aa4:	687b      	ldr	r3, [r7, #4]
 8002aa6:	689c      	ldr	r4, [r3, #8]
 8002aa8:	2300      	movs	r3, #0
 8002aaa:	2200      	movs	r2, #0
 8002aac:	210a      	movs	r1, #10
 8002aae:	6878      	ldr	r0, [r7, #4]
 8002ab0:	47a0      	blx	r4
  /* u8x8->display_cb(u8x8, U8X8_MSG_DISPLAY_SET_FLIP_MODE, 0, NULL);  */ /* It would make sense to call flip mode 0 here after U8X8_MSG_DISPLAY_INIT */
}
 8002ab2:	bf00      	nop
 8002ab4:	370c      	adds	r7, #12
 8002ab6:	46bd      	mov	sp, r7
 8002ab8:	bd90      	pop	{r4, r7, pc}

08002aba <u8x8_SetPowerSave>:

void u8x8_SetPowerSave(u8x8_t *u8x8, uint8_t is_enable)
{
 8002aba:	b590      	push	{r4, r7, lr}
 8002abc:	b083      	sub	sp, #12
 8002abe:	af00      	add	r7, sp, #0
 8002ac0:	6078      	str	r0, [r7, #4]
 8002ac2:	460b      	mov	r3, r1
 8002ac4:	70fb      	strb	r3, [r7, #3]
  u8x8->display_cb(u8x8, U8X8_MSG_DISPLAY_SET_POWER_SAVE, is_enable, NULL);  
 8002ac6:	687b      	ldr	r3, [r7, #4]
 8002ac8:	689c      	ldr	r4, [r3, #8]
 8002aca:	78fa      	ldrb	r2, [r7, #3]
 8002acc:	2300      	movs	r3, #0
 8002ace:	210b      	movs	r1, #11
 8002ad0:	6878      	ldr	r0, [r7, #4]
 8002ad2:	47a0      	blx	r4
}
 8002ad4:	bf00      	nop
 8002ad6:	370c      	adds	r7, #12
 8002ad8:	46bd      	mov	sp, r7
 8002ada:	bd90      	pop	{r4, r7, pc}

08002adc <u8x8_SetContrast>:
{
  u8x8->display_cb(u8x8, U8X8_MSG_DISPLAY_SET_FLIP_MODE, mode, NULL);  
}

void u8x8_SetContrast(u8x8_t *u8x8, uint8_t value)
{
 8002adc:	b590      	push	{r4, r7, lr}
 8002ade:	b083      	sub	sp, #12
 8002ae0:	af00      	add	r7, sp, #0
 8002ae2:	6078      	str	r0, [r7, #4]
 8002ae4:	460b      	mov	r3, r1
 8002ae6:	70fb      	strb	r3, [r7, #3]
  u8x8->display_cb(u8x8, U8X8_MSG_DISPLAY_SET_CONTRAST, value, NULL);  
 8002ae8:	687b      	ldr	r3, [r7, #4]
 8002aea:	689c      	ldr	r4, [r3, #8]
 8002aec:	78fa      	ldrb	r2, [r7, #3]
 8002aee:	2300      	movs	r3, #0
 8002af0:	210e      	movs	r1, #14
 8002af2:	6878      	ldr	r0, [r7, #4]
 8002af4:	47a0      	blx	r4
}
 8002af6:	bf00      	nop
 8002af8:	370c      	adds	r7, #12
 8002afa:	46bd      	mov	sp, r7
 8002afc:	bd90      	pop	{r4, r7, pc}

08002afe <u8x8_RefreshDisplay>:

void u8x8_RefreshDisplay(u8x8_t *u8x8)
{
 8002afe:	b590      	push	{r4, r7, lr}
 8002b00:	b083      	sub	sp, #12
 8002b02:	af00      	add	r7, sp, #0
 8002b04:	6078      	str	r0, [r7, #4]
  u8x8->display_cb(u8x8, U8X8_MSG_DISPLAY_REFRESH, 0, NULL);  
 8002b06:	687b      	ldr	r3, [r7, #4]
 8002b08:	689c      	ldr	r4, [r3, #8]
 8002b0a:	2300      	movs	r3, #0
 8002b0c:	2200      	movs	r2, #0
 8002b0e:	2110      	movs	r1, #16
 8002b10:	6878      	ldr	r0, [r7, #4]
 8002b12:	47a0      	blx	r4
}
 8002b14:	bf00      	nop
 8002b16:	370c      	adds	r7, #12
 8002b18:	46bd      	mov	sp, r7
 8002b1a:	bd90      	pop	{r4, r7, pc}

08002b1c <u8x8_gpio_call>:

#include "u8x8.h"


void u8x8_gpio_call(u8x8_t *u8x8, uint8_t msg, uint8_t arg)
{
 8002b1c:	b590      	push	{r4, r7, lr}
 8002b1e:	b083      	sub	sp, #12
 8002b20:	af00      	add	r7, sp, #0
 8002b22:	6078      	str	r0, [r7, #4]
 8002b24:	460b      	mov	r3, r1
 8002b26:	70fb      	strb	r3, [r7, #3]
 8002b28:	4613      	mov	r3, r2
 8002b2a:	70bb      	strb	r3, [r7, #2]
  u8x8->gpio_and_delay_cb(u8x8, msg, arg, NULL);
 8002b2c:	687b      	ldr	r3, [r7, #4]
 8002b2e:	695c      	ldr	r4, [r3, #20]
 8002b30:	78ba      	ldrb	r2, [r7, #2]
 8002b32:	78f9      	ldrb	r1, [r7, #3]
 8002b34:	2300      	movs	r3, #0
 8002b36:	6878      	ldr	r0, [r7, #4]
 8002b38:	47a0      	blx	r4
}
 8002b3a:	bf00      	nop
 8002b3c:	370c      	adds	r7, #12
 8002b3e:	46bd      	mov	sp, r7
 8002b40:	bd90      	pop	{r4, r7, pc}

08002b42 <u8x8_dummy_cb>:

#include "u8x8.h"

/* universal dummy callback, which will be default for all callbacks */
uint8_t u8x8_dummy_cb(U8X8_UNUSED u8x8_t *u8x8, U8X8_UNUSED uint8_t msg, U8X8_UNUSED uint8_t arg_int, U8X8_UNUSED void *arg_ptr)
{
 8002b42:	b480      	push	{r7}
 8002b44:	b085      	sub	sp, #20
 8002b46:	af00      	add	r7, sp, #0
 8002b48:	60f8      	str	r0, [r7, #12]
 8002b4a:	607b      	str	r3, [r7, #4]
 8002b4c:	460b      	mov	r3, r1
 8002b4e:	72fb      	strb	r3, [r7, #11]
 8002b50:	4613      	mov	r3, r2
 8002b52:	72bb      	strb	r3, [r7, #10]
  /* the dummy callback will not handle any message and will fail for all messages */
  return 0;
 8002b54:	2300      	movs	r3, #0
}
 8002b56:	4618      	mov	r0, r3
 8002b58:	3714      	adds	r7, #20
 8002b5a:	46bd      	mov	sp, r7
 8002b5c:	f85d 7b04 	ldr.w	r7, [sp], #4
 8002b60:	4770      	bx	lr
	...

08002b64 <u8x8_SetupDefaults>:
    Setup u8x8
  Args:
    u8x8	An empty u8x8 structure
*/
void u8x8_SetupDefaults(u8x8_t *u8x8)
{
 8002b64:	b480      	push	{r7}
 8002b66:	b083      	sub	sp, #12
 8002b68:	af00      	add	r7, sp, #0
 8002b6a:	6078      	str	r0, [r7, #4]
    u8x8->display_info = NULL;
 8002b6c:	687b      	ldr	r3, [r7, #4]
 8002b6e:	2200      	movs	r2, #0
 8002b70:	601a      	str	r2, [r3, #0]
    u8x8->display_cb = u8x8_dummy_cb;
 8002b72:	687b      	ldr	r3, [r7, #4]
 8002b74:	4a11      	ldr	r2, [pc, #68]	@ (8002bbc <u8x8_SetupDefaults+0x58>)
 8002b76:	609a      	str	r2, [r3, #8]
    u8x8->cad_cb = u8x8_dummy_cb;
 8002b78:	687b      	ldr	r3, [r7, #4]
 8002b7a:	4a10      	ldr	r2, [pc, #64]	@ (8002bbc <u8x8_SetupDefaults+0x58>)
 8002b7c:	60da      	str	r2, [r3, #12]
    u8x8->byte_cb = u8x8_dummy_cb;
 8002b7e:	687b      	ldr	r3, [r7, #4]
 8002b80:	4a0e      	ldr	r2, [pc, #56]	@ (8002bbc <u8x8_SetupDefaults+0x58>)
 8002b82:	611a      	str	r2, [r3, #16]
    u8x8->gpio_and_delay_cb = u8x8_dummy_cb;
 8002b84:	687b      	ldr	r3, [r7, #4]
 8002b86:	4a0d      	ldr	r2, [pc, #52]	@ (8002bbc <u8x8_SetupDefaults+0x58>)
 8002b88:	615a      	str	r2, [r3, #20]
    u8x8->is_font_inverse_mode = 0;
 8002b8a:	687b      	ldr	r3, [r7, #4]
 8002b8c:	2200      	movs	r2, #0
 8002b8e:	f883 2023 	strb.w	r2, [r3, #35]	@ 0x23
    //u8x8->device_address = 0;
    u8x8->utf8_state = 0;		/* also reset by u8x8_utf8_init */
 8002b92:	687b      	ldr	r3, [r7, #4]
 8002b94:	2200      	movs	r2, #0
 8002b96:	f883 2026 	strb.w	r2, [r3, #38]	@ 0x26
    u8x8->bus_clock = 0;		/* issue 769 */
 8002b9a:	687b      	ldr	r3, [r7, #4]
 8002b9c:	2200      	movs	r2, #0
 8002b9e:	619a      	str	r2, [r3, #24]
    u8x8->i2c_address = 255;
 8002ba0:	687b      	ldr	r3, [r7, #4]
 8002ba2:	22ff      	movs	r2, #255	@ 0xff
 8002ba4:	f883 2024 	strb.w	r2, [r3, #36]	@ 0x24
    u8x8->debounce_default_pin_state = 255;	/* assume all low active buttons */
 8002ba8:	687b      	ldr	r3, [r7, #4]
 8002baa:	22ff      	movs	r2, #255	@ 0xff
 8002bac:	f883 2028 	strb.w	r2, [r3, #40]	@ 0x28
    uint8_t i;
    for( i = 0; i < U8X8_PIN_CNT; i++ )
      u8x8->pins[i] = U8X8_PIN_NONE;
  }
#endif
}
 8002bb0:	bf00      	nop
 8002bb2:	370c      	adds	r7, #12
 8002bb4:	46bd      	mov	sp, r7
 8002bb6:	f85d 7b04 	ldr.w	r7, [sp], #4
 8002bba:	4770      	bx	lr
 8002bbc:	08002b43 	.word	0x08002b43

08002bc0 <u8x8_Setup>:
    byte_cb			Display controller/communication specific callback funtion
    gpio_and_delay_cb	Environment specific callback function

*/
void u8x8_Setup(u8x8_t *u8x8, u8x8_msg_cb display_cb, u8x8_msg_cb cad_cb, u8x8_msg_cb byte_cb, u8x8_msg_cb gpio_and_delay_cb)
{
 8002bc0:	b580      	push	{r7, lr}
 8002bc2:	b084      	sub	sp, #16
 8002bc4:	af00      	add	r7, sp, #0
 8002bc6:	60f8      	str	r0, [r7, #12]
 8002bc8:	60b9      	str	r1, [r7, #8]
 8002bca:	607a      	str	r2, [r7, #4]
 8002bcc:	603b      	str	r3, [r7, #0]
  /* setup defaults and reset pins to U8X8_PIN_NONE */
  u8x8_SetupDefaults(u8x8);
 8002bce:	68f8      	ldr	r0, [r7, #12]
 8002bd0:	f7ff ffc8 	bl	8002b64 <u8x8_SetupDefaults>

  /* setup specific callbacks */
  u8x8->display_cb = display_cb;
 8002bd4:	68fb      	ldr	r3, [r7, #12]
 8002bd6:	68ba      	ldr	r2, [r7, #8]
 8002bd8:	609a      	str	r2, [r3, #8]
  u8x8->cad_cb = cad_cb;
 8002bda:	68fb      	ldr	r3, [r7, #12]
 8002bdc:	687a      	ldr	r2, [r7, #4]
 8002bde:	60da      	str	r2, [r3, #12]
  u8x8->byte_cb = byte_cb;
 8002be0:	68fb      	ldr	r3, [r7, #12]
 8002be2:	683a      	ldr	r2, [r7, #0]
 8002be4:	611a      	str	r2, [r3, #16]
  u8x8->gpio_and_delay_cb = gpio_and_delay_cb;
 8002be6:	68fb      	ldr	r3, [r7, #12]
 8002be8:	69ba      	ldr	r2, [r7, #24]
 8002bea:	615a      	str	r2, [r3, #20]

  /* setup display info */
  u8x8_SetupMemory(u8x8);
 8002bec:	68f8      	ldr	r0, [r7, #12]
 8002bee:	f7ff ff46 	bl	8002a7e <u8x8_SetupMemory>
}
 8002bf2:	bf00      	nop
 8002bf4:	3710      	adds	r7, #16
 8002bf6:	46bd      	mov	sp, r7
 8002bf8:	bd80      	pop	{r7, pc}
	...

08002bfc <INA229_writeReg>:
/*
 *  ======== INA229_writeReg ========
 * Write register
 */
void INA229_writeReg(INA229_Handle sensor, uint8_t regAddr, uint16_t value)
{
 8002bfc:	b580      	push	{r7, lr}
 8002bfe:	b086      	sub	sp, #24
 8002c00:	af02      	add	r7, sp, #8
 8002c02:	6078      	str	r0, [r7, #4]
 8002c04:	460b      	mov	r3, r1
 8002c06:	70fb      	strb	r3, [r7, #3]
 8002c08:	4613      	mov	r3, r2
 8002c0a:	803b      	strh	r3, [r7, #0]
    uint8_t txBuf[3] = {0}; //All writable registers are 2 bytes
 8002c0c:	4b17      	ldr	r3, [pc, #92]	@ (8002c6c <INA229_writeReg+0x70>)
 8002c0e:	881b      	ldrh	r3, [r3, #0]
 8002c10:	81bb      	strh	r3, [r7, #12]
 8002c12:	2300      	movs	r3, #0
 8002c14:	73bb      	strb	r3, [r7, #14]
    uint8_t rxBuf[3] = {0};
 8002c16:	4b15      	ldr	r3, [pc, #84]	@ (8002c6c <INA229_writeReg+0x70>)
 8002c18:	881b      	ldrh	r3, [r3, #0]
 8002c1a:	813b      	strh	r3, [r7, #8]
 8002c1c:	2300      	movs	r3, #0
 8002c1e:	72bb      	strb	r3, [r7, #10]

    txBuf[0] = regAddr << 2; //Address + write bit (ending in 0)
 8002c20:	78fb      	ldrb	r3, [r7, #3]
 8002c22:	009b      	lsls	r3, r3, #2
 8002c24:	b2db      	uxtb	r3, r3
 8002c26:	733b      	strb	r3, [r7, #12]
    txBuf[1] = MSB(value);
 8002c28:	883b      	ldrh	r3, [r7, #0]
 8002c2a:	0a1b      	lsrs	r3, r3, #8
 8002c2c:	b29b      	uxth	r3, r3
 8002c2e:	b2db      	uxtb	r3, r3
 8002c30:	737b      	strb	r3, [r7, #13]
    txBuf[2] = LSB(value);
 8002c32:	883b      	ldrh	r3, [r7, #0]
 8002c34:	b2db      	uxtb	r3, r3
 8002c36:	73bb      	strb	r3, [r7, #14]
    mcu_spiTransfer(sensor->busId, sensor->devCS, 3, txBuf, rxBuf);
 8002c38:	687b      	ldr	r3, [r7, #4]
 8002c3a:	7f18      	ldrb	r0, [r3, #28]
 8002c3c:	687b      	ldr	r3, [r7, #4]
 8002c3e:	7f59      	ldrb	r1, [r3, #29]
 8002c40:	f107 020c 	add.w	r2, r7, #12
 8002c44:	f107 0308 	add.w	r3, r7, #8
 8002c48:	9300      	str	r3, [sp, #0]
 8002c4a:	4613      	mov	r3, r2
 8002c4c:	2203      	movs	r2, #3
 8002c4e:	f001 fa65 	bl	800411c <mcu_spiTransfer>

    //check for change in ADCRANGE 
    if(regAddr == INA229_config_register)
 8002c52:	78fb      	ldrb	r3, [r7, #3]
 8002c54:	2b00      	cmp	r3, #0
 8002c56:	d105      	bne.n	8002c64 <INA229_writeReg+0x68>
    {
        sensor->adcrange = value & INA229_config_register_adcrange_4096mV;
 8002c58:	883b      	ldrh	r3, [r7, #0]
 8002c5a:	f003 0310 	and.w	r3, r3, #16
 8002c5e:	b29a      	uxth	r2, r3
 8002c60:	687b      	ldr	r3, [r7, #4]
 8002c62:	82da      	strh	r2, [r3, #22]
    }
}
 8002c64:	bf00      	nop
 8002c66:	3710      	adds	r7, #16
 8002c68:	46bd      	mov	sp, r7
 8002c6a:	bd80      	pop	{r7, pc}
 8002c6c:	08006edc 	.word	0x08006edc

08002c70 <INA229_config>:
/*
 *  ======== INA229_config ========
 * Configure device with current settings.
 */
void INA229_config(INA229_Handle sensor)
{
 8002c70:	b580      	push	{r7, lr}
 8002c72:	b082      	sub	sp, #8
 8002c74:	af00      	add	r7, sp, #0
 8002c76:	6078      	str	r0, [r7, #4]
    //Initialize the bus containing this sensor
    mcu_spiInit(sensor->busId);
 8002c78:	687b      	ldr	r3, [r7, #4]
 8002c7a:	7f1b      	ldrb	r3, [r3, #28]
 8002c7c:	4618      	mov	r0, r3
 8002c7e:	f001 fa41 	bl	8004104 <mcu_spiInit>

    //Write sensor Configuration Registers
    INA229_writeReg(sensor, INA229_config_register, sensor->configRegister);
 8002c82:	687b      	ldr	r3, [r7, #4]
 8002c84:	881b      	ldrh	r3, [r3, #0]
 8002c86:	461a      	mov	r2, r3
 8002c88:	2100      	movs	r1, #0
 8002c8a:	6878      	ldr	r0, [r7, #4]
 8002c8c:	f7ff ffb6 	bl	8002bfc <INA229_writeReg>
    INA229_writeReg(sensor, INA229_adc_config_register, sensor->adcConfigRegister);
 8002c90:	687b      	ldr	r3, [r7, #4]
 8002c92:	885b      	ldrh	r3, [r3, #2]
 8002c94:	461a      	mov	r2, r3
 8002c96:	2101      	movs	r1, #1
 8002c98:	6878      	ldr	r0, [r7, #4]
 8002c9a:	f7ff ffaf 	bl	8002bfc <INA229_writeReg>
    INA229_writeReg(sensor, INA229_shunt_cal_register, sensor->shuntCalRegister);
 8002c9e:	687b      	ldr	r3, [r7, #4]
 8002ca0:	889b      	ldrh	r3, [r3, #4]
 8002ca2:	461a      	mov	r2, r3
 8002ca4:	2102      	movs	r1, #2
 8002ca6:	6878      	ldr	r0, [r7, #4]
 8002ca8:	f7ff ffa8 	bl	8002bfc <INA229_writeReg>
    INA229_writeReg(sensor, INA229_shunt_tempco_register, sensor->shuntTempcoRegister);
 8002cac:	687b      	ldr	r3, [r7, #4]
 8002cae:	88db      	ldrh	r3, [r3, #6]
 8002cb0:	461a      	mov	r2, r3
 8002cb2:	2103      	movs	r1, #3
 8002cb4:	6878      	ldr	r0, [r7, #4]
 8002cb6:	f7ff ffa1 	bl	8002bfc <INA229_writeReg>
    INA229_writeReg(sensor, INA229_diag_alrt_register, sensor->diagAlrtRegister);
 8002cba:	687b      	ldr	r3, [r7, #4]
 8002cbc:	891b      	ldrh	r3, [r3, #8]
 8002cbe:	461a      	mov	r2, r3
 8002cc0:	210b      	movs	r1, #11
 8002cc2:	6878      	ldr	r0, [r7, #4]
 8002cc4:	f7ff ff9a 	bl	8002bfc <INA229_writeReg>
    INA229_writeReg(sensor, INA229_sovl_register, sensor->sovlRegister);
 8002cc8:	687b      	ldr	r3, [r7, #4]
 8002cca:	895b      	ldrh	r3, [r3, #10]
 8002ccc:	461a      	mov	r2, r3
 8002cce:	210c      	movs	r1, #12
 8002cd0:	6878      	ldr	r0, [r7, #4]
 8002cd2:	f7ff ff93 	bl	8002bfc <INA229_writeReg>
    INA229_writeReg(sensor, INA229_suvl_register, sensor->suvlRegister);
 8002cd6:	687b      	ldr	r3, [r7, #4]
 8002cd8:	899b      	ldrh	r3, [r3, #12]
 8002cda:	461a      	mov	r2, r3
 8002cdc:	210d      	movs	r1, #13
 8002cde:	6878      	ldr	r0, [r7, #4]
 8002ce0:	f7ff ff8c 	bl	8002bfc <INA229_writeReg>
    INA229_writeReg(sensor, INA229_bovl_register, sensor->bovlRegister);
 8002ce4:	687b      	ldr	r3, [r7, #4]
 8002ce6:	89db      	ldrh	r3, [r3, #14]
 8002ce8:	461a      	mov	r2, r3
 8002cea:	210e      	movs	r1, #14
 8002cec:	6878      	ldr	r0, [r7, #4]
 8002cee:	f7ff ff85 	bl	8002bfc <INA229_writeReg>
    INA229_writeReg(sensor, INA229_buvl_register, sensor->buvlRegister);
 8002cf2:	687b      	ldr	r3, [r7, #4]
 8002cf4:	8a1b      	ldrh	r3, [r3, #16]
 8002cf6:	461a      	mov	r2, r3
 8002cf8:	210f      	movs	r1, #15
 8002cfa:	6878      	ldr	r0, [r7, #4]
 8002cfc:	f7ff ff7e 	bl	8002bfc <INA229_writeReg>
    INA229_writeReg(sensor, INA229_temp_limit_register, sensor->tempLimitRegister);
 8002d00:	687b      	ldr	r3, [r7, #4]
 8002d02:	8a5b      	ldrh	r3, [r3, #18]
 8002d04:	461a      	mov	r2, r3
 8002d06:	2110      	movs	r1, #16
 8002d08:	6878      	ldr	r0, [r7, #4]
 8002d0a:	f7ff ff77 	bl	8002bfc <INA229_writeReg>
    INA229_writeReg(sensor, INA229_pwr_limit_register, sensor->pwrLimitRegister);
 8002d0e:	687b      	ldr	r3, [r7, #4]
 8002d10:	8a9b      	ldrh	r3, [r3, #20]
 8002d12:	461a      	mov	r2, r3
 8002d14:	2111      	movs	r1, #17
 8002d16:	6878      	ldr	r0, [r7, #4]
 8002d18:	f7ff ff70 	bl	8002bfc <INA229_writeReg>

}
 8002d1c:	bf00      	nop
 8002d1e:	3708      	adds	r7, #8
 8002d20:	46bd      	mov	sp, r7
 8002d22:	bd80      	pop	{r7, pc}

08002d24 <INA229_readReg>:
/*
 *  ======== INA229_readReg ========
 *  Read register
 */
uint64_t INA229_readReg(INA229_Handle sensor, uint8_t regAddr)
{
 8002d24:	e92d 43f0 	stmdb	sp!, {r4, r5, r6, r7, r8, r9, lr}
 8002d28:	b08b      	sub	sp, #44	@ 0x2c
 8002d2a:	af02      	add	r7, sp, #8
 8002d2c:	6078      	str	r0, [r7, #4]
 8002d2e:	460b      	mov	r3, r1
 8002d30:	70fb      	strb	r3, [r7, #3]
    uint64_t value;
    int i;
    
    uint8_t txBuf[1] = {0};
 8002d32:	2300      	movs	r3, #0
 8002d34:	743b      	strb	r3, [r7, #16]
    uint8_t rxBuf[6] = {0}; //max buffer size
 8002d36:	2300      	movs	r3, #0
 8002d38:	60bb      	str	r3, [r7, #8]
 8002d3a:	2300      	movs	r3, #0
 8002d3c:	81bb      	strh	r3, [r7, #12]

    txBuf[0] = (regAddr << 2 ) | 0x01; //Address + read bit (ending in 1)
 8002d3e:	78fb      	ldrb	r3, [r7, #3]
 8002d40:	009b      	lsls	r3, r3, #2
 8002d42:	b25b      	sxtb	r3, r3
 8002d44:	f043 0301 	orr.w	r3, r3, #1
 8002d48:	b25b      	sxtb	r3, r3
 8002d4a:	b2db      	uxtb	r3, r3
 8002d4c:	743b      	strb	r3, [r7, #16]

    //Read register
    mcu_spiTransfer(sensor->busId, sensor->devCS, INA229_regSize[regAddr]+1, txBuf, rxBuf);
 8002d4e:	687b      	ldr	r3, [r7, #4]
 8002d50:	7f18      	ldrb	r0, [r3, #28]
 8002d52:	687b      	ldr	r3, [r7, #4]
 8002d54:	7f59      	ldrb	r1, [r3, #29]
 8002d56:	78fb      	ldrb	r3, [r7, #3]
 8002d58:	4a1f      	ldr	r2, [pc, #124]	@ (8002dd8 <INA229_readReg+0xb4>)
 8002d5a:	5cd3      	ldrb	r3, [r2, r3]
 8002d5c:	3301      	adds	r3, #1
 8002d5e:	b2da      	uxtb	r2, r3
 8002d60:	f107 0610 	add.w	r6, r7, #16
 8002d64:	f107 0308 	add.w	r3, r7, #8
 8002d68:	9300      	str	r3, [sp, #0]
 8002d6a:	4633      	mov	r3, r6
 8002d6c:	f001 f9d6 	bl	800411c <mcu_spiTransfer>

    //Combine bytes
    value = 0; // initialize to 0, toss rxBuf[0];
 8002d70:	f04f 0200 	mov.w	r2, #0
 8002d74:	f04f 0300 	mov.w	r3, #0
 8002d78:	e9c7 2306 	strd	r2, r3, [r7, #24]

    for(i = 1; i < INA229_regSize[regAddr]+1; i++)
 8002d7c:	2301      	movs	r3, #1
 8002d7e:	617b      	str	r3, [r7, #20]
 8002d80:	e01b      	b.n	8002dba <INA229_readReg+0x96>
    {
        value = (value << 8) | rxBuf[i];
 8002d82:	e9d7 0106 	ldrd	r0, r1, [r7, #24]
 8002d86:	f04f 0200 	mov.w	r2, #0
 8002d8a:	f04f 0300 	mov.w	r3, #0
 8002d8e:	020b      	lsls	r3, r1, #8
 8002d90:	ea43 6310 	orr.w	r3, r3, r0, lsr #24
 8002d94:	0202      	lsls	r2, r0, #8
 8002d96:	f107 0008 	add.w	r0, r7, #8
 8002d9a:	6979      	ldr	r1, [r7, #20]
 8002d9c:	4401      	add	r1, r0
 8002d9e:	7809      	ldrb	r1, [r1, #0]
 8002da0:	b2c9      	uxtb	r1, r1
 8002da2:	2000      	movs	r0, #0
 8002da4:	460c      	mov	r4, r1
 8002da6:	4605      	mov	r5, r0
 8002da8:	ea42 0804 	orr.w	r8, r2, r4
 8002dac:	ea43 0905 	orr.w	r9, r3, r5
 8002db0:	e9c7 8906 	strd	r8, r9, [r7, #24]
    for(i = 1; i < INA229_regSize[regAddr]+1; i++)
 8002db4:	697b      	ldr	r3, [r7, #20]
 8002db6:	3301      	adds	r3, #1
 8002db8:	617b      	str	r3, [r7, #20]
 8002dba:	78fb      	ldrb	r3, [r7, #3]
 8002dbc:	4a06      	ldr	r2, [pc, #24]	@ (8002dd8 <INA229_readReg+0xb4>)
 8002dbe:	5cd3      	ldrb	r3, [r2, r3]
 8002dc0:	461a      	mov	r2, r3
 8002dc2:	697b      	ldr	r3, [r7, #20]
 8002dc4:	4293      	cmp	r3, r2
 8002dc6:	dddc      	ble.n	8002d82 <INA229_readReg+0x5e>
    }

    return value;
 8002dc8:	e9d7 2306 	ldrd	r2, r3, [r7, #24]
}
 8002dcc:	4610      	mov	r0, r2
 8002dce:	4619      	mov	r1, r3
 8002dd0:	3724      	adds	r7, #36	@ 0x24
 8002dd2:	46bd      	mov	sp, r7
 8002dd4:	e8bd 83f0 	ldmia.w	sp!, {r4, r5, r6, r7, r8, r9, pc}
 8002dd8:	08007bf4 	.word	0x08007bf4
 8002ddc:	00000000 	.word	0x00000000

08002de0 <INA229_getVBUS_V>:
/*
 *  ======== INA229_getVBUS_V ========
 *  Get VBUS value (V)
 */
float INA229_getVBUS_V(INA229_Handle sensor)
{
 8002de0:	b580      	push	{r7, lr}
 8002de2:	b086      	sub	sp, #24
 8002de4:	af00      	add	r7, sp, #0
 8002de6:	6078      	str	r0, [r7, #4]
    uint64_t value = INA229_readReg(sensor, INA229_vbus_register);
 8002de8:	2105      	movs	r1, #5
 8002dea:	6878      	ldr	r0, [r7, #4]
 8002dec:	f7ff ff9a 	bl	8002d24 <INA229_readReg>
 8002df0:	e9c7 0102 	strd	r0, r1, [r7, #8]
    float data;

    //Remove reserved bits
    value = value >> 4;
 8002df4:	e9d7 0102 	ldrd	r0, r1, [r7, #8]
 8002df8:	f04f 0200 	mov.w	r2, #0
 8002dfc:	f04f 0300 	mov.w	r3, #0
 8002e00:	0902      	lsrs	r2, r0, #4
 8002e02:	ea42 7201 	orr.w	r2, r2, r1, lsl #28
 8002e06:	090b      	lsrs	r3, r1, #4
 8002e08:	e9c7 2302 	strd	r2, r3, [r7, #8]

    //Convert for 2's compliment and signed value (though always positive)
    if(value > 0x7FFFF)
 8002e0c:	e9d7 2302 	ldrd	r2, r3, [r7, #8]
 8002e10:	f5b2 2f00 	cmp.w	r2, #524288	@ 0x80000
 8002e14:	f173 0300 	sbcs.w	r3, r3, #0
 8002e18:	d30c      	bcc.n	8002e34 <INA229_getVBUS_V+0x54>
    {
        data = (float)value - 0x100000; //left for redundancy and error checking, should never get used
 8002e1a:	e9d7 0102 	ldrd	r0, r1, [r7, #8]
 8002e1e:	f7fd fecd 	bl	8000bbc <__aeabi_ul2f>
 8002e22:	ee07 0a10 	vmov	s14, r0
 8002e26:	eddf 7a1c 	vldr	s15, [pc, #112]	@ 8002e98 <INA229_getVBUS_V+0xb8>
 8002e2a:	ee77 7a67 	vsub.f32	s15, s14, s15
 8002e2e:	edc7 7a05 	vstr	s15, [r7, #20]
 8002e32:	e005      	b.n	8002e40 <INA229_getVBUS_V+0x60>
    }
    else
    {
        data = (float)value;
 8002e34:	e9d7 0102 	ldrd	r0, r1, [r7, #8]
 8002e38:	f7fd fec0 	bl	8000bbc <__aeabi_ul2f>
 8002e3c:	4603      	mov	r3, r0
 8002e3e:	617b      	str	r3, [r7, #20]
    }

    //Convert to V
    data = (data * 195.3125) / 1000000;
 8002e40:	6978      	ldr	r0, [r7, #20]
 8002e42:	f7fd fb39 	bl	80004b8 <__aeabi_f2d>
 8002e46:	a310      	add	r3, pc, #64	@ (adr r3, 8002e88 <INA229_getVBUS_V+0xa8>)
 8002e48:	e9d3 2300 	ldrd	r2, r3, [r3]
 8002e4c:	f7fd fb8c 	bl	8000568 <__aeabi_dmul>
 8002e50:	4602      	mov	r2, r0
 8002e52:	460b      	mov	r3, r1
 8002e54:	4610      	mov	r0, r2
 8002e56:	4619      	mov	r1, r3
 8002e58:	a30d      	add	r3, pc, #52	@ (adr r3, 8002e90 <INA229_getVBUS_V+0xb0>)
 8002e5a:	e9d3 2300 	ldrd	r2, r3, [r3]
 8002e5e:	f7fd fcad 	bl	80007bc <__aeabi_ddiv>
 8002e62:	4602      	mov	r2, r0
 8002e64:	460b      	mov	r3, r1
 8002e66:	4610      	mov	r0, r2
 8002e68:	4619      	mov	r1, r3
 8002e6a:	f7fd fd8f 	bl	800098c <__aeabi_d2f>
 8002e6e:	4603      	mov	r3, r0
 8002e70:	617b      	str	r3, [r7, #20]

    return data;
 8002e72:	697b      	ldr	r3, [r7, #20]
 8002e74:	ee07 3a90 	vmov	s15, r3
}
 8002e78:	eeb0 0a67 	vmov.f32	s0, s15
 8002e7c:	3718      	adds	r7, #24
 8002e7e:	46bd      	mov	sp, r7
 8002e80:	bd80      	pop	{r7, pc}
 8002e82:	bf00      	nop
 8002e84:	f3af 8000 	nop.w
 8002e88:	00000000 	.word	0x00000000
 8002e8c:	40686a00 	.word	0x40686a00
 8002e90:	00000000 	.word	0x00000000
 8002e94:	412e8480 	.word	0x412e8480
 8002e98:	49800000 	.word	0x49800000

08002e9c <INA229_getDIETEMP_C>:
/*
 *  ======== INA229_getDIETEMP_C ========
 *  Get DIETMEP value (C)
 */
float INA229_getDIETEMP_C(INA229_Handle sensor)
{
 8002e9c:	b580      	push	{r7, lr}
 8002e9e:	b086      	sub	sp, #24
 8002ea0:	af00      	add	r7, sp, #0
 8002ea2:	6078      	str	r0, [r7, #4]
    uint64_t value = INA229_readReg(sensor, INA229_dietemp_register);
 8002ea4:	2106      	movs	r1, #6
 8002ea6:	6878      	ldr	r0, [r7, #4]
 8002ea8:	f7ff ff3c 	bl	8002d24 <INA229_readReg>
 8002eac:	e9c7 0102 	strd	r0, r1, [r7, #8]
    float data;

    //Convert for 2's compliment and signed value
    if(value > 0x7FFF)
 8002eb0:	e9d7 2302 	ldrd	r2, r3, [r7, #8]
 8002eb4:	f5b2 4f00 	cmp.w	r2, #32768	@ 0x8000
 8002eb8:	f173 0300 	sbcs.w	r3, r3, #0
 8002ebc:	d30c      	bcc.n	8002ed8 <INA229_getDIETEMP_C+0x3c>
    {
        data = (float)value - 0x10000; 
 8002ebe:	e9d7 0102 	ldrd	r0, r1, [r7, #8]
 8002ec2:	f7fd fe7b 	bl	8000bbc <__aeabi_ul2f>
 8002ec6:	ee07 0a10 	vmov	s14, r0
 8002eca:	eddf 7a17 	vldr	s15, [pc, #92]	@ 8002f28 <INA229_getDIETEMP_C+0x8c>
 8002ece:	ee77 7a67 	vsub.f32	s15, s14, s15
 8002ed2:	edc7 7a05 	vstr	s15, [r7, #20]
 8002ed6:	e005      	b.n	8002ee4 <INA229_getDIETEMP_C+0x48>
    }
    else
    {
        data = (float)value;
 8002ed8:	e9d7 0102 	ldrd	r0, r1, [r7, #8]
 8002edc:	f7fd fe6e 	bl	8000bbc <__aeabi_ul2f>
 8002ee0:	4603      	mov	r3, r0
 8002ee2:	617b      	str	r3, [r7, #20]
    }

    //Convert to C
    data = (data * 7.8125) / 1000;
 8002ee4:	6978      	ldr	r0, [r7, #20]
 8002ee6:	f7fd fae7 	bl	80004b8 <__aeabi_f2d>
 8002eea:	f04f 0200 	mov.w	r2, #0
 8002eee:	4b0f      	ldr	r3, [pc, #60]	@ (8002f2c <INA229_getDIETEMP_C+0x90>)
 8002ef0:	f7fd fb3a 	bl	8000568 <__aeabi_dmul>
 8002ef4:	4602      	mov	r2, r0
 8002ef6:	460b      	mov	r3, r1
 8002ef8:	4610      	mov	r0, r2
 8002efa:	4619      	mov	r1, r3
 8002efc:	f04f 0200 	mov.w	r2, #0
 8002f00:	4b0b      	ldr	r3, [pc, #44]	@ (8002f30 <INA229_getDIETEMP_C+0x94>)
 8002f02:	f7fd fc5b 	bl	80007bc <__aeabi_ddiv>
 8002f06:	4602      	mov	r2, r0
 8002f08:	460b      	mov	r3, r1
 8002f0a:	4610      	mov	r0, r2
 8002f0c:	4619      	mov	r1, r3
 8002f0e:	f7fd fd3d 	bl	800098c <__aeabi_d2f>
 8002f12:	4603      	mov	r3, r0
 8002f14:	617b      	str	r3, [r7, #20]

    return data;
 8002f16:	697b      	ldr	r3, [r7, #20]
 8002f18:	ee07 3a90 	vmov	s15, r3
}
 8002f1c:	eeb0 0a67 	vmov.f32	s0, s15
 8002f20:	3718      	adds	r7, #24
 8002f22:	46bd      	mov	sp, r7
 8002f24:	bd80      	pop	{r7, pc}
 8002f26:	bf00      	nop
 8002f28:	47800000 	.word	0x47800000
 8002f2c:	401f4000 	.word	0x401f4000
 8002f30:	408f4000 	.word	0x408f4000

08002f34 <u8x8_stm32_gpio_and_delay>:
 */
static uint8_t u8x8_stm32_gpio_and_delay(u8x8_t * const u8x8,
                                           uint8_t msg,
                                           uint8_t arg_int,
                                           void * const arg_ptr)
{
 8002f34:	b580      	push	{r7, lr}
 8002f36:	b084      	sub	sp, #16
 8002f38:	af00      	add	r7, sp, #0
 8002f3a:	60f8      	str	r0, [r7, #12]
 8002f3c:	607b      	str	r3, [r7, #4]
 8002f3e:	460b      	mov	r3, r1
 8002f40:	72fb      	strb	r3, [r7, #11]
 8002f42:	4613      	mov	r3, r2
 8002f44:	72bb      	strb	r3, [r7, #10]
    /* Suppress unused parameter warnings */
    (void)u8x8;
    (void)arg_ptr;

    switch (msg)
 8002f46:	7afb      	ldrb	r3, [r7, #11]
 8002f48:	2b4b      	cmp	r3, #75	@ 0x4b
 8002f4a:	d01a      	beq.n	8002f82 <u8x8_stm32_gpio_and_delay+0x4e>
 8002f4c:	2b4b      	cmp	r3, #75	@ 0x4b
 8002f4e:	dc1f      	bgt.n	8002f90 <u8x8_stm32_gpio_and_delay+0x5c>
 8002f50:	2b4a      	cmp	r3, #74	@ 0x4a
 8002f52:	d00f      	beq.n	8002f74 <u8x8_stm32_gpio_and_delay+0x40>
 8002f54:	2b4a      	cmp	r3, #74	@ 0x4a
 8002f56:	dc1b      	bgt.n	8002f90 <u8x8_stm32_gpio_and_delay+0x5c>
 8002f58:	2b28      	cmp	r3, #40	@ 0x28
 8002f5a:	d002      	beq.n	8002f62 <u8x8_stm32_gpio_and_delay+0x2e>
 8002f5c:	2b29      	cmp	r3, #41	@ 0x29
 8002f5e:	d004      	beq.n	8002f6a <u8x8_stm32_gpio_and_delay+0x36>
        case U8X8_MSG_GPIO_RESET:
            HAL_GPIO_WritePin(DISPLAY_IO_1_GPIO_Port, DISPLAY_IO_1_Pin, (GPIO_PinState)arg_int);
            break;
        default:
            /* No action */
            break;
 8002f60:	e016      	b.n	8002f90 <u8x8_stm32_gpio_and_delay+0x5c>
            HAL_Delay(DISPLAY_UPDATE_DELAY_U32);
 8002f62:	2002      	movs	r0, #2
 8002f64:	f001 fb2c 	bl	80045c0 <HAL_Delay>
            break;
 8002f68:	e013      	b.n	8002f92 <u8x8_stm32_gpio_and_delay+0x5e>
            HAL_Delay(arg_int);
 8002f6a:	7abb      	ldrb	r3, [r7, #10]
 8002f6c:	4618      	mov	r0, r3
 8002f6e:	f001 fb27 	bl	80045c0 <HAL_Delay>
            break;
 8002f72:	e00e      	b.n	8002f92 <u8x8_stm32_gpio_and_delay+0x5e>
            HAL_GPIO_WritePin(DISPLAY_IO_2_GPIO_Port, DISPLAY_IO_2_Pin, (GPIO_PinState)arg_int);
 8002f74:	7abb      	ldrb	r3, [r7, #10]
 8002f76:	461a      	mov	r2, r3
 8002f78:	2108      	movs	r1, #8
 8002f7a:	4808      	ldr	r0, [pc, #32]	@ (8002f9c <u8x8_stm32_gpio_and_delay+0x68>)
 8002f7c:	f001 fdd6 	bl	8004b2c <HAL_GPIO_WritePin>
            break;
 8002f80:	e007      	b.n	8002f92 <u8x8_stm32_gpio_and_delay+0x5e>
            HAL_GPIO_WritePin(DISPLAY_IO_1_GPIO_Port, DISPLAY_IO_1_Pin, (GPIO_PinState)arg_int);
 8002f82:	7abb      	ldrb	r3, [r7, #10]
 8002f84:	461a      	mov	r2, r3
 8002f86:	2104      	movs	r1, #4
 8002f88:	4804      	ldr	r0, [pc, #16]	@ (8002f9c <u8x8_stm32_gpio_and_delay+0x68>)
 8002f8a:	f001 fdcf 	bl	8004b2c <HAL_GPIO_WritePin>
            break;
 8002f8e:	e000      	b.n	8002f92 <u8x8_stm32_gpio_and_delay+0x5e>
            break;
 8002f90:	bf00      	nop
    }
    return 1U;
 8002f92:	2301      	movs	r3, #1
}
 8002f94:	4618      	mov	r0, r3
 8002f96:	3710      	adds	r7, #16
 8002f98:	46bd      	mov	sp, r7
 8002f9a:	bd80      	pop	{r7, pc}
 8002f9c:	40021800 	.word	0x40021800

08002fa0 <u8x8_byte_4wire_hw_spi>:
 */
static uint8_t u8x8_byte_4wire_hw_spi(u8x8_t * const u8x8,
                                      uint8_t msg,
                                      uint8_t arg_int,
                                      void * const arg_ptr)
{
 8002fa0:	b580      	push	{r7, lr}
 8002fa2:	b086      	sub	sp, #24
 8002fa4:	af00      	add	r7, sp, #0
 8002fa6:	60f8      	str	r0, [r7, #12]
 8002fa8:	607b      	str	r3, [r7, #4]
 8002faa:	460b      	mov	r3, r1
 8002fac:	72fb      	strb	r3, [r7, #11]
 8002fae:	4613      	mov	r3, r2
 8002fb0:	72bb      	strb	r3, [r7, #10]
    uint8_t retVal = 1U;
 8002fb2:	2301      	movs	r3, #1
 8002fb4:	75fb      	strb	r3, [r7, #23]

    switch (msg)
 8002fb6:	7afb      	ldrb	r3, [r7, #11]
 8002fb8:	3b14      	subs	r3, #20
 8002fba:	2b0c      	cmp	r3, #12
 8002fbc:	d83e      	bhi.n	800303c <u8x8_byte_4wire_hw_spi+0x9c>
 8002fbe:	a201      	add	r2, pc, #4	@ (adr r2, 8002fc4 <u8x8_byte_4wire_hw_spi+0x24>)
 8002fc0:	f852 f023 	ldr.w	pc, [r2, r3, lsl #2]
 8002fc4:	08003043 	.word	0x08003043
 8002fc8:	0800303d 	.word	0x0800303d
 8002fcc:	0800303d 	.word	0x0800303d
 8002fd0:	08002ff9 	.word	0x08002ff9
 8002fd4:	08003019 	.word	0x08003019
 8002fd8:	0800302b 	.word	0x0800302b
 8002fdc:	0800303d 	.word	0x0800303d
 8002fe0:	0800303d 	.word	0x0800303d
 8002fe4:	0800303d 	.word	0x0800303d
 8002fe8:	0800303d 	.word	0x0800303d
 8002fec:	0800303d 	.word	0x0800303d
 8002ff0:	0800303d 	.word	0x0800303d
 8002ff4:	0800300b 	.word	0x0800300b
    {
        case U8X8_MSG_BYTE_SEND:
            (void)HAL_SPI_Transmit(&hspi3, (uint8_t *)arg_ptr, arg_int, SPI_TIMEOUT_U32);
 8002ff8:	7abb      	ldrb	r3, [r7, #10]
 8002ffa:	b29a      	uxth	r2, r3
 8002ffc:	f242 7310 	movw	r3, #10000	@ 0x2710
 8003000:	6879      	ldr	r1, [r7, #4]
 8003002:	4813      	ldr	r0, [pc, #76]	@ (8003050 <u8x8_byte_4wire_hw_spi+0xb0>)
 8003004:	f003 fb69 	bl	80066da <HAL_SPI_Transmit>
            break;
 8003008:	e01c      	b.n	8003044 <u8x8_byte_4wire_hw_spi+0xa4>
        case U8X8_MSG_BYTE_INIT:
            break;
        case U8X8_MSG_BYTE_SET_DC:
            HAL_GPIO_WritePin(DISPLAY_IO_2_GPIO_Port, DISPLAY_IO_2_Pin, (GPIO_PinState)arg_int);
 800300a:	7abb      	ldrb	r3, [r7, #10]
 800300c:	461a      	mov	r2, r3
 800300e:	2108      	movs	r1, #8
 8003010:	4810      	ldr	r0, [pc, #64]	@ (8003054 <u8x8_byte_4wire_hw_spi+0xb4>)
 8003012:	f001 fd8b 	bl	8004b2c <HAL_GPIO_WritePin>
            break;
 8003016:	e015      	b.n	8003044 <u8x8_byte_4wire_hw_spi+0xa4>
        case U8X8_MSG_BYTE_START_TRANSFER:
            HAL_GPIO_WritePin(DISPLAY_CS_GPIO_Port, DISPLAY_CS_Pin, u8x8->display_info->chip_enable_level);
 8003018:	68fb      	ldr	r3, [r7, #12]
 800301a:	681b      	ldr	r3, [r3, #0]
 800301c:	781b      	ldrb	r3, [r3, #0]
 800301e:	461a      	mov	r2, r3
 8003020:	2104      	movs	r1, #4
 8003022:	480d      	ldr	r0, [pc, #52]	@ (8003058 <u8x8_byte_4wire_hw_spi+0xb8>)
 8003024:	f001 fd82 	bl	8004b2c <HAL_GPIO_WritePin>
            break;
 8003028:	e00c      	b.n	8003044 <u8x8_byte_4wire_hw_spi+0xa4>
        case U8X8_MSG_BYTE_END_TRANSFER:
            HAL_GPIO_WritePin(DISPLAY_CS_GPIO_Port, DISPLAY_CS_Pin, u8x8->display_info->chip_disable_level);
 800302a:	68fb      	ldr	r3, [r7, #12]
 800302c:	681b      	ldr	r3, [r3, #0]
 800302e:	785b      	ldrb	r3, [r3, #1]
 8003030:	461a      	mov	r2, r3
 8003032:	2104      	movs	r1, #4
 8003034:	4808      	ldr	r0, [pc, #32]	@ (8003058 <u8x8_byte_4wire_hw_spi+0xb8>)
 8003036:	f001 fd79 	bl	8004b2c <HAL_GPIO_WritePin>
            break;
 800303a:	e003      	b.n	8003044 <u8x8_byte_4wire_hw_spi+0xa4>
        default:
            retVal = 0U;
 800303c:	2300      	movs	r3, #0
 800303e:	75fb      	strb	r3, [r7, #23]
            break;
 8003040:	e000      	b.n	8003044 <u8x8_byte_4wire_hw_spi+0xa4>
            break;
 8003042:	bf00      	nop
    }
    return retVal;
 8003044:	7dfb      	ldrb	r3, [r7, #23]
}
 8003046:	4618      	mov	r0, r3
 8003048:	3718      	adds	r7, #24
 800304a:	46bd      	mov	sp, r7
 800304c:	bd80      	pop	{r7, pc}
 800304e:	bf00      	nop
 8003050:	20000c14 	.word	0x20000c14
 8003054:	40021800 	.word	0x40021800
 8003058:	40020c00 	.word	0x40020c00

0800305c <Display_Init>:

/**
 * @brief Initializes the display hardware and u8g2 library.
 */
void Display_Init(void)
{
 800305c:	b580      	push	{r7, lr}
 800305e:	af00      	add	r7, sp, #0
    /* Turn on the backlight */
    HAL_GPIO_WritePin(BACKLIGHT_1_GPIO_Port, BACKLIGHT_1_Pin, GPIO_PIN_SET);
 8003060:	2201      	movs	r2, #1
 8003062:	2110      	movs	r1, #16
 8003064:	480c      	ldr	r0, [pc, #48]	@ (8003098 <Display_Init+0x3c>)
 8003066:	f001 fd61 	bl	8004b2c <HAL_GPIO_WritePin>

    /* Setup u8g2 for the ST7565 display.
       Adjust the setup function if your display type differs. */
    u8g2_Setup_st7565_64128n_f(&u8g2, U8G2_R2, u8x8_byte_4wire_hw_spi, u8x8_stm32_gpio_and_delay);
 800306a:	4b0c      	ldr	r3, [pc, #48]	@ (800309c <Display_Init+0x40>)
 800306c:	4a0c      	ldr	r2, [pc, #48]	@ (80030a0 <Display_Init+0x44>)
 800306e:	490d      	ldr	r1, [pc, #52]	@ (80030a4 <Display_Init+0x48>)
 8003070:	480d      	ldr	r0, [pc, #52]	@ (80030a8 <Display_Init+0x4c>)
 8003072:	f7fe f905 	bl	8001280 <u8g2_Setup_st7565_64128n_f>
    u8g2_InitDisplay(&u8g2);
 8003076:	480c      	ldr	r0, [pc, #48]	@ (80030a8 <Display_Init+0x4c>)
 8003078:	f7ff fd10 	bl	8002a9c <u8x8_InitDisplay>
    u8g2_SetPowerSave(&u8g2, 0);
 800307c:	2100      	movs	r1, #0
 800307e:	480a      	ldr	r0, [pc, #40]	@ (80030a8 <Display_Init+0x4c>)
 8003080:	f7ff fd1b 	bl	8002aba <u8x8_SetPowerSave>
    u8g2_ClearDisplay(&u8g2);
 8003084:	4808      	ldr	r0, [pc, #32]	@ (80030a8 <Display_Init+0x4c>)
 8003086:	f7fe f8d5 	bl	8001234 <u8g2_ClearDisplay>
    u8g2_SetContrast(&u8g2, CONTRAST_VALUE_U8);
 800308a:	2178      	movs	r1, #120	@ 0x78
 800308c:	4806      	ldr	r0, [pc, #24]	@ (80030a8 <Display_Init+0x4c>)
 800308e:	f7ff fd25 	bl	8002adc <u8x8_SetContrast>
}
 8003092:	bf00      	nop
 8003094:	bd80      	pop	{r7, pc}
 8003096:	bf00      	nop
 8003098:	40021800 	.word	0x40021800
 800309c:	08002f35 	.word	0x08002f35
 80030a0:	08002fa1 	.word	0x08002fa1
 80030a4:	08007b90 	.word	0x08007b90
 80030a8:	20000a08 	.word	0x20000a08

080030ac <Display_MainTitlePage>:
 * @brief Displays the main title page.
 *
 * This function draws the main title page with a logo and text.
 */
void Display_MainTitlePage(void)
{
 80030ac:	b580      	push	{r7, lr}
 80030ae:	b082      	sub	sp, #8
 80030b0:	af02      	add	r7, sp, #8
    do
    {
        /* Begin a new page */
        u8g2_FirstPage(&u8g2);
 80030b2:	4824      	ldr	r0, [pc, #144]	@ (8003144 <Display_MainTitlePage+0x98>)
 80030b4:	f7fe f87c 	bl	80011b0 <u8g2_FirstPage>
        do
        {
            /* Draw the logo image */
            u8g2_DrawXBM(&u8g2, 0, 0, 128, 64, logo);
 80030b8:	4b23      	ldr	r3, [pc, #140]	@ (8003148 <Display_MainTitlePage+0x9c>)
 80030ba:	9301      	str	r3, [sp, #4]
 80030bc:	2340      	movs	r3, #64	@ 0x40
 80030be:	9300      	str	r3, [sp, #0]
 80030c0:	2380      	movs	r3, #128	@ 0x80
 80030c2:	2200      	movs	r2, #0
 80030c4:	2100      	movs	r1, #0
 80030c6:	481f      	ldr	r0, [pc, #124]	@ (8003144 <Display_MainTitlePage+0x98>)
 80030c8:	f7fd ffa4 	bl	8001014 <u8g2_DrawXBM>
        }
        while (u8g2_NextPage(&u8g2) != 0U);
 80030cc:	481d      	ldr	r0, [pc, #116]	@ (8003144 <Display_MainTitlePage+0x98>)
 80030ce:	f7fe f883 	bl	80011d8 <u8g2_NextPage>
 80030d2:	4603      	mov	r3, r0
 80030d4:	2b00      	cmp	r3, #0
 80030d6:	d1ef      	bne.n	80030b8 <Display_MainTitlePage+0xc>

        HAL_Delay(PAGE_DELAY_U32);
 80030d8:	f44f 707a 	mov.w	r0, #1000	@ 0x3e8
 80030dc:	f001 fa70 	bl	80045c0 <HAL_Delay>

        /* Clear the buffer and draw title text */
        u8g2_ClearBuffer(&u8g2);
 80030e0:	4818      	ldr	r0, [pc, #96]	@ (8003144 <Display_MainTitlePage+0x98>)
 80030e2:	f7fd ffda 	bl	800109a <u8g2_ClearBuffer>
        u8g2_SetFont(&u8g2, u8g2_font_fub11_tf);
 80030e6:	4919      	ldr	r1, [pc, #100]	@ (800314c <Display_MainTitlePage+0xa0>)
 80030e8:	4816      	ldr	r0, [pc, #88]	@ (8003144 <Display_MainTitlePage+0x98>)
 80030ea:	f7fe fe79 	bl	8001de0 <u8g2_SetFont>
        u8g2_DrawStr(&u8g2, 42, 16, "VEGA");
 80030ee:	4b18      	ldr	r3, [pc, #96]	@ (8003150 <Display_MainTitlePage+0xa4>)
 80030f0:	2210      	movs	r2, #16
 80030f2:	212a      	movs	r1, #42	@ 0x2a
 80030f4:	4813      	ldr	r0, [pc, #76]	@ (8003144 <Display_MainTitlePage+0x98>)
 80030f6:	f7fe fdd1 	bl	8001c9c <u8g2_DrawStr>
        u8g2_SetFont(&u8g2, u8g2_font_fub11_tf);
 80030fa:	4914      	ldr	r1, [pc, #80]	@ (800314c <Display_MainTitlePage+0xa0>)
 80030fc:	4811      	ldr	r0, [pc, #68]	@ (8003144 <Display_MainTitlePage+0x98>)
 80030fe:	f7fe fe6f 	bl	8001de0 <u8g2_SetFont>
        u8g2_DrawStr(&u8g2, 6, 33, "INNOVATIONS");
 8003102:	4b14      	ldr	r3, [pc, #80]	@ (8003154 <Display_MainTitlePage+0xa8>)
 8003104:	2221      	movs	r2, #33	@ 0x21
 8003106:	2106      	movs	r1, #6
 8003108:	480e      	ldr	r0, [pc, #56]	@ (8003144 <Display_MainTitlePage+0x98>)
 800310a:	f7fe fdc7 	bl	8001c9c <u8g2_DrawStr>
        HAL_Delay(TEXT_DELAY_U32);
 800310e:	200a      	movs	r0, #10
 8003110:	f001 fa56 	bl	80045c0 <HAL_Delay>
        u8g2_ClearBuffer(&u8g2);
 8003114:	480b      	ldr	r0, [pc, #44]	@ (8003144 <Display_MainTitlePage+0x98>)
 8003116:	f7fd ffc0 	bl	800109a <u8g2_ClearBuffer>
    }
    while (u8g2_NextPage(&u8g2) != 0U);
 800311a:	480a      	ldr	r0, [pc, #40]	@ (8003144 <Display_MainTitlePage+0x98>)
 800311c:	f7fe f85c 	bl	80011d8 <u8g2_NextPage>
 8003120:	4603      	mov	r3, r0
 8003122:	2b00      	cmp	r3, #0
 8003124:	d1c5      	bne.n	80030b2 <Display_MainTitlePage+0x6>

    HAL_Delay(FINAL_PAGE_DELAY_U32);
 8003126:	f44f 60fa 	mov.w	r0, #2000	@ 0x7d0
 800312a:	f001 fa49 	bl	80045c0 <HAL_Delay>

    u8g2_ClearBuffer(&u8g2);
 800312e:	4805      	ldr	r0, [pc, #20]	@ (8003144 <Display_MainTitlePage+0x98>)
 8003130:	f7fd ffb3 	bl	800109a <u8g2_ClearBuffer>

    HAL_GPIO_WritePin(BACKLIGHT_1_GPIO_Port, BACKLIGHT_1_Pin, GPIO_PIN_RESET);
 8003134:	2200      	movs	r2, #0
 8003136:	2110      	movs	r1, #16
 8003138:	4807      	ldr	r0, [pc, #28]	@ (8003158 <Display_MainTitlePage+0xac>)
 800313a:	f001 fcf7 	bl	8004b2c <HAL_GPIO_WritePin>
}
 800313e:	bf00      	nop
 8003140:	46bd      	mov	sp, r7
 8003142:	bd80      	pop	{r7, pc}
 8003144:	20000a08 	.word	0x20000a08
 8003148:	200001a0 	.word	0x200001a0
 800314c:	08006f38 	.word	0x08006f38
 8003150:	08006ee0 	.word	0x08006ee0
 8003154:	08006ee8 	.word	0x08006ee8
 8003158:	40021800 	.word	0x40021800

0800315c <Expander_InitPinDirections>:
 * @param hi2c          Pointer to the I2C handle.
 * @param deviceAddress I2C address of the expander.
 * @return HAL_StatusTypeDef HAL_OK if successful, or an error code.
 */
HAL_StatusTypeDef Expander_InitPinDirections(I2C_HandleTypeDef *hi2c, uint8_t deviceAddress)
{
 800315c:	b580      	push	{r7, lr}
 800315e:	b088      	sub	sp, #32
 8003160:	af04      	add	r7, sp, #16
 8003162:	6078      	str	r0, [r7, #4]
 8003164:	460b      	mov	r3, r1
 8003166:	70fb      	strb	r3, [r7, #3]
    HAL_StatusTypeDef status;
    uint8_t port0_config = 0;
 8003168:	2300      	movs	r3, #0
 800316a:	73bb      	strb	r3, [r7, #14]

    // Build Port 0 configuration mask using the defined direction macros:
    port0_config |= (ALERT_PIN_CELL_01_DIR == PIN_INPUT) ? ALERT_PIN_CELL_01 : 0;
 800316c:	7bbb      	ldrb	r3, [r7, #14]
 800316e:	f043 0301 	orr.w	r3, r3, #1
 8003172:	b2db      	uxtb	r3, r3
 8003174:	73bb      	strb	r3, [r7, #14]
    port0_config |= (CELL_01_VOLTAGE_01_DIR == PIN_INPUT) ? CELL_01_VOLTAGE_01 : 0;
 8003176:	7bbb      	ldrb	r3, [r7, #14]
 8003178:	73bb      	strb	r3, [r7, #14]
    port0_config |= (CELL_01_VOLTAGE_02_DIR == PIN_INPUT) ? CELL_01_VOLTAGE_02 : 0;
 800317a:	7bbb      	ldrb	r3, [r7, #14]
 800317c:	73bb      	strb	r3, [r7, #14]
    port0_config |= (CELL_01_VOLTAGE_03_DIR == PIN_INPUT) ? CELL_01_VOLTAGE_03 : 0;
 800317e:	7bbb      	ldrb	r3, [r7, #14]
 8003180:	73bb      	strb	r3, [r7, #14]
    port0_config |= (CELL_01_LED_01_DIR       == PIN_INPUT) ? CELL_01_LED_01       : 0;
 8003182:	7bbb      	ldrb	r3, [r7, #14]
 8003184:	73bb      	strb	r3, [r7, #14]
    port0_config |= (CELL_02_VOLTAGE_03_DIR == PIN_INPUT) ? CELL_02_VOLTAGE_03 : 0;
 8003186:	7bbb      	ldrb	r3, [r7, #14]
 8003188:	73bb      	strb	r3, [r7, #14]
    port0_config |= (CELL_02_VOLTAGE_02_DIR == PIN_INPUT) ? CELL_02_VOLTAGE_02 : 0;
 800318a:	7bbb      	ldrb	r3, [r7, #14]
 800318c:	73bb      	strb	r3, [r7, #14]
    port0_config |= (CELL_02_VOLTAGE_01_DIR == PIN_INPUT) ? CELL_02_VOLTAGE_01 : 0;
 800318e:	7bbb      	ldrb	r3, [r7, #14]
 8003190:	73bb      	strb	r3, [r7, #14]

    // For Port 1, use the corresponding direction macros if needed.
    // In this example, we build Port 1 configuration mask similarly:
    uint8_t port1_config = 0;
 8003192:	2300      	movs	r3, #0
 8003194:	737b      	strb	r3, [r7, #13]
    port1_config |= (ALERT_PIN_CELL_02_DIR   == PIN_INPUT) ? (1U << 0) : 0;
 8003196:	7b7b      	ldrb	r3, [r7, #13]
 8003198:	f043 0301 	orr.w	r3, r3, #1
 800319c:	b2db      	uxtb	r3, r3
 800319e:	737b      	strb	r3, [r7, #13]
    port1_config |= (CELL_02_LED_01_DIR      == PIN_INPUT) ? (1U << 1) : 0;
 80031a0:	7b7b      	ldrb	r3, [r7, #13]
 80031a2:	737b      	strb	r3, [r7, #13]
    port1_config |= (CELL_03_LED_01_DIR      == PIN_INPUT) ? (1U << 2) : 0;
 80031a4:	7b7b      	ldrb	r3, [r7, #13]
 80031a6:	737b      	strb	r3, [r7, #13]
    port1_config |= (EXPANDER_FAN_CTRL_DIR   == PIN_INPUT) ? (1U << 3) : 0;
 80031a8:	7b7b      	ldrb	r3, [r7, #13]
 80031aa:	f043 0308 	orr.w	r3, r3, #8
 80031ae:	b2db      	uxtb	r3, r3
 80031b0:	737b      	strb	r3, [r7, #13]
    port1_config |= (CELL_03_VOLTAGE_03_DIR  == PIN_INPUT) ? (1U << 4) : 0;
 80031b2:	7b7b      	ldrb	r3, [r7, #13]
 80031b4:	737b      	strb	r3, [r7, #13]
    port1_config |= (CELL_03_VOLTAGE_02_DIR  == PIN_INPUT) ? (1U << 5) : 0;
 80031b6:	7b7b      	ldrb	r3, [r7, #13]
 80031b8:	737b      	strb	r3, [r7, #13]
    port1_config |= (CELL_03_VOLTAGE_01_DIR  == PIN_INPUT) ? (1U << 6) : 0;
 80031ba:	7b7b      	ldrb	r3, [r7, #13]
 80031bc:	737b      	strb	r3, [r7, #13]
    port1_config |= (ALERT_PIN_CELL_03_DIR   == PIN_INPUT) ? (1U << 7) : 0;
 80031be:	7b7b      	ldrb	r3, [r7, #13]
 80031c0:	737b      	strb	r3, [r7, #13]

    // Write configuration to Port 0 register.
    status = HAL_I2C_Mem_Write(hi2c,
 80031c2:	78fb      	ldrb	r3, [r7, #3]
 80031c4:	b29b      	uxth	r3, r3
 80031c6:	005b      	lsls	r3, r3, #1
 80031c8:	b299      	uxth	r1, r3
 80031ca:	2364      	movs	r3, #100	@ 0x64
 80031cc:	9302      	str	r3, [sp, #8]
 80031ce:	2301      	movs	r3, #1
 80031d0:	9301      	str	r3, [sp, #4]
 80031d2:	f107 030e 	add.w	r3, r7, #14
 80031d6:	9300      	str	r3, [sp, #0]
 80031d8:	2301      	movs	r3, #1
 80031da:	2206      	movs	r2, #6
 80031dc:	6878      	ldr	r0, [r7, #4]
 80031de:	f001 fe03 	bl	8004de8 <HAL_I2C_Mem_Write>
 80031e2:	4603      	mov	r3, r0
 80031e4:	73fb      	strb	r3, [r7, #15]
                               PCA9535_REG_CONFIG_PORT0,
                               I2C_MEMADD_SIZE_8BIT,
                               &port0_config,
                               1,
                               EXPANDER_I2C_TIMEOUT);
    if (status != HAL_OK)
 80031e6:	7bfb      	ldrb	r3, [r7, #15]
 80031e8:	2b00      	cmp	r3, #0
 80031ea:	d001      	beq.n	80031f0 <Expander_InitPinDirections+0x94>
    {
        return status;
 80031ec:	7bfb      	ldrb	r3, [r7, #15]
 80031ee:	e012      	b.n	8003216 <Expander_InitPinDirections+0xba>
    }

    // Write configuration to Port 1 register.
    status = HAL_I2C_Mem_Write(hi2c,
 80031f0:	78fb      	ldrb	r3, [r7, #3]
 80031f2:	b29b      	uxth	r3, r3
 80031f4:	005b      	lsls	r3, r3, #1
 80031f6:	b299      	uxth	r1, r3
 80031f8:	2364      	movs	r3, #100	@ 0x64
 80031fa:	9302      	str	r3, [sp, #8]
 80031fc:	2301      	movs	r3, #1
 80031fe:	9301      	str	r3, [sp, #4]
 8003200:	f107 030d 	add.w	r3, r7, #13
 8003204:	9300      	str	r3, [sp, #0]
 8003206:	2301      	movs	r3, #1
 8003208:	2207      	movs	r2, #7
 800320a:	6878      	ldr	r0, [r7, #4]
 800320c:	f001 fdec 	bl	8004de8 <HAL_I2C_Mem_Write>
 8003210:	4603      	mov	r3, r0
 8003212:	73fb      	strb	r3, [r7, #15]
                               PCA9535_REG_CONFIG_PORT1,
                               I2C_MEMADD_SIZE_8BIT,
                               &port1_config,
                               1,
                               EXPANDER_I2C_TIMEOUT);
    return status;
 8003214:	7bfb      	ldrb	r3, [r7, #15]
}
 8003216:	4618      	mov	r0, r3
 8003218:	3710      	adds	r7, #16
 800321a:	46bd      	mov	sp, r7
 800321c:	bd80      	pop	{r7, pc}

0800321e <Expander_SetPinState>:
 */
HAL_StatusTypeDef Expander_SetPinState(I2C_HandleTypeDef *hi2c,
                                       uint8_t deviceAddress,
                                       uint16_t pin,
                                       uint8_t state)
{
 800321e:	b580      	push	{r7, lr}
 8003220:	b088      	sub	sp, #32
 8003222:	af04      	add	r7, sp, #16
 8003224:	6078      	str	r0, [r7, #4]
 8003226:	4608      	mov	r0, r1
 8003228:	4611      	mov	r1, r2
 800322a:	461a      	mov	r2, r3
 800322c:	4603      	mov	r3, r0
 800322e:	70fb      	strb	r3, [r7, #3]
 8003230:	460b      	mov	r3, r1
 8003232:	803b      	strh	r3, [r7, #0]
 8003234:	4613      	mov	r3, r2
 8003236:	70bb      	strb	r3, [r7, #2]
    HAL_StatusTypeDef status;
    uint8_t regAddress;
    uint8_t currentOutput;

    // Determine which port the pin belongs to.
    if ((pin & 0xFF00) == 0)
 8003238:	883b      	ldrh	r3, [r7, #0]
 800323a:	f403 437f 	and.w	r3, r3, #65280	@ 0xff00
 800323e:	2b00      	cmp	r3, #0
 8003240:	d142      	bne.n	80032c8 <Expander_SetPinState+0xaa>
    {
        // Pin belongs to Port 0.
        regAddress = PCA9535_REG_OUTPUT_PORT0;
 8003242:	2302      	movs	r3, #2
 8003244:	73fb      	strb	r3, [r7, #15]
        status = HAL_I2C_Mem_Read(hi2c,
 8003246:	78fb      	ldrb	r3, [r7, #3]
 8003248:	b29b      	uxth	r3, r3
 800324a:	005b      	lsls	r3, r3, #1
 800324c:	b299      	uxth	r1, r3
 800324e:	7bfb      	ldrb	r3, [r7, #15]
 8003250:	b29a      	uxth	r2, r3
 8003252:	2364      	movs	r3, #100	@ 0x64
 8003254:	9302      	str	r3, [sp, #8]
 8003256:	2301      	movs	r3, #1
 8003258:	9301      	str	r3, [sp, #4]
 800325a:	f107 030c 	add.w	r3, r7, #12
 800325e:	9300      	str	r3, [sp, #0]
 8003260:	2301      	movs	r3, #1
 8003262:	6878      	ldr	r0, [r7, #4]
 8003264:	f001 feba 	bl	8004fdc <HAL_I2C_Mem_Read>
 8003268:	4603      	mov	r3, r0
 800326a:	73bb      	strb	r3, [r7, #14]
                                  regAddress,
                                  I2C_MEMADD_SIZE_8BIT,
                                  &currentOutput,
                                  1,
                                  EXPANDER_I2C_TIMEOUT);
        if (status != HAL_OK) {
 800326c:	7bbb      	ldrb	r3, [r7, #14]
 800326e:	2b00      	cmp	r3, #0
 8003270:	d001      	beq.n	8003276 <Expander_SetPinState+0x58>
            return status;
 8003272:	7bbb      	ldrb	r3, [r7, #14]
 8003274:	e073      	b.n	800335e <Expander_SetPinState+0x140>
        }
        if (state == HIGH) {
 8003276:	78bb      	ldrb	r3, [r7, #2]
 8003278:	2b01      	cmp	r3, #1
 800327a:	d106      	bne.n	800328a <Expander_SetPinState+0x6c>
            currentOutput |= (uint8_t)pin;
 800327c:	883b      	ldrh	r3, [r7, #0]
 800327e:	b2da      	uxtb	r2, r3
 8003280:	7b3b      	ldrb	r3, [r7, #12]
 8003282:	4313      	orrs	r3, r2
 8003284:	b2db      	uxtb	r3, r3
 8003286:	733b      	strb	r3, [r7, #12]
 8003288:	e009      	b.n	800329e <Expander_SetPinState+0x80>
        } else {
            currentOutput &= ~(uint8_t)pin;
 800328a:	883b      	ldrh	r3, [r7, #0]
 800328c:	b25b      	sxtb	r3, r3
 800328e:	43db      	mvns	r3, r3
 8003290:	b25a      	sxtb	r2, r3
 8003292:	7b3b      	ldrb	r3, [r7, #12]
 8003294:	b25b      	sxtb	r3, r3
 8003296:	4013      	ands	r3, r2
 8003298:	b25b      	sxtb	r3, r3
 800329a:	b2db      	uxtb	r3, r3
 800329c:	733b      	strb	r3, [r7, #12]
        }
        status = HAL_I2C_Mem_Write(hi2c,
 800329e:	78fb      	ldrb	r3, [r7, #3]
 80032a0:	b29b      	uxth	r3, r3
 80032a2:	005b      	lsls	r3, r3, #1
 80032a4:	b299      	uxth	r1, r3
 80032a6:	7bfb      	ldrb	r3, [r7, #15]
 80032a8:	b29a      	uxth	r2, r3
 80032aa:	2364      	movs	r3, #100	@ 0x64
 80032ac:	9302      	str	r3, [sp, #8]
 80032ae:	2301      	movs	r3, #1
 80032b0:	9301      	str	r3, [sp, #4]
 80032b2:	f107 030c 	add.w	r3, r7, #12
 80032b6:	9300      	str	r3, [sp, #0]
 80032b8:	2301      	movs	r3, #1
 80032ba:	6878      	ldr	r0, [r7, #4]
 80032bc:	f001 fd94 	bl	8004de8 <HAL_I2C_Mem_Write>
 80032c0:	4603      	mov	r3, r0
 80032c2:	73bb      	strb	r3, [r7, #14]
                                   regAddress,
                                   I2C_MEMADD_SIZE_8BIT,
                                   &currentOutput,
                                   1,
                                   EXPANDER_I2C_TIMEOUT);
        return status;
 80032c4:	7bbb      	ldrb	r3, [r7, #14]
 80032c6:	e04a      	b.n	800335e <Expander_SetPinState+0x140>
    }
    else if ((pin & 0x00FF) == 0)
 80032c8:	883b      	ldrh	r3, [r7, #0]
 80032ca:	b2db      	uxtb	r3, r3
 80032cc:	2b00      	cmp	r3, #0
 80032ce:	d145      	bne.n	800335c <Expander_SetPinState+0x13e>
    {
        // Pin belongs to Port 1.
        regAddress = PCA9535_REG_OUTPUT_PORT1;
 80032d0:	2303      	movs	r3, #3
 80032d2:	73fb      	strb	r3, [r7, #15]
        status = HAL_I2C_Mem_Read(hi2c,
 80032d4:	78fb      	ldrb	r3, [r7, #3]
 80032d6:	b29b      	uxth	r3, r3
 80032d8:	005b      	lsls	r3, r3, #1
 80032da:	b299      	uxth	r1, r3
 80032dc:	7bfb      	ldrb	r3, [r7, #15]
 80032de:	b29a      	uxth	r2, r3
 80032e0:	2364      	movs	r3, #100	@ 0x64
 80032e2:	9302      	str	r3, [sp, #8]
 80032e4:	2301      	movs	r3, #1
 80032e6:	9301      	str	r3, [sp, #4]
 80032e8:	f107 030c 	add.w	r3, r7, #12
 80032ec:	9300      	str	r3, [sp, #0]
 80032ee:	2301      	movs	r3, #1
 80032f0:	6878      	ldr	r0, [r7, #4]
 80032f2:	f001 fe73 	bl	8004fdc <HAL_I2C_Mem_Read>
 80032f6:	4603      	mov	r3, r0
 80032f8:	73bb      	strb	r3, [r7, #14]
                                  regAddress,
                                  I2C_MEMADD_SIZE_8BIT,
                                  &currentOutput,
                                  1,
                                  EXPANDER_I2C_TIMEOUT);
        if (status != HAL_OK) {
 80032fa:	7bbb      	ldrb	r3, [r7, #14]
 80032fc:	2b00      	cmp	r3, #0
 80032fe:	d001      	beq.n	8003304 <Expander_SetPinState+0xe6>
            return status;
 8003300:	7bbb      	ldrb	r3, [r7, #14]
 8003302:	e02c      	b.n	800335e <Expander_SetPinState+0x140>
        }
        uint8_t pin_mask = (uint8_t)(pin >> 8);
 8003304:	883b      	ldrh	r3, [r7, #0]
 8003306:	0a1b      	lsrs	r3, r3, #8
 8003308:	b29b      	uxth	r3, r3
 800330a:	737b      	strb	r3, [r7, #13]
        if (state == HIGH) {
 800330c:	78bb      	ldrb	r3, [r7, #2]
 800330e:	2b01      	cmp	r3, #1
 8003310:	d105      	bne.n	800331e <Expander_SetPinState+0x100>
            currentOutput |= pin_mask;
 8003312:	7b3a      	ldrb	r2, [r7, #12]
 8003314:	7b7b      	ldrb	r3, [r7, #13]
 8003316:	4313      	orrs	r3, r2
 8003318:	b2db      	uxtb	r3, r3
 800331a:	733b      	strb	r3, [r7, #12]
 800331c:	e009      	b.n	8003332 <Expander_SetPinState+0x114>
        } else {
            currentOutput &= ~pin_mask;
 800331e:	f997 300d 	ldrsb.w	r3, [r7, #13]
 8003322:	43db      	mvns	r3, r3
 8003324:	b25a      	sxtb	r2, r3
 8003326:	7b3b      	ldrb	r3, [r7, #12]
 8003328:	b25b      	sxtb	r3, r3
 800332a:	4013      	ands	r3, r2
 800332c:	b25b      	sxtb	r3, r3
 800332e:	b2db      	uxtb	r3, r3
 8003330:	733b      	strb	r3, [r7, #12]
        }
        status = HAL_I2C_Mem_Write(hi2c,
 8003332:	78fb      	ldrb	r3, [r7, #3]
 8003334:	b29b      	uxth	r3, r3
 8003336:	005b      	lsls	r3, r3, #1
 8003338:	b299      	uxth	r1, r3
 800333a:	7bfb      	ldrb	r3, [r7, #15]
 800333c:	b29a      	uxth	r2, r3
 800333e:	2364      	movs	r3, #100	@ 0x64
 8003340:	9302      	str	r3, [sp, #8]
 8003342:	2301      	movs	r3, #1
 8003344:	9301      	str	r3, [sp, #4]
 8003346:	f107 030c 	add.w	r3, r7, #12
 800334a:	9300      	str	r3, [sp, #0]
 800334c:	2301      	movs	r3, #1
 800334e:	6878      	ldr	r0, [r7, #4]
 8003350:	f001 fd4a 	bl	8004de8 <HAL_I2C_Mem_Write>
 8003354:	4603      	mov	r3, r0
 8003356:	73bb      	strb	r3, [r7, #14]
                                   regAddress,
                                   I2C_MEMADD_SIZE_8BIT,
                                   &currentOutput,
                                   1,
                                   EXPANDER_I2C_TIMEOUT);
        return status;
 8003358:	7bbb      	ldrb	r3, [r7, #14]
 800335a:	e000      	b.n	800335e <Expander_SetPinState+0x140>
    }
    else {
        // Invalid pin mask.
        return HAL_ERROR;
 800335c:	2301      	movs	r3, #1
    }
}
 800335e:	4618      	mov	r0, r3
 8003360:	3710      	adds	r7, #16
 8003362:	46bd      	mov	sp, r7
 8003364:	bd80      	pop	{r7, pc}
	...

08003368 <Expander_InitAllDevices>:
 *
 * @param hi2c Pointer to the I2C handle.
 * @return HAL_StatusTypeDef HAL_OK if all devices are initialized successfully, or an error code.
 */
HAL_StatusTypeDef Expander_InitAllDevices(I2C_HandleTypeDef *hi2c)
{
 8003368:	b580      	push	{r7, lr}
 800336a:	b086      	sub	sp, #24
 800336c:	af00      	add	r7, sp, #0
 800336e:	6078      	str	r0, [r7, #4]
    HAL_StatusTypeDef status;

    // List of expander addresses.
    uint8_t addresses[] = {
 8003370:	4b11      	ldr	r3, [pc, #68]	@ (80033b8 <Expander_InitAllDevices+0x50>)
 8003372:	60bb      	str	r3, [r7, #8]
        GPIO_EXPANDER_ID_02,
        GPIO_EXPANDER_ID_03,
        GPIO_EXPANDER_ID_04
    };

    size_t count = sizeof(addresses) / sizeof(addresses[0]);
 8003374:	2304      	movs	r3, #4
 8003376:	613b      	str	r3, [r7, #16]
    for (size_t i = 0; i < count; i++)
 8003378:	2300      	movs	r3, #0
 800337a:	617b      	str	r3, [r7, #20]
 800337c:	e012      	b.n	80033a4 <Expander_InitAllDevices+0x3c>
    {
        status = Expander_InitPinDirections(hi2c, addresses[i]);
 800337e:	f107 0208 	add.w	r2, r7, #8
 8003382:	697b      	ldr	r3, [r7, #20]
 8003384:	4413      	add	r3, r2
 8003386:	781b      	ldrb	r3, [r3, #0]
 8003388:	4619      	mov	r1, r3
 800338a:	6878      	ldr	r0, [r7, #4]
 800338c:	f7ff fee6 	bl	800315c <Expander_InitPinDirections>
 8003390:	4603      	mov	r3, r0
 8003392:	73fb      	strb	r3, [r7, #15]
        if (status != HAL_OK)
 8003394:	7bfb      	ldrb	r3, [r7, #15]
 8003396:	2b00      	cmp	r3, #0
 8003398:	d001      	beq.n	800339e <Expander_InitAllDevices+0x36>
        {
            return status;
 800339a:	7bfb      	ldrb	r3, [r7, #15]
 800339c:	e007      	b.n	80033ae <Expander_InitAllDevices+0x46>
    for (size_t i = 0; i < count; i++)
 800339e:	697b      	ldr	r3, [r7, #20]
 80033a0:	3301      	adds	r3, #1
 80033a2:	617b      	str	r3, [r7, #20]
 80033a4:	697a      	ldr	r2, [r7, #20]
 80033a6:	693b      	ldr	r3, [r7, #16]
 80033a8:	429a      	cmp	r2, r3
 80033aa:	d3e8      	bcc.n	800337e <Expander_InitAllDevices+0x16>
        }
    }
    return HAL_OK;
 80033ac:	2300      	movs	r3, #0
}
 80033ae:	4618      	mov	r0, r3
 80033b0:	3718      	adds	r7, #24
 80033b2:	46bd      	mov	sp, r7
 80033b4:	bd80      	pop	{r7, pc}
 80033b6:	bf00      	nop
 80033b8:	24232221 	.word	0x24232221

080033bc <get_voltage_map>:


// In this example all cells share the same voltage mapping.
static VoltageMap* get_voltage_map(CellID cell)
{
 80033bc:	b480      	push	{r7}
 80033be:	b083      	sub	sp, #12
 80033c0:	af00      	add	r7, sp, #0
 80033c2:	4603      	mov	r3, r0
 80033c4:	71fb      	strb	r3, [r7, #7]
    (void)cell;  // Unused since mapping is the same for all cells.
    return default_map;
 80033c6:	4b03      	ldr	r3, [pc, #12]	@ (80033d4 <get_voltage_map+0x18>)
}
 80033c8:	4618      	mov	r0, r3
 80033ca:	370c      	adds	r7, #12
 80033cc:	46bd      	mov	sp, r7
 80033ce:	f85d 7b04 	ldr.w	r7, [sp], #4
 80033d2:	4770      	bx	lr
 80033d4:	200005a0 	.word	0x200005a0

080033d8 <get_cell_control_params>:

// Helper function to get the expander address and MUX control pin definitions for a given cell.
// Each cell has three control pins (S0, S1, S2) that drive your MUX select lines.
static void get_cell_control_params(CellID cell, uint8_t *expanderAddr, uint16_t *sel0, uint16_t *sel1, uint16_t *sel2)
{
 80033d8:	b480      	push	{r7}
 80033da:	b085      	sub	sp, #20
 80033dc:	af00      	add	r7, sp, #0
 80033de:	60b9      	str	r1, [r7, #8]
 80033e0:	607a      	str	r2, [r7, #4]
 80033e2:	603b      	str	r3, [r7, #0]
 80033e4:	4603      	mov	r3, r0
 80033e6:	73fb      	strb	r3, [r7, #15]
    switch(cell)
 80033e8:	7bfb      	ldrb	r3, [r7, #15]
 80033ea:	2b0b      	cmp	r3, #11
 80033ec:	f200 80c4 	bhi.w	8003578 <get_cell_control_params+0x1a0>
 80033f0:	a201      	add	r2, pc, #4	@ (adr r2, 80033f8 <get_cell_control_params+0x20>)
 80033f2:	f852 f023 	ldr.w	pc, [r2, r3, lsl #2]
 80033f6:	bf00      	nop
 80033f8:	08003429 	.word	0x08003429
 80033fc:	08003443 	.word	0x08003443
 8003400:	0800345d 	.word	0x0800345d
 8003404:	0800347d 	.word	0x0800347d
 8003408:	08003497 	.word	0x08003497
 800340c:	080034b1 	.word	0x080034b1
 8003410:	080034d1 	.word	0x080034d1
 8003414:	080034eb 	.word	0x080034eb
 8003418:	08003505 	.word	0x08003505
 800341c:	08003525 	.word	0x08003525
 8003420:	0800353f 	.word	0x0800353f
 8003424:	08003559 	.word	0x08003559
    {
        case CELL_1:
            *expanderAddr = GPIO_EXPANDER_ID_01;
 8003428:	68bb      	ldr	r3, [r7, #8]
 800342a:	2221      	movs	r2, #33	@ 0x21
 800342c:	701a      	strb	r2, [r3, #0]
            *sel0 = CELL_01_VOLTAGE_01;
 800342e:	687b      	ldr	r3, [r7, #4]
 8003430:	2202      	movs	r2, #2
 8003432:	801a      	strh	r2, [r3, #0]
            *sel1 = CELL_01_VOLTAGE_02;
 8003434:	683b      	ldr	r3, [r7, #0]
 8003436:	2204      	movs	r2, #4
 8003438:	801a      	strh	r2, [r3, #0]
            *sel2 = CELL_01_VOLTAGE_03;
 800343a:	69bb      	ldr	r3, [r7, #24]
 800343c:	2208      	movs	r2, #8
 800343e:	801a      	strh	r2, [r3, #0]
            break;
 8003440:	e0a7      	b.n	8003592 <get_cell_control_params+0x1ba>
        case CELL_2:
            *expanderAddr = GPIO_EXPANDER_ID_01;
 8003442:	68bb      	ldr	r3, [r7, #8]
 8003444:	2221      	movs	r2, #33	@ 0x21
 8003446:	701a      	strb	r2, [r3, #0]
            *sel0 = CELL_02_VOLTAGE_01;
 8003448:	687b      	ldr	r3, [r7, #4]
 800344a:	2280      	movs	r2, #128	@ 0x80
 800344c:	801a      	strh	r2, [r3, #0]
            *sel1 = CELL_02_VOLTAGE_02;
 800344e:	683b      	ldr	r3, [r7, #0]
 8003450:	2240      	movs	r2, #64	@ 0x40
 8003452:	801a      	strh	r2, [r3, #0]
            *sel2 = CELL_02_VOLTAGE_03;
 8003454:	69bb      	ldr	r3, [r7, #24]
 8003456:	2220      	movs	r2, #32
 8003458:	801a      	strh	r2, [r3, #0]
            break;
 800345a:	e09a      	b.n	8003592 <get_cell_control_params+0x1ba>
        case CELL_3:
            *expanderAddr = GPIO_EXPANDER_ID_01;
 800345c:	68bb      	ldr	r3, [r7, #8]
 800345e:	2221      	movs	r2, #33	@ 0x21
 8003460:	701a      	strb	r2, [r3, #0]
            *sel0 = CELL_03_VOLTAGE_01;
 8003462:	687b      	ldr	r3, [r7, #4]
 8003464:	f44f 4280 	mov.w	r2, #16384	@ 0x4000
 8003468:	801a      	strh	r2, [r3, #0]
            *sel1 = CELL_03_VOLTAGE_02;
 800346a:	683b      	ldr	r3, [r7, #0]
 800346c:	f44f 5200 	mov.w	r2, #8192	@ 0x2000
 8003470:	801a      	strh	r2, [r3, #0]
            *sel2 = CELL_03_VOLTAGE_03;
 8003472:	69bb      	ldr	r3, [r7, #24]
 8003474:	f44f 5280 	mov.w	r2, #4096	@ 0x1000
 8003478:	801a      	strh	r2, [r3, #0]
            break;
 800347a:	e08a      	b.n	8003592 <get_cell_control_params+0x1ba>
        case CELL_4:
            *expanderAddr = GPIO_EXPANDER_ID_02;
 800347c:	68bb      	ldr	r3, [r7, #8]
 800347e:	2222      	movs	r2, #34	@ 0x22
 8003480:	701a      	strb	r2, [r3, #0]
            *sel0 = CELL_01_VOLTAGE_01;
 8003482:	687b      	ldr	r3, [r7, #4]
 8003484:	2202      	movs	r2, #2
 8003486:	801a      	strh	r2, [r3, #0]
            *sel1 = CELL_01_VOLTAGE_02;
 8003488:	683b      	ldr	r3, [r7, #0]
 800348a:	2204      	movs	r2, #4
 800348c:	801a      	strh	r2, [r3, #0]
            *sel2 = CELL_01_VOLTAGE_03;
 800348e:	69bb      	ldr	r3, [r7, #24]
 8003490:	2208      	movs	r2, #8
 8003492:	801a      	strh	r2, [r3, #0]
            break;
 8003494:	e07d      	b.n	8003592 <get_cell_control_params+0x1ba>
        case CELL_5:
            *expanderAddr = GPIO_EXPANDER_ID_02;
 8003496:	68bb      	ldr	r3, [r7, #8]
 8003498:	2222      	movs	r2, #34	@ 0x22
 800349a:	701a      	strb	r2, [r3, #0]
            *sel0 = CELL_02_VOLTAGE_01;
 800349c:	687b      	ldr	r3, [r7, #4]
 800349e:	2280      	movs	r2, #128	@ 0x80
 80034a0:	801a      	strh	r2, [r3, #0]
            *sel1 = CELL_02_VOLTAGE_02;
 80034a2:	683b      	ldr	r3, [r7, #0]
 80034a4:	2240      	movs	r2, #64	@ 0x40
 80034a6:	801a      	strh	r2, [r3, #0]
            *sel2 = CELL_02_VOLTAGE_03;
 80034a8:	69bb      	ldr	r3, [r7, #24]
 80034aa:	2220      	movs	r2, #32
 80034ac:	801a      	strh	r2, [r3, #0]
            break;
 80034ae:	e070      	b.n	8003592 <get_cell_control_params+0x1ba>
        case CELL_6:
            *expanderAddr = GPIO_EXPANDER_ID_02;
 80034b0:	68bb      	ldr	r3, [r7, #8]
 80034b2:	2222      	movs	r2, #34	@ 0x22
 80034b4:	701a      	strb	r2, [r3, #0]
            *sel0 = CELL_03_VOLTAGE_01;
 80034b6:	687b      	ldr	r3, [r7, #4]
 80034b8:	f44f 4280 	mov.w	r2, #16384	@ 0x4000
 80034bc:	801a      	strh	r2, [r3, #0]
            *sel1 = CELL_03_VOLTAGE_02;
 80034be:	683b      	ldr	r3, [r7, #0]
 80034c0:	f44f 5200 	mov.w	r2, #8192	@ 0x2000
 80034c4:	801a      	strh	r2, [r3, #0]
            *sel2 = CELL_03_VOLTAGE_03;
 80034c6:	69bb      	ldr	r3, [r7, #24]
 80034c8:	f44f 5280 	mov.w	r2, #4096	@ 0x1000
 80034cc:	801a      	strh	r2, [r3, #0]
            break;
 80034ce:	e060      	b.n	8003592 <get_cell_control_params+0x1ba>
        case CELL_7:
            *expanderAddr = GPIO_EXPANDER_ID_03;
 80034d0:	68bb      	ldr	r3, [r7, #8]
 80034d2:	2223      	movs	r2, #35	@ 0x23
 80034d4:	701a      	strb	r2, [r3, #0]
            *sel0 = CELL_01_VOLTAGE_01;
 80034d6:	687b      	ldr	r3, [r7, #4]
 80034d8:	2202      	movs	r2, #2
 80034da:	801a      	strh	r2, [r3, #0]
            *sel1 = CELL_01_VOLTAGE_02;
 80034dc:	683b      	ldr	r3, [r7, #0]
 80034de:	2204      	movs	r2, #4
 80034e0:	801a      	strh	r2, [r3, #0]
            *sel2 = CELL_01_VOLTAGE_03;
 80034e2:	69bb      	ldr	r3, [r7, #24]
 80034e4:	2208      	movs	r2, #8
 80034e6:	801a      	strh	r2, [r3, #0]
            break;
 80034e8:	e053      	b.n	8003592 <get_cell_control_params+0x1ba>
        case CELL_8:
            *expanderAddr = GPIO_EXPANDER_ID_03;
 80034ea:	68bb      	ldr	r3, [r7, #8]
 80034ec:	2223      	movs	r2, #35	@ 0x23
 80034ee:	701a      	strb	r2, [r3, #0]
            *sel0 = CELL_02_VOLTAGE_01;
 80034f0:	687b      	ldr	r3, [r7, #4]
 80034f2:	2280      	movs	r2, #128	@ 0x80
 80034f4:	801a      	strh	r2, [r3, #0]
            *sel1 = CELL_02_VOLTAGE_02;
 80034f6:	683b      	ldr	r3, [r7, #0]
 80034f8:	2240      	movs	r2, #64	@ 0x40
 80034fa:	801a      	strh	r2, [r3, #0]
            *sel2 = CELL_02_VOLTAGE_03;
 80034fc:	69bb      	ldr	r3, [r7, #24]
 80034fe:	2220      	movs	r2, #32
 8003500:	801a      	strh	r2, [r3, #0]
            break;
 8003502:	e046      	b.n	8003592 <get_cell_control_params+0x1ba>
        case CELL_9:
            *expanderAddr = GPIO_EXPANDER_ID_03;
 8003504:	68bb      	ldr	r3, [r7, #8]
 8003506:	2223      	movs	r2, #35	@ 0x23
 8003508:	701a      	strb	r2, [r3, #0]
            *sel0 = CELL_03_VOLTAGE_01;
 800350a:	687b      	ldr	r3, [r7, #4]
 800350c:	f44f 4280 	mov.w	r2, #16384	@ 0x4000
 8003510:	801a      	strh	r2, [r3, #0]
            *sel1 = CELL_03_VOLTAGE_02;
 8003512:	683b      	ldr	r3, [r7, #0]
 8003514:	f44f 5200 	mov.w	r2, #8192	@ 0x2000
 8003518:	801a      	strh	r2, [r3, #0]
            *sel2 = CELL_03_VOLTAGE_03;
 800351a:	69bb      	ldr	r3, [r7, #24]
 800351c:	f44f 5280 	mov.w	r2, #4096	@ 0x1000
 8003520:	801a      	strh	r2, [r3, #0]
            break;
 8003522:	e036      	b.n	8003592 <get_cell_control_params+0x1ba>
        case CELL_10:
            *expanderAddr = GPIO_EXPANDER_ID_04;
 8003524:	68bb      	ldr	r3, [r7, #8]
 8003526:	2224      	movs	r2, #36	@ 0x24
 8003528:	701a      	strb	r2, [r3, #0]
            *sel0 = CELL_01_VOLTAGE_01;
 800352a:	687b      	ldr	r3, [r7, #4]
 800352c:	2202      	movs	r2, #2
 800352e:	801a      	strh	r2, [r3, #0]
            *sel1 = CELL_01_VOLTAGE_02;
 8003530:	683b      	ldr	r3, [r7, #0]
 8003532:	2204      	movs	r2, #4
 8003534:	801a      	strh	r2, [r3, #0]
            *sel2 = CELL_01_VOLTAGE_03;
 8003536:	69bb      	ldr	r3, [r7, #24]
 8003538:	2208      	movs	r2, #8
 800353a:	801a      	strh	r2, [r3, #0]
            break;
 800353c:	e029      	b.n	8003592 <get_cell_control_params+0x1ba>
        case CELL_11:
            *expanderAddr = GPIO_EXPANDER_ID_04;
 800353e:	68bb      	ldr	r3, [r7, #8]
 8003540:	2224      	movs	r2, #36	@ 0x24
 8003542:	701a      	strb	r2, [r3, #0]
            *sel0 = CELL_02_VOLTAGE_01;
 8003544:	687b      	ldr	r3, [r7, #4]
 8003546:	2280      	movs	r2, #128	@ 0x80
 8003548:	801a      	strh	r2, [r3, #0]
            *sel1 = CELL_02_VOLTAGE_02;
 800354a:	683b      	ldr	r3, [r7, #0]
 800354c:	2240      	movs	r2, #64	@ 0x40
 800354e:	801a      	strh	r2, [r3, #0]
            *sel2 = CELL_02_VOLTAGE_03;
 8003550:	69bb      	ldr	r3, [r7, #24]
 8003552:	2220      	movs	r2, #32
 8003554:	801a      	strh	r2, [r3, #0]
            break;
 8003556:	e01c      	b.n	8003592 <get_cell_control_params+0x1ba>
        case CELL_12:
            *expanderAddr = GPIO_EXPANDER_ID_04;
 8003558:	68bb      	ldr	r3, [r7, #8]
 800355a:	2224      	movs	r2, #36	@ 0x24
 800355c:	701a      	strb	r2, [r3, #0]
            *sel0 = CELL_03_VOLTAGE_01;
 800355e:	687b      	ldr	r3, [r7, #4]
 8003560:	f44f 4280 	mov.w	r2, #16384	@ 0x4000
 8003564:	801a      	strh	r2, [r3, #0]
            *sel1 = CELL_03_VOLTAGE_02;
 8003566:	683b      	ldr	r3, [r7, #0]
 8003568:	f44f 5200 	mov.w	r2, #8192	@ 0x2000
 800356c:	801a      	strh	r2, [r3, #0]
            *sel2 = CELL_03_VOLTAGE_03;
 800356e:	69bb      	ldr	r3, [r7, #24]
 8003570:	f44f 5280 	mov.w	r2, #4096	@ 0x1000
 8003574:	801a      	strh	r2, [r3, #0]
            break;
 8003576:	e00c      	b.n	8003592 <get_cell_control_params+0x1ba>
        default:
            // Default to CELL_1 if an invalid cell is specified
            *expanderAddr = GPIO_EXPANDER_ID_01;
 8003578:	68bb      	ldr	r3, [r7, #8]
 800357a:	2221      	movs	r2, #33	@ 0x21
 800357c:	701a      	strb	r2, [r3, #0]
            *sel0 = CELL_01_VOLTAGE_01;
 800357e:	687b      	ldr	r3, [r7, #4]
 8003580:	2202      	movs	r2, #2
 8003582:	801a      	strh	r2, [r3, #0]
            *sel1 = CELL_01_VOLTAGE_02;
 8003584:	683b      	ldr	r3, [r7, #0]
 8003586:	2204      	movs	r2, #4
 8003588:	801a      	strh	r2, [r3, #0]
            *sel2 = CELL_01_VOLTAGE_03;
 800358a:	69bb      	ldr	r3, [r7, #24]
 800358c:	2208      	movs	r2, #8
 800358e:	801a      	strh	r2, [r3, #0]
            break;
 8003590:	bf00      	nop
    }
}
 8003592:	bf00      	nop
 8003594:	3714      	adds	r7, #20
 8003596:	46bd      	mov	sp, r7
 8003598:	f85d 7b04 	ldr.w	r7, [sp], #4
 800359c:	4770      	bx	lr
 800359e:	bf00      	nop

080035a0 <Set_Output_Voltage>:

// Function to set the output voltage for a given cell by selecting the appropriate MUX channel.
// Example usage: Set_Output_Voltage(&hi2c2, CELL_1, 2.5f);
void Set_Output_Voltage(I2C_HandleTypeDef *hi2c, CellID cell, float voltage)
{
 80035a0:	b590      	push	{r4, r7, lr}
 80035a2:	b08d      	sub	sp, #52	@ 0x34
 80035a4:	af02      	add	r7, sp, #8
 80035a6:	60f8      	str	r0, [r7, #12]
 80035a8:	460b      	mov	r3, r1
 80035aa:	ed87 0a01 	vstr	s0, [r7, #4]
 80035ae:	72fb      	strb	r3, [r7, #11]
    // Get the voltage mapping for this cell (all cells share the same mapping in this example)
    VoltageMap *map = get_voltage_map(cell);
 80035b0:	7afb      	ldrb	r3, [r7, #11]
 80035b2:	4618      	mov	r0, r3
 80035b4:	f7ff ff02 	bl	80033bc <get_voltage_map>
 80035b8:	61f8      	str	r0, [r7, #28]
    if (map == NULL) return;
 80035ba:	69fb      	ldr	r3, [r7, #28]
 80035bc:	2b00      	cmp	r3, #0
 80035be:	d057      	beq.n	8003670 <Set_Output_Voltage+0xd0>

    // Look up the MUX channel for the desired voltage.
    uint8_t mux_channel = 0xFF;
 80035c0:	23ff      	movs	r3, #255	@ 0xff
 80035c2:	f887 3027 	strb.w	r3, [r7, #39]	@ 0x27
    for (int i = 0; i < 8; i++) {
 80035c6:	2300      	movs	r3, #0
 80035c8:	623b      	str	r3, [r7, #32]
 80035ca:	e017      	b.n	80035fc <Set_Output_Voltage+0x5c>
        if (map[i].voltage == voltage) {
 80035cc:	6a3b      	ldr	r3, [r7, #32]
 80035ce:	00db      	lsls	r3, r3, #3
 80035d0:	69fa      	ldr	r2, [r7, #28]
 80035d2:	4413      	add	r3, r2
 80035d4:	edd3 7a00 	vldr	s15, [r3]
 80035d8:	ed97 7a01 	vldr	s14, [r7, #4]
 80035dc:	eeb4 7a67 	vcmp.f32	s14, s15
 80035e0:	eef1 fa10 	vmrs	APSR_nzcv, fpscr
 80035e4:	d107      	bne.n	80035f6 <Set_Output_Voltage+0x56>
            mux_channel = map[i].mux_channel;
 80035e6:	6a3b      	ldr	r3, [r7, #32]
 80035e8:	00db      	lsls	r3, r3, #3
 80035ea:	69fa      	ldr	r2, [r7, #28]
 80035ec:	4413      	add	r3, r2
 80035ee:	791b      	ldrb	r3, [r3, #4]
 80035f0:	f887 3027 	strb.w	r3, [r7, #39]	@ 0x27
            break;
 80035f4:	e005      	b.n	8003602 <Set_Output_Voltage+0x62>
    for (int i = 0; i < 8; i++) {
 80035f6:	6a3b      	ldr	r3, [r7, #32]
 80035f8:	3301      	adds	r3, #1
 80035fa:	623b      	str	r3, [r7, #32]
 80035fc:	6a3b      	ldr	r3, [r7, #32]
 80035fe:	2b07      	cmp	r3, #7
 8003600:	dde4      	ble.n	80035cc <Set_Output_Voltage+0x2c>
        }
    }
    if (mux_channel == 0xFF) return; // Voltage not found
 8003602:	f897 3027 	ldrb.w	r3, [r7, #39]	@ 0x27
 8003606:	2bff      	cmp	r3, #255	@ 0xff
 8003608:	d034      	beq.n	8003674 <Set_Output_Voltage+0xd4>

    // Convert mux_channel into its 3 select bits.
    uint8_t s0 = (mux_channel >> 0) & 0x01;
 800360a:	f897 3027 	ldrb.w	r3, [r7, #39]	@ 0x27
 800360e:	f003 0301 	and.w	r3, r3, #1
 8003612:	76fb      	strb	r3, [r7, #27]
    uint8_t s1 = (mux_channel >> 1) & 0x01;
 8003614:	f897 3027 	ldrb.w	r3, [r7, #39]	@ 0x27
 8003618:	085b      	lsrs	r3, r3, #1
 800361a:	b2db      	uxtb	r3, r3
 800361c:	f003 0301 	and.w	r3, r3, #1
 8003620:	76bb      	strb	r3, [r7, #26]
    uint8_t s2 = (mux_channel >> 2) & 0x01;
 8003622:	f897 3027 	ldrb.w	r3, [r7, #39]	@ 0x27
 8003626:	089b      	lsrs	r3, r3, #2
 8003628:	b2db      	uxtb	r3, r3
 800362a:	f003 0301 	and.w	r3, r3, #1
 800362e:	767b      	strb	r3, [r7, #25]

    // Get the expander address and control pins for this cell.
    uint8_t expanderAddr;
    uint16_t sel0, sel1, sel2;
    get_cell_control_params(cell, &expanderAddr, &sel0, &sel1, &sel2);
 8003630:	f107 0414 	add.w	r4, r7, #20
 8003634:	f107 0216 	add.w	r2, r7, #22
 8003638:	f107 0118 	add.w	r1, r7, #24
 800363c:	7af8      	ldrb	r0, [r7, #11]
 800363e:	f107 0312 	add.w	r3, r7, #18
 8003642:	9300      	str	r3, [sp, #0]
 8003644:	4623      	mov	r3, r4
 8003646:	f7ff fec7 	bl	80033d8 <get_cell_control_params>

    // Set the multiplexer select lines accordingly.
    Expander_SetPinState(hi2c, expanderAddr, sel0, s0);
 800364a:	7e39      	ldrb	r1, [r7, #24]
 800364c:	8afa      	ldrh	r2, [r7, #22]
 800364e:	7efb      	ldrb	r3, [r7, #27]
 8003650:	68f8      	ldr	r0, [r7, #12]
 8003652:	f7ff fde4 	bl	800321e <Expander_SetPinState>
    Expander_SetPinState(hi2c, expanderAddr, sel1, s1);
 8003656:	7e39      	ldrb	r1, [r7, #24]
 8003658:	8aba      	ldrh	r2, [r7, #20]
 800365a:	7ebb      	ldrb	r3, [r7, #26]
 800365c:	68f8      	ldr	r0, [r7, #12]
 800365e:	f7ff fdde 	bl	800321e <Expander_SetPinState>
    Expander_SetPinState(hi2c, expanderAddr, sel2, s2);
 8003662:	7e39      	ldrb	r1, [r7, #24]
 8003664:	8a7a      	ldrh	r2, [r7, #18]
 8003666:	7e7b      	ldrb	r3, [r7, #25]
 8003668:	68f8      	ldr	r0, [r7, #12]
 800366a:	f7ff fdd8 	bl	800321e <Expander_SetPinState>
 800366e:	e002      	b.n	8003676 <Set_Output_Voltage+0xd6>
    if (map == NULL) return;
 8003670:	bf00      	nop
 8003672:	e000      	b.n	8003676 <Set_Output_Voltage+0xd6>
    if (mux_channel == 0xFF) return; // Voltage not found
 8003674:	bf00      	nop
}
 8003676:	372c      	adds	r7, #44	@ 0x2c
 8003678:	46bd      	mov	sp, r7
 800367a:	bd90      	pop	{r4, r7, pc}

0800367c <main>:
/**
  * @brief  The application entry point.
  * @retval int
  */
int main(void)
{
 800367c:	b580      	push	{r7, lr}
 800367e:	af00      	add	r7, sp, #0
  /* USER CODE END 1 */

  /* MCU Configuration--------------------------------------------------------*/

  /* Reset of all peripherals, Initializes the Flash interface and the Systick. */
  HAL_Init();
 8003680:	f000 ff2c 	bl	80044dc <HAL_Init>
  /* USER CODE BEGIN Init */

  /* USER CODE END Init */

  /* Configure the system clock */
  SystemClock_Config();
 8003684:	f000 f982 	bl	800398c <SystemClock_Config>


  /* USER CODE END SysInit */

  /* Initialize all configured peripherals */
  MX_GPIO_Init();
 8003688:	f000 fb12 	bl	8003cb0 <MX_GPIO_Init>
  MX_SPI1_Init();
 800368c:	f000 fa6e 	bl	8003b6c <MX_SPI1_Init>
  MX_SPI2_Init();
 8003690:	f000 faa2 	bl	8003bd8 <MX_SPI2_Init>
  MX_I2C2_Init();
 8003694:	f000 f9ea 	bl	8003a6c <MX_I2C2_Init>
  MX_I2C3_Init();
 8003698:	f000 fa28 	bl	8003aec <MX_I2C3_Init>
  MX_SPI3_Init();
 800369c:	f000 fad2 	bl	8003c44 <MX_SPI3_Init>
  /* USER CODE BEGIN 2 */

  INA229_config(INA229_0);
 80036a0:	4ba1      	ldr	r3, [pc, #644]	@ (8003928 <main+0x2ac>)
 80036a2:	681b      	ldr	r3, [r3, #0]
 80036a4:	4618      	mov	r0, r3
 80036a6:	f7ff fae3 	bl	8002c70 <INA229_config>
  INA229_config(INA229_1);
 80036aa:	4ba0      	ldr	r3, [pc, #640]	@ (800392c <main+0x2b0>)
 80036ac:	681b      	ldr	r3, [r3, #0]
 80036ae:	4618      	mov	r0, r3
 80036b0:	f7ff fade 	bl	8002c70 <INA229_config>
  INA229_config(INA229_2);
 80036b4:	4b9e      	ldr	r3, [pc, #632]	@ (8003930 <main+0x2b4>)
 80036b6:	681b      	ldr	r3, [r3, #0]
 80036b8:	4618      	mov	r0, r3
 80036ba:	f7ff fad9 	bl	8002c70 <INA229_config>
  INA229_config(INA229_3);
 80036be:	4b9d      	ldr	r3, [pc, #628]	@ (8003934 <main+0x2b8>)
 80036c0:	681b      	ldr	r3, [r3, #0]
 80036c2:	4618      	mov	r0, r3
 80036c4:	f7ff fad4 	bl	8002c70 <INA229_config>
  INA229_config(INA229_4);
 80036c8:	4b9b      	ldr	r3, [pc, #620]	@ (8003938 <main+0x2bc>)
 80036ca:	681b      	ldr	r3, [r3, #0]
 80036cc:	4618      	mov	r0, r3
 80036ce:	f7ff facf 	bl	8002c70 <INA229_config>
  INA229_config(INA229_5);
 80036d2:	4b9a      	ldr	r3, [pc, #616]	@ (800393c <main+0x2c0>)
 80036d4:	681b      	ldr	r3, [r3, #0]
 80036d6:	4618      	mov	r0, r3
 80036d8:	f7ff faca 	bl	8002c70 <INA229_config>
  INA229_config(INA229_6);
 80036dc:	4b98      	ldr	r3, [pc, #608]	@ (8003940 <main+0x2c4>)
 80036de:	681b      	ldr	r3, [r3, #0]
 80036e0:	4618      	mov	r0, r3
 80036e2:	f7ff fac5 	bl	8002c70 <INA229_config>
  INA229_config(INA229_7);
 80036e6:	4b97      	ldr	r3, [pc, #604]	@ (8003944 <main+0x2c8>)
 80036e8:	681b      	ldr	r3, [r3, #0]
 80036ea:	4618      	mov	r0, r3
 80036ec:	f7ff fac0 	bl	8002c70 <INA229_config>
  INA229_config(INA229_8);
 80036f0:	4b95      	ldr	r3, [pc, #596]	@ (8003948 <main+0x2cc>)
 80036f2:	681b      	ldr	r3, [r3, #0]
 80036f4:	4618      	mov	r0, r3
 80036f6:	f7ff fabb 	bl	8002c70 <INA229_config>
  INA229_config(INA229_9);
 80036fa:	4b94      	ldr	r3, [pc, #592]	@ (800394c <main+0x2d0>)
 80036fc:	681b      	ldr	r3, [r3, #0]
 80036fe:	4618      	mov	r0, r3
 8003700:	f7ff fab6 	bl	8002c70 <INA229_config>
  INA229_config(INA229_10);
 8003704:	4b92      	ldr	r3, [pc, #584]	@ (8003950 <main+0x2d4>)
 8003706:	681b      	ldr	r3, [r3, #0]
 8003708:	4618      	mov	r0, r3
 800370a:	f7ff fab1 	bl	8002c70 <INA229_config>
  INA229_config(INA229_11);
 800370e:	4b91      	ldr	r3, [pc, #580]	@ (8003954 <main+0x2d8>)
 8003710:	681b      	ldr	r3, [r3, #0]
 8003712:	4618      	mov	r0, r3
 8003714:	f7ff faac 	bl	8002c70 <INA229_config>
  INA229_config(INA229_12);
 8003718:	4b8f      	ldr	r3, [pc, #572]	@ (8003958 <main+0x2dc>)
 800371a:	681b      	ldr	r3, [r3, #0]
 800371c:	4618      	mov	r0, r3
 800371e:	f7ff faa7 	bl	8002c70 <INA229_config>



  /* Initialize the display module */
  Display_Init();
 8003722:	f7ff fc9b 	bl	800305c <Display_Init>

  /* Display the main title page */
  Display_MainTitlePage();
 8003726:	f7ff fcc1 	bl	80030ac <Display_MainTitlePage>

  /* Initialize the expander at address 0x20 by configuring all its pins as outputs */
  Expander_InitAllDevices(&hi2c2);
 800372a:	488c      	ldr	r0, [pc, #560]	@ (800395c <main+0x2e0>)
 800372c:	f7ff fe1c 	bl	8003368 <Expander_InitAllDevices>
  Expander_InitAllDevices(&hi2c3);
 8003730:	488b      	ldr	r0, [pc, #556]	@ (8003960 <main+0x2e4>)
 8003732:	f7ff fe19 	bl	8003368 <Expander_InitAllDevices>

//	   Scan_I2C_Bus();
//	   Display_MainTitlePage();


	  Set_Output_Voltage(&hi2c2, CELL_1, 2.0f);
 8003736:	eeb0 0a00 	vmov.f32	s0, #0	@ 0x40000000  2.0
 800373a:	2100      	movs	r1, #0
 800373c:	4887      	ldr	r0, [pc, #540]	@ (800395c <main+0x2e0>)
 800373e:	f7ff ff2f 	bl	80035a0 <Set_Output_Voltage>
//		  cell11_Temp_03_Set(resistance[5]);


	  ///////////////////////////////////////////////////////////////////////////////////////////////////////

	  	  Set_Output_Voltage(&hi2c2, CELL_1, 2.0f);
 8003742:	eeb0 0a00 	vmov.f32	s0, #0	@ 0x40000000  2.0
 8003746:	2100      	movs	r1, #0
 8003748:	4884      	ldr	r0, [pc, #528]	@ (800395c <main+0x2e0>)
 800374a:	f7ff ff29 	bl	80035a0 <Set_Output_Voltage>

	  	  Expander_SetPinState(&hi2c2, GPIO_EXPANDER_ID_01, CELL_01_LED_01 , LOW);
 800374e:	2300      	movs	r3, #0
 8003750:	2210      	movs	r2, #16
 8003752:	2121      	movs	r1, #33	@ 0x21
 8003754:	4881      	ldr	r0, [pc, #516]	@ (800395c <main+0x2e0>)
 8003756:	f7ff fd62 	bl	800321e <Expander_SetPinState>
	  	  HAL_Delay(1000);
 800375a:	f44f 707a 	mov.w	r0, #1000	@ 0x3e8
 800375e:	f000 ff2f 	bl	80045c0 <HAL_Delay>
		  HAL_GPIO_WritePin(GPIOE, CELL12_CS_01_Pin, GPIO_PIN_RESET);
 8003762:	2200      	movs	r2, #0
 8003764:	2104      	movs	r1, #4
 8003766:	487f      	ldr	r0, [pc, #508]	@ (8003964 <main+0x2e8>)
 8003768:	f001 f9e0 	bl	8004b2c <HAL_GPIO_WritePin>



		  busVoltage_01 = INA229_getVBUS_V(INA229_0);
 800376c:	4b6e      	ldr	r3, [pc, #440]	@ (8003928 <main+0x2ac>)
 800376e:	681b      	ldr	r3, [r3, #0]
 8003770:	4618      	mov	r0, r3
 8003772:	f7ff fb35 	bl	8002de0 <INA229_getVBUS_V>
 8003776:	eef0 7a40 	vmov.f32	s15, s0
 800377a:	4b7b      	ldr	r3, [pc, #492]	@ (8003968 <main+0x2ec>)
 800377c:	edc3 7a00 	vstr	s15, [r3]

		  HAL_Delay(100);
 8003780:	2064      	movs	r0, #100	@ 0x64
 8003782:	f000 ff1d 	bl	80045c0 <HAL_Delay>

		  temperatureC_01 = INA229_getDIETEMP_C(INA229_0);
 8003786:	4b68      	ldr	r3, [pc, #416]	@ (8003928 <main+0x2ac>)
 8003788:	681b      	ldr	r3, [r3, #0]
 800378a:	4618      	mov	r0, r3
 800378c:	f7ff fb86 	bl	8002e9c <INA229_getDIETEMP_C>
 8003790:	eef0 7a40 	vmov.f32	s15, s0
 8003794:	4b75      	ldr	r3, [pc, #468]	@ (800396c <main+0x2f0>)
 8003796:	edc3 7a00 	vstr	s15, [r3]



		  HAL_GPIO_WritePin(GPIOE, CELL12_CS_01_Pin, GPIO_PIN_SET);
 800379a:	2201      	movs	r2, #1
 800379c:	2104      	movs	r1, #4
 800379e:	4871      	ldr	r0, [pc, #452]	@ (8003964 <main+0x2e8>)
 80037a0:	f001 f9c4 	bl	8004b2c <HAL_GPIO_WritePin>
		  HAL_Delay(1000);
 80037a4:	f44f 707a 	mov.w	r0, #1000	@ 0x3e8
 80037a8:	f000 ff0a 	bl	80045c0 <HAL_Delay>

		  Expander_SetPinState(&hi2c2, GPIO_EXPANDER_ID_01, CELL_01_LED_01 , HIGH);
 80037ac:	2301      	movs	r3, #1
 80037ae:	2210      	movs	r2, #16
 80037b0:	2121      	movs	r1, #33	@ 0x21
 80037b2:	486a      	ldr	r0, [pc, #424]	@ (800395c <main+0x2e0>)
 80037b4:	f7ff fd33 	bl	800321e <Expander_SetPinState>

		  //////////////////////////////////////////////////////////////////////////////////////////////////////

		  Set_Output_Voltage(&hi2c2, CELL_2, 3.3f);
 80037b8:	ed9f 0a6d 	vldr	s0, [pc, #436]	@ 8003970 <main+0x2f4>
 80037bc:	2101      	movs	r1, #1
 80037be:	4867      	ldr	r0, [pc, #412]	@ (800395c <main+0x2e0>)
 80037c0:	f7ff feee 	bl	80035a0 <Set_Output_Voltage>

		  	  	  Expander_SetPinState(&hi2c2, GPIO_EXPANDER_ID_01, CELL_02_LED_01 , LOW);
 80037c4:	2300      	movs	r3, #0
 80037c6:	f44f 7200 	mov.w	r2, #512	@ 0x200
 80037ca:	2121      	movs	r1, #33	@ 0x21
 80037cc:	4863      	ldr	r0, [pc, #396]	@ (800395c <main+0x2e0>)
 80037ce:	f7ff fd26 	bl	800321e <Expander_SetPinState>
		  	  	  HAL_Delay(1000);
 80037d2:	f44f 707a 	mov.w	r0, #1000	@ 0x3e8
 80037d6:	f000 fef3 	bl	80045c0 <HAL_Delay>
		  		  HAL_GPIO_WritePin(GPIOE, CELL12_CS_02_Pin, GPIO_PIN_RESET);
 80037da:	2200      	movs	r2, #0
 80037dc:	2108      	movs	r1, #8
 80037de:	4861      	ldr	r0, [pc, #388]	@ (8003964 <main+0x2e8>)
 80037e0:	f001 f9a4 	bl	8004b2c <HAL_GPIO_WritePin>



		  		  busVoltage_02 = INA229_getVBUS_V(INA229_1);
 80037e4:	4b51      	ldr	r3, [pc, #324]	@ (800392c <main+0x2b0>)
 80037e6:	681b      	ldr	r3, [r3, #0]
 80037e8:	4618      	mov	r0, r3
 80037ea:	f7ff faf9 	bl	8002de0 <INA229_getVBUS_V>
 80037ee:	eef0 7a40 	vmov.f32	s15, s0
 80037f2:	4b60      	ldr	r3, [pc, #384]	@ (8003974 <main+0x2f8>)
 80037f4:	edc3 7a00 	vstr	s15, [r3]

		  		  HAL_Delay(100);
 80037f8:	2064      	movs	r0, #100	@ 0x64
 80037fa:	f000 fee1 	bl	80045c0 <HAL_Delay>

		  		  temperatureC_02 = INA229_getDIETEMP_C(INA229_1);
 80037fe:	4b4b      	ldr	r3, [pc, #300]	@ (800392c <main+0x2b0>)
 8003800:	681b      	ldr	r3, [r3, #0]
 8003802:	4618      	mov	r0, r3
 8003804:	f7ff fb4a 	bl	8002e9c <INA229_getDIETEMP_C>
 8003808:	eef0 7a40 	vmov.f32	s15, s0
 800380c:	4b5a      	ldr	r3, [pc, #360]	@ (8003978 <main+0x2fc>)
 800380e:	edc3 7a00 	vstr	s15, [r3]



		  		  HAL_GPIO_WritePin(GPIOE, CELL12_CS_02_Pin, GPIO_PIN_SET);
 8003812:	2201      	movs	r2, #1
 8003814:	2108      	movs	r1, #8
 8003816:	4853      	ldr	r0, [pc, #332]	@ (8003964 <main+0x2e8>)
 8003818:	f001 f988 	bl	8004b2c <HAL_GPIO_WritePin>
		  		  HAL_Delay(1000);
 800381c:	f44f 707a 	mov.w	r0, #1000	@ 0x3e8
 8003820:	f000 fece 	bl	80045c0 <HAL_Delay>

		  		  Expander_SetPinState(&hi2c2, GPIO_EXPANDER_ID_01, CELL_02_LED_01 , HIGH);
 8003824:	2301      	movs	r3, #1
 8003826:	f44f 7200 	mov.w	r2, #512	@ 0x200
 800382a:	2121      	movs	r1, #33	@ 0x21
 800382c:	484b      	ldr	r0, [pc, #300]	@ (800395c <main+0x2e0>)
 800382e:	f7ff fcf6 	bl	800321e <Expander_SetPinState>

		  		  //////////////////////////////////////////////////////////////////////////////////////////////////////

			  	  Set_Output_Voltage(&hi2c2, CELL_3, 4.0f);
 8003832:	eeb1 0a00 	vmov.f32	s0, #16	@ 0x40800000  4.0
 8003836:	2102      	movs	r1, #2
 8003838:	4848      	ldr	r0, [pc, #288]	@ (800395c <main+0x2e0>)
 800383a:	f7ff feb1 	bl	80035a0 <Set_Output_Voltage>

			  	  Expander_SetPinState(&hi2c2, GPIO_EXPANDER_ID_01, CELL_03_LED_01 , LOW);
 800383e:	2300      	movs	r3, #0
 8003840:	f44f 6280 	mov.w	r2, #1024	@ 0x400
 8003844:	2121      	movs	r1, #33	@ 0x21
 8003846:	4845      	ldr	r0, [pc, #276]	@ (800395c <main+0x2e0>)
 8003848:	f7ff fce9 	bl	800321e <Expander_SetPinState>
			  	  HAL_Delay(1000);
 800384c:	f44f 707a 	mov.w	r0, #1000	@ 0x3e8
 8003850:	f000 feb6 	bl	80045c0 <HAL_Delay>
				  HAL_GPIO_WritePin(GPIOE, CELL12_CS_03_Pin, GPIO_PIN_RESET);
 8003854:	2200      	movs	r2, #0
 8003856:	2110      	movs	r1, #16
 8003858:	4842      	ldr	r0, [pc, #264]	@ (8003964 <main+0x2e8>)
 800385a:	f001 f967 	bl	8004b2c <HAL_GPIO_WritePin>



				  busVoltage_03 = INA229_getVBUS_V(INA229_2);
 800385e:	4b34      	ldr	r3, [pc, #208]	@ (8003930 <main+0x2b4>)
 8003860:	681b      	ldr	r3, [r3, #0]
 8003862:	4618      	mov	r0, r3
 8003864:	f7ff fabc 	bl	8002de0 <INA229_getVBUS_V>
 8003868:	eef0 7a40 	vmov.f32	s15, s0
 800386c:	4b43      	ldr	r3, [pc, #268]	@ (800397c <main+0x300>)
 800386e:	edc3 7a00 	vstr	s15, [r3]

				  HAL_Delay(100);
 8003872:	2064      	movs	r0, #100	@ 0x64
 8003874:	f000 fea4 	bl	80045c0 <HAL_Delay>

				  temperatureC_03 = INA229_getDIETEMP_C(INA229_2);
 8003878:	4b2d      	ldr	r3, [pc, #180]	@ (8003930 <main+0x2b4>)
 800387a:	681b      	ldr	r3, [r3, #0]
 800387c:	4618      	mov	r0, r3
 800387e:	f7ff fb0d 	bl	8002e9c <INA229_getDIETEMP_C>
 8003882:	eef0 7a40 	vmov.f32	s15, s0
 8003886:	4b3e      	ldr	r3, [pc, #248]	@ (8003980 <main+0x304>)
 8003888:	edc3 7a00 	vstr	s15, [r3]



				  HAL_GPIO_WritePin(GPIOE, CELL12_CS_03_Pin, GPIO_PIN_SET);
 800388c:	2201      	movs	r2, #1
 800388e:	2110      	movs	r1, #16
 8003890:	4834      	ldr	r0, [pc, #208]	@ (8003964 <main+0x2e8>)
 8003892:	f001 f94b 	bl	8004b2c <HAL_GPIO_WritePin>
				  HAL_Delay(1000);
 8003896:	f44f 707a 	mov.w	r0, #1000	@ 0x3e8
 800389a:	f000 fe91 	bl	80045c0 <HAL_Delay>

				  Expander_SetPinState(&hi2c2, GPIO_EXPANDER_ID_01, CELL_03_LED_01 , HIGH);
 800389e:	2301      	movs	r3, #1
 80038a0:	f44f 6280 	mov.w	r2, #1024	@ 0x400
 80038a4:	2121      	movs	r1, #33	@ 0x21
 80038a6:	482d      	ldr	r0, [pc, #180]	@ (800395c <main+0x2e0>)
 80038a8:	f7ff fcb9 	bl	800321e <Expander_SetPinState>

				  //////////////////////////////////////////////////////////////////////////////////////////////////////

				  Set_Output_Voltage(&hi2c2, CELL_4, 3.3f);
 80038ac:	ed9f 0a30 	vldr	s0, [pc, #192]	@ 8003970 <main+0x2f4>
 80038b0:	2103      	movs	r1, #3
 80038b2:	482a      	ldr	r0, [pc, #168]	@ (800395c <main+0x2e0>)
 80038b4:	f7ff fe74 	bl	80035a0 <Set_Output_Voltage>

				  	  	  Expander_SetPinState(&hi2c2, GPIO_EXPANDER_ID_02, CELL_01_LED_01 , LOW);
 80038b8:	2300      	movs	r3, #0
 80038ba:	2210      	movs	r2, #16
 80038bc:	2122      	movs	r1, #34	@ 0x22
 80038be:	4827      	ldr	r0, [pc, #156]	@ (800395c <main+0x2e0>)
 80038c0:	f7ff fcad 	bl	800321e <Expander_SetPinState>
				  	  	  HAL_Delay(1000);
 80038c4:	f44f 707a 	mov.w	r0, #1000	@ 0x3e8
 80038c8:	f000 fe7a 	bl	80045c0 <HAL_Delay>
				  		  HAL_GPIO_WritePin(GPIOE, CELL12_CS_04_Pin, GPIO_PIN_RESET);
 80038cc:	2200      	movs	r2, #0
 80038ce:	2120      	movs	r1, #32
 80038d0:	4824      	ldr	r0, [pc, #144]	@ (8003964 <main+0x2e8>)
 80038d2:	f001 f92b 	bl	8004b2c <HAL_GPIO_WritePin>



				  		  busVoltage_04 = INA229_getVBUS_V(INA229_3);
 80038d6:	4b17      	ldr	r3, [pc, #92]	@ (8003934 <main+0x2b8>)
 80038d8:	681b      	ldr	r3, [r3, #0]
 80038da:	4618      	mov	r0, r3
 80038dc:	f7ff fa80 	bl	8002de0 <INA229_getVBUS_V>
 80038e0:	eef0 7a40 	vmov.f32	s15, s0
 80038e4:	4b27      	ldr	r3, [pc, #156]	@ (8003984 <main+0x308>)
 80038e6:	edc3 7a00 	vstr	s15, [r3]

				  		  HAL_Delay(100);
 80038ea:	2064      	movs	r0, #100	@ 0x64
 80038ec:	f000 fe68 	bl	80045c0 <HAL_Delay>

				  		  temperatureC_04 = INA229_getDIETEMP_C(INA229_3);
 80038f0:	4b10      	ldr	r3, [pc, #64]	@ (8003934 <main+0x2b8>)
 80038f2:	681b      	ldr	r3, [r3, #0]
 80038f4:	4618      	mov	r0, r3
 80038f6:	f7ff fad1 	bl	8002e9c <INA229_getDIETEMP_C>
 80038fa:	eef0 7a40 	vmov.f32	s15, s0
 80038fe:	4b22      	ldr	r3, [pc, #136]	@ (8003988 <main+0x30c>)
 8003900:	edc3 7a00 	vstr	s15, [r3]



				  		  HAL_GPIO_WritePin(GPIOE, CELL12_CS_04_Pin, GPIO_PIN_SET);
 8003904:	2201      	movs	r2, #1
 8003906:	2120      	movs	r1, #32
 8003908:	4816      	ldr	r0, [pc, #88]	@ (8003964 <main+0x2e8>)
 800390a:	f001 f90f 	bl	8004b2c <HAL_GPIO_WritePin>
				  		  HAL_Delay(1000);
 800390e:	f44f 707a 	mov.w	r0, #1000	@ 0x3e8
 8003912:	f000 fe55 	bl	80045c0 <HAL_Delay>

				  		  Expander_SetPinState(&hi2c2, GPIO_EXPANDER_ID_02, CELL_01_LED_01 , HIGH);
 8003916:	2301      	movs	r3, #1
 8003918:	2210      	movs	r2, #16
 800391a:	2122      	movs	r1, #34	@ 0x22
 800391c:	480f      	ldr	r0, [pc, #60]	@ (800395c <main+0x2e0>)
 800391e:	f7ff fc7e 	bl	800321e <Expander_SetPinState>
	  Set_Output_Voltage(&hi2c2, CELL_1, 2.0f);
 8003922:	bf00      	nop
 8003924:	e707      	b.n	8003736 <main+0xba>
 8003926:	bf00      	nop
 8003928:	08007c34 	.word	0x08007c34
 800392c:	08007c38 	.word	0x08007c38
 8003930:	08007c3c 	.word	0x08007c3c
 8003934:	08007c40 	.word	0x08007c40
 8003938:	08007c44 	.word	0x08007c44
 800393c:	08007c48 	.word	0x08007c48
 8003940:	08007c4c 	.word	0x08007c4c
 8003944:	08007c50 	.word	0x08007c50
 8003948:	08007c54 	.word	0x08007c54
 800394c:	08007c58 	.word	0x08007c58
 8003950:	08007c5c 	.word	0x08007c5c
 8003954:	08007c60 	.word	0x08007c60
 8003958:	08007c64 	.word	0x08007c64
 800395c:	20000abc 	.word	0x20000abc
 8003960:	20000b10 	.word	0x20000b10
 8003964:	40021000 	.word	0x40021000
 8003968:	20000a9c 	.word	0x20000a9c
 800396c:	20000aa0 	.word	0x20000aa0
 8003970:	40533333 	.word	0x40533333
 8003974:	20000aa4 	.word	0x20000aa4
 8003978:	20000aa8 	.word	0x20000aa8
 800397c:	20000aac 	.word	0x20000aac
 8003980:	20000ab0 	.word	0x20000ab0
 8003984:	20000ab4 	.word	0x20000ab4
 8003988:	20000ab8 	.word	0x20000ab8

0800398c <SystemClock_Config>:
/**
  * @brief System Clock Configuration
  * @retval None
  */
void SystemClock_Config(void)
{
 800398c:	b580      	push	{r7, lr}
 800398e:	b094      	sub	sp, #80	@ 0x50
 8003990:	af00      	add	r7, sp, #0
  RCC_OscInitTypeDef RCC_OscInitStruct = {0};
 8003992:	f107 0320 	add.w	r3, r7, #32
 8003996:	2230      	movs	r2, #48	@ 0x30
 8003998:	2100      	movs	r1, #0
 800399a:	4618      	mov	r0, r3
 800399c:	f003 fa66 	bl	8006e6c <memset>
  RCC_ClkInitTypeDef RCC_ClkInitStruct = {0};
 80039a0:	f107 030c 	add.w	r3, r7, #12
 80039a4:	2200      	movs	r2, #0
 80039a6:	601a      	str	r2, [r3, #0]
 80039a8:	605a      	str	r2, [r3, #4]
 80039aa:	609a      	str	r2, [r3, #8]
 80039ac:	60da      	str	r2, [r3, #12]
 80039ae:	611a      	str	r2, [r3, #16]

  /** Configure the main internal regulator output voltage
  */
  __HAL_RCC_PWR_CLK_ENABLE();
 80039b0:	2300      	movs	r3, #0
 80039b2:	60bb      	str	r3, [r7, #8]
 80039b4:	4b2b      	ldr	r3, [pc, #172]	@ (8003a64 <SystemClock_Config+0xd8>)
 80039b6:	6c1b      	ldr	r3, [r3, #64]	@ 0x40
 80039b8:	4a2a      	ldr	r2, [pc, #168]	@ (8003a64 <SystemClock_Config+0xd8>)
 80039ba:	f043 5380 	orr.w	r3, r3, #268435456	@ 0x10000000
 80039be:	6413      	str	r3, [r2, #64]	@ 0x40
 80039c0:	4b28      	ldr	r3, [pc, #160]	@ (8003a64 <SystemClock_Config+0xd8>)
 80039c2:	6c1b      	ldr	r3, [r3, #64]	@ 0x40
 80039c4:	f003 5380 	and.w	r3, r3, #268435456	@ 0x10000000
 80039c8:	60bb      	str	r3, [r7, #8]
 80039ca:	68bb      	ldr	r3, [r7, #8]
  __HAL_PWR_VOLTAGESCALING_CONFIG(PWR_REGULATOR_VOLTAGE_SCALE1);
 80039cc:	2300      	movs	r3, #0
 80039ce:	607b      	str	r3, [r7, #4]
 80039d0:	4b25      	ldr	r3, [pc, #148]	@ (8003a68 <SystemClock_Config+0xdc>)
 80039d2:	681b      	ldr	r3, [r3, #0]
 80039d4:	4a24      	ldr	r2, [pc, #144]	@ (8003a68 <SystemClock_Config+0xdc>)
 80039d6:	f443 4340 	orr.w	r3, r3, #49152	@ 0xc000
 80039da:	6013      	str	r3, [r2, #0]
 80039dc:	4b22      	ldr	r3, [pc, #136]	@ (8003a68 <SystemClock_Config+0xdc>)
 80039de:	681b      	ldr	r3, [r3, #0]
 80039e0:	f403 4340 	and.w	r3, r3, #49152	@ 0xc000
 80039e4:	607b      	str	r3, [r7, #4]
 80039e6:	687b      	ldr	r3, [r7, #4]

  /** Initializes the RCC Oscillators according to the specified parameters
  * in the RCC_OscInitTypeDef structure.
  */
  RCC_OscInitStruct.OscillatorType = RCC_OSCILLATORTYPE_HSE;
 80039e8:	2301      	movs	r3, #1
 80039ea:	623b      	str	r3, [r7, #32]
  RCC_OscInitStruct.HSEState = RCC_HSE_ON;
 80039ec:	f44f 3380 	mov.w	r3, #65536	@ 0x10000
 80039f0:	627b      	str	r3, [r7, #36]	@ 0x24
  RCC_OscInitStruct.PLL.PLLState = RCC_PLL_ON;
 80039f2:	2302      	movs	r3, #2
 80039f4:	63bb      	str	r3, [r7, #56]	@ 0x38
  RCC_OscInitStruct.PLL.PLLSource = RCC_PLLSOURCE_HSE;
 80039f6:	f44f 0380 	mov.w	r3, #4194304	@ 0x400000
 80039fa:	63fb      	str	r3, [r7, #60]	@ 0x3c
  RCC_OscInitStruct.PLL.PLLM = 15;
 80039fc:	230f      	movs	r3, #15
 80039fe:	643b      	str	r3, [r7, #64]	@ 0x40
  RCC_OscInitStruct.PLL.PLLN = 216;
 8003a00:	23d8      	movs	r3, #216	@ 0xd8
 8003a02:	647b      	str	r3, [r7, #68]	@ 0x44
  RCC_OscInitStruct.PLL.PLLP = RCC_PLLP_DIV2;
 8003a04:	2302      	movs	r3, #2
 8003a06:	64bb      	str	r3, [r7, #72]	@ 0x48
  RCC_OscInitStruct.PLL.PLLQ = 4;
 8003a08:	2304      	movs	r3, #4
 8003a0a:	64fb      	str	r3, [r7, #76]	@ 0x4c
  if (HAL_RCC_OscConfig(&RCC_OscInitStruct) != HAL_OK)
 8003a0c:	f107 0320 	add.w	r3, r7, #32
 8003a10:	4618      	mov	r0, r3
 8003a12:	f002 f995 	bl	8005d40 <HAL_RCC_OscConfig>
 8003a16:	4603      	mov	r3, r0
 8003a18:	2b00      	cmp	r3, #0
 8003a1a:	d001      	beq.n	8003a20 <SystemClock_Config+0x94>
  {
    Error_Handler();
 8003a1c:	f000 fb6c 	bl	80040f8 <Error_Handler>
  }

  /** Activate the Over-Drive mode
  */
  if (HAL_PWREx_EnableOverDrive() != HAL_OK)
 8003a20:	f002 f93e 	bl	8005ca0 <HAL_PWREx_EnableOverDrive>
 8003a24:	4603      	mov	r3, r0
 8003a26:	2b00      	cmp	r3, #0
 8003a28:	d001      	beq.n	8003a2e <SystemClock_Config+0xa2>
  {
    Error_Handler();
 8003a2a:	f000 fb65 	bl	80040f8 <Error_Handler>
  }

  /** Initializes the CPU, AHB and APB buses clocks
  */
  RCC_ClkInitStruct.ClockType = RCC_CLOCKTYPE_HCLK|RCC_CLOCKTYPE_SYSCLK
 8003a2e:	230f      	movs	r3, #15
 8003a30:	60fb      	str	r3, [r7, #12]
                              |RCC_CLOCKTYPE_PCLK1|RCC_CLOCKTYPE_PCLK2;
  RCC_ClkInitStruct.SYSCLKSource = RCC_SYSCLKSOURCE_PLLCLK;
 8003a32:	2302      	movs	r3, #2
 8003a34:	613b      	str	r3, [r7, #16]
  RCC_ClkInitStruct.AHBCLKDivider = RCC_SYSCLK_DIV1;
 8003a36:	2300      	movs	r3, #0
 8003a38:	617b      	str	r3, [r7, #20]
  RCC_ClkInitStruct.APB1CLKDivider = RCC_HCLK_DIV4;
 8003a3a:	f44f 53a0 	mov.w	r3, #5120	@ 0x1400
 8003a3e:	61bb      	str	r3, [r7, #24]
  RCC_ClkInitStruct.APB2CLKDivider = RCC_HCLK_DIV2;
 8003a40:	f44f 5380 	mov.w	r3, #4096	@ 0x1000
 8003a44:	61fb      	str	r3, [r7, #28]

  if (HAL_RCC_ClockConfig(&RCC_ClkInitStruct, FLASH_LATENCY_5) != HAL_OK)
 8003a46:	f107 030c 	add.w	r3, r7, #12
 8003a4a:	2105      	movs	r1, #5
 8003a4c:	4618      	mov	r0, r3
 8003a4e:	f002 fbef 	bl	8006230 <HAL_RCC_ClockConfig>
 8003a52:	4603      	mov	r3, r0
 8003a54:	2b00      	cmp	r3, #0
 8003a56:	d001      	beq.n	8003a5c <SystemClock_Config+0xd0>
  {
    Error_Handler();
 8003a58:	f000 fb4e 	bl	80040f8 <Error_Handler>
  }
}
 8003a5c:	bf00      	nop
 8003a5e:	3750      	adds	r7, #80	@ 0x50
 8003a60:	46bd      	mov	sp, r7
 8003a62:	bd80      	pop	{r7, pc}
 8003a64:	40023800 	.word	0x40023800
 8003a68:	40007000 	.word	0x40007000

08003a6c <MX_I2C2_Init>:
  * @brief I2C2 Initialization Function
  * @param None
  * @retval None
  */
static void MX_I2C2_Init(void)
{
 8003a6c:	b580      	push	{r7, lr}
 8003a6e:	af00      	add	r7, sp, #0
  /* USER CODE END I2C2_Init 0 */

  /* USER CODE BEGIN I2C2_Init 1 */

  /* USER CODE END I2C2_Init 1 */
  hi2c2.Instance = I2C2;
 8003a70:	4b1b      	ldr	r3, [pc, #108]	@ (8003ae0 <MX_I2C2_Init+0x74>)
 8003a72:	4a1c      	ldr	r2, [pc, #112]	@ (8003ae4 <MX_I2C2_Init+0x78>)
 8003a74:	601a      	str	r2, [r3, #0]
  hi2c2.Init.ClockSpeed = 400000;
 8003a76:	4b1a      	ldr	r3, [pc, #104]	@ (8003ae0 <MX_I2C2_Init+0x74>)
 8003a78:	4a1b      	ldr	r2, [pc, #108]	@ (8003ae8 <MX_I2C2_Init+0x7c>)
 8003a7a:	605a      	str	r2, [r3, #4]
  hi2c2.Init.DutyCycle = I2C_DUTYCYCLE_2;
 8003a7c:	4b18      	ldr	r3, [pc, #96]	@ (8003ae0 <MX_I2C2_Init+0x74>)
 8003a7e:	2200      	movs	r2, #0
 8003a80:	609a      	str	r2, [r3, #8]
  hi2c2.Init.OwnAddress1 = 0;
 8003a82:	4b17      	ldr	r3, [pc, #92]	@ (8003ae0 <MX_I2C2_Init+0x74>)
 8003a84:	2200      	movs	r2, #0
 8003a86:	60da      	str	r2, [r3, #12]
  hi2c2.Init.AddressingMode = I2C_ADDRESSINGMODE_7BIT;
 8003a88:	4b15      	ldr	r3, [pc, #84]	@ (8003ae0 <MX_I2C2_Init+0x74>)
 8003a8a:	f44f 4280 	mov.w	r2, #16384	@ 0x4000
 8003a8e:	611a      	str	r2, [r3, #16]
  hi2c2.Init.DualAddressMode = I2C_DUALADDRESS_DISABLE;
 8003a90:	4b13      	ldr	r3, [pc, #76]	@ (8003ae0 <MX_I2C2_Init+0x74>)
 8003a92:	2200      	movs	r2, #0
 8003a94:	615a      	str	r2, [r3, #20]
  hi2c2.Init.OwnAddress2 = 0;
 8003a96:	4b12      	ldr	r3, [pc, #72]	@ (8003ae0 <MX_I2C2_Init+0x74>)
 8003a98:	2200      	movs	r2, #0
 8003a9a:	619a      	str	r2, [r3, #24]
  hi2c2.Init.GeneralCallMode = I2C_GENERALCALL_DISABLE;
 8003a9c:	4b10      	ldr	r3, [pc, #64]	@ (8003ae0 <MX_I2C2_Init+0x74>)
 8003a9e:	2200      	movs	r2, #0
 8003aa0:	61da      	str	r2, [r3, #28]
  hi2c2.Init.NoStretchMode = I2C_NOSTRETCH_DISABLE;
 8003aa2:	4b0f      	ldr	r3, [pc, #60]	@ (8003ae0 <MX_I2C2_Init+0x74>)
 8003aa4:	2200      	movs	r2, #0
 8003aa6:	621a      	str	r2, [r3, #32]
  if (HAL_I2C_Init(&hi2c2) != HAL_OK)
 8003aa8:	480d      	ldr	r0, [pc, #52]	@ (8003ae0 <MX_I2C2_Init+0x74>)
 8003aaa:	f001 f859 	bl	8004b60 <HAL_I2C_Init>
 8003aae:	4603      	mov	r3, r0
 8003ab0:	2b00      	cmp	r3, #0
 8003ab2:	d001      	beq.n	8003ab8 <MX_I2C2_Init+0x4c>
  {
    Error_Handler();
 8003ab4:	f000 fb20 	bl	80040f8 <Error_Handler>
  }

  /** Configure Analogue filter
  */
  if (HAL_I2CEx_ConfigAnalogFilter(&hi2c2, I2C_ANALOGFILTER_ENABLE) != HAL_OK)
 8003ab8:	2100      	movs	r1, #0
 8003aba:	4809      	ldr	r0, [pc, #36]	@ (8003ae0 <MX_I2C2_Init+0x74>)
 8003abc:	f002 f874 	bl	8005ba8 <HAL_I2CEx_ConfigAnalogFilter>
 8003ac0:	4603      	mov	r3, r0
 8003ac2:	2b00      	cmp	r3, #0
 8003ac4:	d001      	beq.n	8003aca <MX_I2C2_Init+0x5e>
  {
    Error_Handler();
 8003ac6:	f000 fb17 	bl	80040f8 <Error_Handler>
  }

  /** Configure Digital filter
  */
  if (HAL_I2CEx_ConfigDigitalFilter(&hi2c2, 0) != HAL_OK)
 8003aca:	2100      	movs	r1, #0
 8003acc:	4804      	ldr	r0, [pc, #16]	@ (8003ae0 <MX_I2C2_Init+0x74>)
 8003ace:	f002 f8a7 	bl	8005c20 <HAL_I2CEx_ConfigDigitalFilter>
 8003ad2:	4603      	mov	r3, r0
 8003ad4:	2b00      	cmp	r3, #0
 8003ad6:	d001      	beq.n	8003adc <MX_I2C2_Init+0x70>
  {
    Error_Handler();
 8003ad8:	f000 fb0e 	bl	80040f8 <Error_Handler>
  }
  /* USER CODE BEGIN I2C2_Init 2 */

  /* USER CODE END I2C2_Init 2 */

}
 8003adc:	bf00      	nop
 8003ade:	bd80      	pop	{r7, pc}
 8003ae0:	20000abc 	.word	0x20000abc
 8003ae4:	40005800 	.word	0x40005800
 8003ae8:	00061a80 	.word	0x00061a80

08003aec <MX_I2C3_Init>:
  * @brief I2C3 Initialization Function
  * @param None
  * @retval None
  */
static void MX_I2C3_Init(void)
{
 8003aec:	b580      	push	{r7, lr}
 8003aee:	af00      	add	r7, sp, #0
  /* USER CODE END I2C3_Init 0 */

  /* USER CODE BEGIN I2C3_Init 1 */

  /* USER CODE END I2C3_Init 1 */
  hi2c3.Instance = I2C3;
 8003af0:	4b1b      	ldr	r3, [pc, #108]	@ (8003b60 <MX_I2C3_Init+0x74>)
 8003af2:	4a1c      	ldr	r2, [pc, #112]	@ (8003b64 <MX_I2C3_Init+0x78>)
 8003af4:	601a      	str	r2, [r3, #0]
  hi2c3.Init.ClockSpeed = 400000;
 8003af6:	4b1a      	ldr	r3, [pc, #104]	@ (8003b60 <MX_I2C3_Init+0x74>)
 8003af8:	4a1b      	ldr	r2, [pc, #108]	@ (8003b68 <MX_I2C3_Init+0x7c>)
 8003afa:	605a      	str	r2, [r3, #4]
  hi2c3.Init.DutyCycle = I2C_DUTYCYCLE_2;
 8003afc:	4b18      	ldr	r3, [pc, #96]	@ (8003b60 <MX_I2C3_Init+0x74>)
 8003afe:	2200      	movs	r2, #0
 8003b00:	609a      	str	r2, [r3, #8]
  hi2c3.Init.OwnAddress1 = 0;
 8003b02:	4b17      	ldr	r3, [pc, #92]	@ (8003b60 <MX_I2C3_Init+0x74>)
 8003b04:	2200      	movs	r2, #0
 8003b06:	60da      	str	r2, [r3, #12]
  hi2c3.Init.AddressingMode = I2C_ADDRESSINGMODE_7BIT;
 8003b08:	4b15      	ldr	r3, [pc, #84]	@ (8003b60 <MX_I2C3_Init+0x74>)
 8003b0a:	f44f 4280 	mov.w	r2, #16384	@ 0x4000
 8003b0e:	611a      	str	r2, [r3, #16]
  hi2c3.Init.DualAddressMode = I2C_DUALADDRESS_DISABLE;
 8003b10:	4b13      	ldr	r3, [pc, #76]	@ (8003b60 <MX_I2C3_Init+0x74>)
 8003b12:	2200      	movs	r2, #0
 8003b14:	615a      	str	r2, [r3, #20]
  hi2c3.Init.OwnAddress2 = 0;
 8003b16:	4b12      	ldr	r3, [pc, #72]	@ (8003b60 <MX_I2C3_Init+0x74>)
 8003b18:	2200      	movs	r2, #0
 8003b1a:	619a      	str	r2, [r3, #24]
  hi2c3.Init.GeneralCallMode = I2C_GENERALCALL_DISABLE;
 8003b1c:	4b10      	ldr	r3, [pc, #64]	@ (8003b60 <MX_I2C3_Init+0x74>)
 8003b1e:	2200      	movs	r2, #0
 8003b20:	61da      	str	r2, [r3, #28]
  hi2c3.Init.NoStretchMode = I2C_NOSTRETCH_DISABLE;
 8003b22:	4b0f      	ldr	r3, [pc, #60]	@ (8003b60 <MX_I2C3_Init+0x74>)
 8003b24:	2200      	movs	r2, #0
 8003b26:	621a      	str	r2, [r3, #32]
  if (HAL_I2C_Init(&hi2c3) != HAL_OK)
 8003b28:	480d      	ldr	r0, [pc, #52]	@ (8003b60 <MX_I2C3_Init+0x74>)
 8003b2a:	f001 f819 	bl	8004b60 <HAL_I2C_Init>
 8003b2e:	4603      	mov	r3, r0
 8003b30:	2b00      	cmp	r3, #0
 8003b32:	d001      	beq.n	8003b38 <MX_I2C3_Init+0x4c>
  {
    Error_Handler();
 8003b34:	f000 fae0 	bl	80040f8 <Error_Handler>
  }

  /** Configure Analogue filter
  */
  if (HAL_I2CEx_ConfigAnalogFilter(&hi2c3, I2C_ANALOGFILTER_ENABLE) != HAL_OK)
 8003b38:	2100      	movs	r1, #0
 8003b3a:	4809      	ldr	r0, [pc, #36]	@ (8003b60 <MX_I2C3_Init+0x74>)
 8003b3c:	f002 f834 	bl	8005ba8 <HAL_I2CEx_ConfigAnalogFilter>
 8003b40:	4603      	mov	r3, r0
 8003b42:	2b00      	cmp	r3, #0
 8003b44:	d001      	beq.n	8003b4a <MX_I2C3_Init+0x5e>
  {
    Error_Handler();
 8003b46:	f000 fad7 	bl	80040f8 <Error_Handler>
  }

  /** Configure Digital filter
  */
  if (HAL_I2CEx_ConfigDigitalFilter(&hi2c3, 0) != HAL_OK)
 8003b4a:	2100      	movs	r1, #0
 8003b4c:	4804      	ldr	r0, [pc, #16]	@ (8003b60 <MX_I2C3_Init+0x74>)
 8003b4e:	f002 f867 	bl	8005c20 <HAL_I2CEx_ConfigDigitalFilter>
 8003b52:	4603      	mov	r3, r0
 8003b54:	2b00      	cmp	r3, #0
 8003b56:	d001      	beq.n	8003b5c <MX_I2C3_Init+0x70>
  {
    Error_Handler();
 8003b58:	f000 face 	bl	80040f8 <Error_Handler>
  }
  /* USER CODE BEGIN I2C3_Init 2 */

  /* USER CODE END I2C3_Init 2 */

}
 8003b5c:	bf00      	nop
 8003b5e:	bd80      	pop	{r7, pc}
 8003b60:	20000b10 	.word	0x20000b10
 8003b64:	40005c00 	.word	0x40005c00
 8003b68:	00061a80 	.word	0x00061a80

08003b6c <MX_SPI1_Init>:
  * @brief SPI1 Initialization Function
  * @param None
  * @retval None
  */
static void MX_SPI1_Init(void)
{
 8003b6c:	b580      	push	{r7, lr}
 8003b6e:	af00      	add	r7, sp, #0

  /* USER CODE BEGIN SPI1_Init 1 */

  /* USER CODE END SPI1_Init 1 */
  /* SPI1 parameter configuration*/
  hspi1.Instance = SPI1;
 8003b70:	4b17      	ldr	r3, [pc, #92]	@ (8003bd0 <MX_SPI1_Init+0x64>)
 8003b72:	4a18      	ldr	r2, [pc, #96]	@ (8003bd4 <MX_SPI1_Init+0x68>)
 8003b74:	601a      	str	r2, [r3, #0]
  hspi1.Init.Mode = SPI_MODE_MASTER;
 8003b76:	4b16      	ldr	r3, [pc, #88]	@ (8003bd0 <MX_SPI1_Init+0x64>)
 8003b78:	f44f 7282 	mov.w	r2, #260	@ 0x104
 8003b7c:	605a      	str	r2, [r3, #4]
  hspi1.Init.Direction = SPI_DIRECTION_2LINES;
 8003b7e:	4b14      	ldr	r3, [pc, #80]	@ (8003bd0 <MX_SPI1_Init+0x64>)
 8003b80:	2200      	movs	r2, #0
 8003b82:	609a      	str	r2, [r3, #8]
  hspi1.Init.DataSize = SPI_DATASIZE_8BIT;
 8003b84:	4b12      	ldr	r3, [pc, #72]	@ (8003bd0 <MX_SPI1_Init+0x64>)
 8003b86:	2200      	movs	r2, #0
 8003b88:	60da      	str	r2, [r3, #12]
  hspi1.Init.CLKPolarity = SPI_POLARITY_LOW;
 8003b8a:	4b11      	ldr	r3, [pc, #68]	@ (8003bd0 <MX_SPI1_Init+0x64>)
 8003b8c:	2200      	movs	r2, #0
 8003b8e:	611a      	str	r2, [r3, #16]
  hspi1.Init.CLKPhase = SPI_PHASE_2EDGE;
 8003b90:	4b0f      	ldr	r3, [pc, #60]	@ (8003bd0 <MX_SPI1_Init+0x64>)
 8003b92:	2201      	movs	r2, #1
 8003b94:	615a      	str	r2, [r3, #20]
  hspi1.Init.NSS = SPI_NSS_SOFT;
 8003b96:	4b0e      	ldr	r3, [pc, #56]	@ (8003bd0 <MX_SPI1_Init+0x64>)
 8003b98:	f44f 7200 	mov.w	r2, #512	@ 0x200
 8003b9c:	619a      	str	r2, [r3, #24]
  hspi1.Init.BaudRatePrescaler = SPI_BAUDRATEPRESCALER_16;
 8003b9e:	4b0c      	ldr	r3, [pc, #48]	@ (8003bd0 <MX_SPI1_Init+0x64>)
 8003ba0:	2218      	movs	r2, #24
 8003ba2:	61da      	str	r2, [r3, #28]
  hspi1.Init.FirstBit = SPI_FIRSTBIT_MSB;
 8003ba4:	4b0a      	ldr	r3, [pc, #40]	@ (8003bd0 <MX_SPI1_Init+0x64>)
 8003ba6:	2200      	movs	r2, #0
 8003ba8:	621a      	str	r2, [r3, #32]
  hspi1.Init.TIMode = SPI_TIMODE_DISABLE;
 8003baa:	4b09      	ldr	r3, [pc, #36]	@ (8003bd0 <MX_SPI1_Init+0x64>)
 8003bac:	2200      	movs	r2, #0
 8003bae:	625a      	str	r2, [r3, #36]	@ 0x24
  hspi1.Init.CRCCalculation = SPI_CRCCALCULATION_DISABLE;
 8003bb0:	4b07      	ldr	r3, [pc, #28]	@ (8003bd0 <MX_SPI1_Init+0x64>)
 8003bb2:	2200      	movs	r2, #0
 8003bb4:	629a      	str	r2, [r3, #40]	@ 0x28
  hspi1.Init.CRCPolynomial = 10;
 8003bb6:	4b06      	ldr	r3, [pc, #24]	@ (8003bd0 <MX_SPI1_Init+0x64>)
 8003bb8:	220a      	movs	r2, #10
 8003bba:	62da      	str	r2, [r3, #44]	@ 0x2c
  if (HAL_SPI_Init(&hspi1) != HAL_OK)
 8003bbc:	4804      	ldr	r0, [pc, #16]	@ (8003bd0 <MX_SPI1_Init+0x64>)
 8003bbe:	f002 fd03 	bl	80065c8 <HAL_SPI_Init>
 8003bc2:	4603      	mov	r3, r0
 8003bc4:	2b00      	cmp	r3, #0
 8003bc6:	d001      	beq.n	8003bcc <MX_SPI1_Init+0x60>
  {
    Error_Handler();
 8003bc8:	f000 fa96 	bl	80040f8 <Error_Handler>
  }
  /* USER CODE BEGIN SPI1_Init 2 */

  /* USER CODE END SPI1_Init 2 */

}
 8003bcc:	bf00      	nop
 8003bce:	bd80      	pop	{r7, pc}
 8003bd0:	20000b64 	.word	0x20000b64
 8003bd4:	40013000 	.word	0x40013000

08003bd8 <MX_SPI2_Init>:
  * @brief SPI2 Initialization Function
  * @param None
  * @retval None
  */
static void MX_SPI2_Init(void)
{
 8003bd8:	b580      	push	{r7, lr}
 8003bda:	af00      	add	r7, sp, #0

  /* USER CODE BEGIN SPI2_Init 1 */

  /* USER CODE END SPI2_Init 1 */
  /* SPI2 parameter configuration*/
  hspi2.Instance = SPI2;
 8003bdc:	4b17      	ldr	r3, [pc, #92]	@ (8003c3c <MX_SPI2_Init+0x64>)
 8003bde:	4a18      	ldr	r2, [pc, #96]	@ (8003c40 <MX_SPI2_Init+0x68>)
 8003be0:	601a      	str	r2, [r3, #0]
  hspi2.Init.Mode = SPI_MODE_MASTER;
 8003be2:	4b16      	ldr	r3, [pc, #88]	@ (8003c3c <MX_SPI2_Init+0x64>)
 8003be4:	f44f 7282 	mov.w	r2, #260	@ 0x104
 8003be8:	605a      	str	r2, [r3, #4]
  hspi2.Init.Direction = SPI_DIRECTION_2LINES;
 8003bea:	4b14      	ldr	r3, [pc, #80]	@ (8003c3c <MX_SPI2_Init+0x64>)
 8003bec:	2200      	movs	r2, #0
 8003bee:	609a      	str	r2, [r3, #8]
  hspi2.Init.DataSize = SPI_DATASIZE_8BIT;
 8003bf0:	4b12      	ldr	r3, [pc, #72]	@ (8003c3c <MX_SPI2_Init+0x64>)
 8003bf2:	2200      	movs	r2, #0
 8003bf4:	60da      	str	r2, [r3, #12]
  hspi2.Init.CLKPolarity = SPI_POLARITY_LOW;
 8003bf6:	4b11      	ldr	r3, [pc, #68]	@ (8003c3c <MX_SPI2_Init+0x64>)
 8003bf8:	2200      	movs	r2, #0
 8003bfa:	611a      	str	r2, [r3, #16]
  hspi2.Init.CLKPhase = SPI_PHASE_2EDGE;
 8003bfc:	4b0f      	ldr	r3, [pc, #60]	@ (8003c3c <MX_SPI2_Init+0x64>)
 8003bfe:	2201      	movs	r2, #1
 8003c00:	615a      	str	r2, [r3, #20]
  hspi2.Init.NSS = SPI_NSS_SOFT;
 8003c02:	4b0e      	ldr	r3, [pc, #56]	@ (8003c3c <MX_SPI2_Init+0x64>)
 8003c04:	f44f 7200 	mov.w	r2, #512	@ 0x200
 8003c08:	619a      	str	r2, [r3, #24]
  hspi2.Init.BaudRatePrescaler = SPI_BAUDRATEPRESCALER_16;
 8003c0a:	4b0c      	ldr	r3, [pc, #48]	@ (8003c3c <MX_SPI2_Init+0x64>)
 8003c0c:	2218      	movs	r2, #24
 8003c0e:	61da      	str	r2, [r3, #28]
  hspi2.Init.FirstBit = SPI_FIRSTBIT_MSB;
 8003c10:	4b0a      	ldr	r3, [pc, #40]	@ (8003c3c <MX_SPI2_Init+0x64>)
 8003c12:	2200      	movs	r2, #0
 8003c14:	621a      	str	r2, [r3, #32]
  hspi2.Init.TIMode = SPI_TIMODE_DISABLE;
 8003c16:	4b09      	ldr	r3, [pc, #36]	@ (8003c3c <MX_SPI2_Init+0x64>)
 8003c18:	2200      	movs	r2, #0
 8003c1a:	625a      	str	r2, [r3, #36]	@ 0x24
  hspi2.Init.CRCCalculation = SPI_CRCCALCULATION_DISABLE;
 8003c1c:	4b07      	ldr	r3, [pc, #28]	@ (8003c3c <MX_SPI2_Init+0x64>)
 8003c1e:	2200      	movs	r2, #0
 8003c20:	629a      	str	r2, [r3, #40]	@ 0x28
  hspi2.Init.CRCPolynomial = 10;
 8003c22:	4b06      	ldr	r3, [pc, #24]	@ (8003c3c <MX_SPI2_Init+0x64>)
 8003c24:	220a      	movs	r2, #10
 8003c26:	62da      	str	r2, [r3, #44]	@ 0x2c
  if (HAL_SPI_Init(&hspi2) != HAL_OK)
 8003c28:	4804      	ldr	r0, [pc, #16]	@ (8003c3c <MX_SPI2_Init+0x64>)
 8003c2a:	f002 fccd 	bl	80065c8 <HAL_SPI_Init>
 8003c2e:	4603      	mov	r3, r0
 8003c30:	2b00      	cmp	r3, #0
 8003c32:	d001      	beq.n	8003c38 <MX_SPI2_Init+0x60>
  {
    Error_Handler();
 8003c34:	f000 fa60 	bl	80040f8 <Error_Handler>
  }
  /* USER CODE BEGIN SPI2_Init 2 */

  /* USER CODE END SPI2_Init 2 */

}
 8003c38:	bf00      	nop
 8003c3a:	bd80      	pop	{r7, pc}
 8003c3c:	20000bbc 	.word	0x20000bbc
 8003c40:	40003800 	.word	0x40003800

08003c44 <MX_SPI3_Init>:
  * @brief SPI3 Initialization Function
  * @param None
  * @retval None
  */
static void MX_SPI3_Init(void)
{
 8003c44:	b580      	push	{r7, lr}
 8003c46:	af00      	add	r7, sp, #0

  /* USER CODE BEGIN SPI3_Init 1 */

  /* USER CODE END SPI3_Init 1 */
  /* SPI3 parameter configuration*/
  hspi3.Instance = SPI3;
 8003c48:	4b17      	ldr	r3, [pc, #92]	@ (8003ca8 <MX_SPI3_Init+0x64>)
 8003c4a:	4a18      	ldr	r2, [pc, #96]	@ (8003cac <MX_SPI3_Init+0x68>)
 8003c4c:	601a      	str	r2, [r3, #0]
  hspi3.Init.Mode = SPI_MODE_MASTER;
 8003c4e:	4b16      	ldr	r3, [pc, #88]	@ (8003ca8 <MX_SPI3_Init+0x64>)
 8003c50:	f44f 7282 	mov.w	r2, #260	@ 0x104
 8003c54:	605a      	str	r2, [r3, #4]
  hspi3.Init.Direction = SPI_DIRECTION_2LINES;
 8003c56:	4b14      	ldr	r3, [pc, #80]	@ (8003ca8 <MX_SPI3_Init+0x64>)
 8003c58:	2200      	movs	r2, #0
 8003c5a:	609a      	str	r2, [r3, #8]
  hspi3.Init.DataSize = SPI_DATASIZE_8BIT;
 8003c5c:	4b12      	ldr	r3, [pc, #72]	@ (8003ca8 <MX_SPI3_Init+0x64>)
 8003c5e:	2200      	movs	r2, #0
 8003c60:	60da      	str	r2, [r3, #12]
  hspi3.Init.CLKPolarity = SPI_POLARITY_LOW;
 8003c62:	4b11      	ldr	r3, [pc, #68]	@ (8003ca8 <MX_SPI3_Init+0x64>)
 8003c64:	2200      	movs	r2, #0
 8003c66:	611a      	str	r2, [r3, #16]
  hspi3.Init.CLKPhase = SPI_PHASE_1EDGE;
 8003c68:	4b0f      	ldr	r3, [pc, #60]	@ (8003ca8 <MX_SPI3_Init+0x64>)
 8003c6a:	2200      	movs	r2, #0
 8003c6c:	615a      	str	r2, [r3, #20]
  hspi3.Init.NSS = SPI_NSS_SOFT;
 8003c6e:	4b0e      	ldr	r3, [pc, #56]	@ (8003ca8 <MX_SPI3_Init+0x64>)
 8003c70:	f44f 7200 	mov.w	r2, #512	@ 0x200
 8003c74:	619a      	str	r2, [r3, #24]
  hspi3.Init.BaudRatePrescaler = SPI_BAUDRATEPRESCALER_32;
 8003c76:	4b0c      	ldr	r3, [pc, #48]	@ (8003ca8 <MX_SPI3_Init+0x64>)
 8003c78:	2220      	movs	r2, #32
 8003c7a:	61da      	str	r2, [r3, #28]
  hspi3.Init.FirstBit = SPI_FIRSTBIT_MSB;
 8003c7c:	4b0a      	ldr	r3, [pc, #40]	@ (8003ca8 <MX_SPI3_Init+0x64>)
 8003c7e:	2200      	movs	r2, #0
 8003c80:	621a      	str	r2, [r3, #32]
  hspi3.Init.TIMode = SPI_TIMODE_DISABLE;
 8003c82:	4b09      	ldr	r3, [pc, #36]	@ (8003ca8 <MX_SPI3_Init+0x64>)
 8003c84:	2200      	movs	r2, #0
 8003c86:	625a      	str	r2, [r3, #36]	@ 0x24
  hspi3.Init.CRCCalculation = SPI_CRCCALCULATION_DISABLE;
 8003c88:	4b07      	ldr	r3, [pc, #28]	@ (8003ca8 <MX_SPI3_Init+0x64>)
 8003c8a:	2200      	movs	r2, #0
 8003c8c:	629a      	str	r2, [r3, #40]	@ 0x28
  hspi3.Init.CRCPolynomial = 10;
 8003c8e:	4b06      	ldr	r3, [pc, #24]	@ (8003ca8 <MX_SPI3_Init+0x64>)
 8003c90:	220a      	movs	r2, #10
 8003c92:	62da      	str	r2, [r3, #44]	@ 0x2c
  if (HAL_SPI_Init(&hspi3) != HAL_OK)
 8003c94:	4804      	ldr	r0, [pc, #16]	@ (8003ca8 <MX_SPI3_Init+0x64>)
 8003c96:	f002 fc97 	bl	80065c8 <HAL_SPI_Init>
 8003c9a:	4603      	mov	r3, r0
 8003c9c:	2b00      	cmp	r3, #0
 8003c9e:	d001      	beq.n	8003ca4 <MX_SPI3_Init+0x60>
  {
    Error_Handler();
 8003ca0:	f000 fa2a 	bl	80040f8 <Error_Handler>
  }
  /* USER CODE BEGIN SPI3_Init 2 */

  /* USER CODE END SPI3_Init 2 */

}
 8003ca4:	bf00      	nop
 8003ca6:	bd80      	pop	{r7, pc}
 8003ca8:	20000c14 	.word	0x20000c14
 8003cac:	40003c00 	.word	0x40003c00

08003cb0 <MX_GPIO_Init>:
  * @brief GPIO Initialization Function
  * @param None
  * @retval None
  */
static void MX_GPIO_Init(void)
{
 8003cb0:	b580      	push	{r7, lr}
 8003cb2:	b08e      	sub	sp, #56	@ 0x38
 8003cb4:	af00      	add	r7, sp, #0
  GPIO_InitTypeDef GPIO_InitStruct = {0};
 8003cb6:	f107 0324 	add.w	r3, r7, #36	@ 0x24
 8003cba:	2200      	movs	r2, #0
 8003cbc:	601a      	str	r2, [r3, #0]
 8003cbe:	605a      	str	r2, [r3, #4]
 8003cc0:	609a      	str	r2, [r3, #8]
 8003cc2:	60da      	str	r2, [r3, #12]
 8003cc4:	611a      	str	r2, [r3, #16]
/* USER CODE BEGIN MX_GPIO_Init_1 */
/* USER CODE END MX_GPIO_Init_1 */

  /* GPIO Ports Clock Enable */
  __HAL_RCC_GPIOE_CLK_ENABLE();
 8003cc6:	2300      	movs	r3, #0
 8003cc8:	623b      	str	r3, [r7, #32]
 8003cca:	4bb4      	ldr	r3, [pc, #720]	@ (8003f9c <MX_GPIO_Init+0x2ec>)
 8003ccc:	6b1b      	ldr	r3, [r3, #48]	@ 0x30
 8003cce:	4ab3      	ldr	r2, [pc, #716]	@ (8003f9c <MX_GPIO_Init+0x2ec>)
 8003cd0:	f043 0310 	orr.w	r3, r3, #16
 8003cd4:	6313      	str	r3, [r2, #48]	@ 0x30
 8003cd6:	4bb1      	ldr	r3, [pc, #708]	@ (8003f9c <MX_GPIO_Init+0x2ec>)
 8003cd8:	6b1b      	ldr	r3, [r3, #48]	@ 0x30
 8003cda:	f003 0310 	and.w	r3, r3, #16
 8003cde:	623b      	str	r3, [r7, #32]
 8003ce0:	6a3b      	ldr	r3, [r7, #32]
  __HAL_RCC_GPIOI_CLK_ENABLE();
 8003ce2:	2300      	movs	r3, #0
 8003ce4:	61fb      	str	r3, [r7, #28]
 8003ce6:	4bad      	ldr	r3, [pc, #692]	@ (8003f9c <MX_GPIO_Init+0x2ec>)
 8003ce8:	6b1b      	ldr	r3, [r3, #48]	@ 0x30
 8003cea:	4aac      	ldr	r2, [pc, #688]	@ (8003f9c <MX_GPIO_Init+0x2ec>)
 8003cec:	f443 7380 	orr.w	r3, r3, #256	@ 0x100
 8003cf0:	6313      	str	r3, [r2, #48]	@ 0x30
 8003cf2:	4baa      	ldr	r3, [pc, #680]	@ (8003f9c <MX_GPIO_Init+0x2ec>)
 8003cf4:	6b1b      	ldr	r3, [r3, #48]	@ 0x30
 8003cf6:	f403 7380 	and.w	r3, r3, #256	@ 0x100
 8003cfa:	61fb      	str	r3, [r7, #28]
 8003cfc:	69fb      	ldr	r3, [r7, #28]
  __HAL_RCC_GPIOC_CLK_ENABLE();
 8003cfe:	2300      	movs	r3, #0
 8003d00:	61bb      	str	r3, [r7, #24]
 8003d02:	4ba6      	ldr	r3, [pc, #664]	@ (8003f9c <MX_GPIO_Init+0x2ec>)
 8003d04:	6b1b      	ldr	r3, [r3, #48]	@ 0x30
 8003d06:	4aa5      	ldr	r2, [pc, #660]	@ (8003f9c <MX_GPIO_Init+0x2ec>)
 8003d08:	f043 0304 	orr.w	r3, r3, #4
 8003d0c:	6313      	str	r3, [r2, #48]	@ 0x30
 8003d0e:	4ba3      	ldr	r3, [pc, #652]	@ (8003f9c <MX_GPIO_Init+0x2ec>)
 8003d10:	6b1b      	ldr	r3, [r3, #48]	@ 0x30
 8003d12:	f003 0304 	and.w	r3, r3, #4
 8003d16:	61bb      	str	r3, [r7, #24]
 8003d18:	69bb      	ldr	r3, [r7, #24]
  __HAL_RCC_GPIOF_CLK_ENABLE();
 8003d1a:	2300      	movs	r3, #0
 8003d1c:	617b      	str	r3, [r7, #20]
 8003d1e:	4b9f      	ldr	r3, [pc, #636]	@ (8003f9c <MX_GPIO_Init+0x2ec>)
 8003d20:	6b1b      	ldr	r3, [r3, #48]	@ 0x30
 8003d22:	4a9e      	ldr	r2, [pc, #632]	@ (8003f9c <MX_GPIO_Init+0x2ec>)
 8003d24:	f043 0320 	orr.w	r3, r3, #32
 8003d28:	6313      	str	r3, [r2, #48]	@ 0x30
 8003d2a:	4b9c      	ldr	r3, [pc, #624]	@ (8003f9c <MX_GPIO_Init+0x2ec>)
 8003d2c:	6b1b      	ldr	r3, [r3, #48]	@ 0x30
 8003d2e:	f003 0320 	and.w	r3, r3, #32
 8003d32:	617b      	str	r3, [r7, #20]
 8003d34:	697b      	ldr	r3, [r7, #20]
  __HAL_RCC_GPIOH_CLK_ENABLE();
 8003d36:	2300      	movs	r3, #0
 8003d38:	613b      	str	r3, [r7, #16]
 8003d3a:	4b98      	ldr	r3, [pc, #608]	@ (8003f9c <MX_GPIO_Init+0x2ec>)
 8003d3c:	6b1b      	ldr	r3, [r3, #48]	@ 0x30
 8003d3e:	4a97      	ldr	r2, [pc, #604]	@ (8003f9c <MX_GPIO_Init+0x2ec>)
 8003d40:	f043 0380 	orr.w	r3, r3, #128	@ 0x80
 8003d44:	6313      	str	r3, [r2, #48]	@ 0x30
 8003d46:	4b95      	ldr	r3, [pc, #596]	@ (8003f9c <MX_GPIO_Init+0x2ec>)
 8003d48:	6b1b      	ldr	r3, [r3, #48]	@ 0x30
 8003d4a:	f003 0380 	and.w	r3, r3, #128	@ 0x80
 8003d4e:	613b      	str	r3, [r7, #16]
 8003d50:	693b      	ldr	r3, [r7, #16]
  __HAL_RCC_GPIOA_CLK_ENABLE();
 8003d52:	2300      	movs	r3, #0
 8003d54:	60fb      	str	r3, [r7, #12]
 8003d56:	4b91      	ldr	r3, [pc, #580]	@ (8003f9c <MX_GPIO_Init+0x2ec>)
 8003d58:	6b1b      	ldr	r3, [r3, #48]	@ 0x30
 8003d5a:	4a90      	ldr	r2, [pc, #576]	@ (8003f9c <MX_GPIO_Init+0x2ec>)
 8003d5c:	f043 0301 	orr.w	r3, r3, #1
 8003d60:	6313      	str	r3, [r2, #48]	@ 0x30
 8003d62:	4b8e      	ldr	r3, [pc, #568]	@ (8003f9c <MX_GPIO_Init+0x2ec>)
 8003d64:	6b1b      	ldr	r3, [r3, #48]	@ 0x30
 8003d66:	f003 0301 	and.w	r3, r3, #1
 8003d6a:	60fb      	str	r3, [r7, #12]
 8003d6c:	68fb      	ldr	r3, [r7, #12]
  __HAL_RCC_GPIOB_CLK_ENABLE();
 8003d6e:	2300      	movs	r3, #0
 8003d70:	60bb      	str	r3, [r7, #8]
 8003d72:	4b8a      	ldr	r3, [pc, #552]	@ (8003f9c <MX_GPIO_Init+0x2ec>)
 8003d74:	6b1b      	ldr	r3, [r3, #48]	@ 0x30
 8003d76:	4a89      	ldr	r2, [pc, #548]	@ (8003f9c <MX_GPIO_Init+0x2ec>)
 8003d78:	f043 0302 	orr.w	r3, r3, #2
 8003d7c:	6313      	str	r3, [r2, #48]	@ 0x30
 8003d7e:	4b87      	ldr	r3, [pc, #540]	@ (8003f9c <MX_GPIO_Init+0x2ec>)
 8003d80:	6b1b      	ldr	r3, [r3, #48]	@ 0x30
 8003d82:	f003 0302 	and.w	r3, r3, #2
 8003d86:	60bb      	str	r3, [r7, #8]
 8003d88:	68bb      	ldr	r3, [r7, #8]
  __HAL_RCC_GPIOG_CLK_ENABLE();
 8003d8a:	2300      	movs	r3, #0
 8003d8c:	607b      	str	r3, [r7, #4]
 8003d8e:	4b83      	ldr	r3, [pc, #524]	@ (8003f9c <MX_GPIO_Init+0x2ec>)
 8003d90:	6b1b      	ldr	r3, [r3, #48]	@ 0x30
 8003d92:	4a82      	ldr	r2, [pc, #520]	@ (8003f9c <MX_GPIO_Init+0x2ec>)
 8003d94:	f043 0340 	orr.w	r3, r3, #64	@ 0x40
 8003d98:	6313      	str	r3, [r2, #48]	@ 0x30
 8003d9a:	4b80      	ldr	r3, [pc, #512]	@ (8003f9c <MX_GPIO_Init+0x2ec>)
 8003d9c:	6b1b      	ldr	r3, [r3, #48]	@ 0x30
 8003d9e:	f003 0340 	and.w	r3, r3, #64	@ 0x40
 8003da2:	607b      	str	r3, [r7, #4]
 8003da4:	687b      	ldr	r3, [r7, #4]
  __HAL_RCC_GPIOD_CLK_ENABLE();
 8003da6:	2300      	movs	r3, #0
 8003da8:	603b      	str	r3, [r7, #0]
 8003daa:	4b7c      	ldr	r3, [pc, #496]	@ (8003f9c <MX_GPIO_Init+0x2ec>)
 8003dac:	6b1b      	ldr	r3, [r3, #48]	@ 0x30
 8003dae:	4a7b      	ldr	r2, [pc, #492]	@ (8003f9c <MX_GPIO_Init+0x2ec>)
 8003db0:	f043 0308 	orr.w	r3, r3, #8
 8003db4:	6313      	str	r3, [r2, #48]	@ 0x30
 8003db6:	4b79      	ldr	r3, [pc, #484]	@ (8003f9c <MX_GPIO_Init+0x2ec>)
 8003db8:	6b1b      	ldr	r3, [r3, #48]	@ 0x30
 8003dba:	f003 0308 	and.w	r3, r3, #8
 8003dbe:	603b      	str	r3, [r7, #0]
 8003dc0:	683b      	ldr	r3, [r7, #0]

  /*Configure GPIO pin Output Level */
  HAL_GPIO_WritePin(GPIOE, CELL12_CS_01_Pin|CELL12_CS_02_Pin|CELL12_CS_03_Pin|CELL12_CS_04_Pin
 8003dc2:	2201      	movs	r2, #1
 8003dc4:	217c      	movs	r1, #124	@ 0x7c
 8003dc6:	4876      	ldr	r0, [pc, #472]	@ (8003fa0 <MX_GPIO_Init+0x2f0>)
 8003dc8:	f000 feb0 	bl	8004b2c <HAL_GPIO_WritePin>
                          |CELL12_CS_05_Pin, GPIO_PIN_SET);

  /*Configure GPIO pin Output Level */
  HAL_GPIO_WritePin(GPIOI, CELL12_CS_06_Pin|CELL12_CS_08_Pin|CELL12_CS_10_Pin|CELL12_CS_09_Pin, GPIO_PIN_SET);
 8003dcc:	2201      	movs	r2, #1
 8003dce:	f44f 6170 	mov.w	r1, #3840	@ 0xf00
 8003dd2:	4874      	ldr	r0, [pc, #464]	@ (8003fa4 <MX_GPIO_Init+0x2f4>)
 8003dd4:	f000 feaa 	bl	8004b2c <HAL_GPIO_WritePin>

  /*Configure GPIO pin Output Level */
  HAL_GPIO_WritePin(CELL12_CS_07_GPIO_Port, CELL12_CS_07_Pin, GPIO_PIN_RESET);
 8003dd8:	2200      	movs	r2, #0
 8003dda:	f44f 5100 	mov.w	r1, #8192	@ 0x2000
 8003dde:	4872      	ldr	r0, [pc, #456]	@ (8003fa8 <MX_GPIO_Init+0x2f8>)
 8003de0:	f000 fea4 	bl	8004b2c <HAL_GPIO_WritePin>

  /*Configure GPIO pin Output Level */
  HAL_GPIO_WritePin(GPIOF, CELL12_CS_11_Pin|CELL12_CS_12_Pin|GPIO_01_Pin|CELL12_TEMP_03_CS_Pin
 8003de4:	2201      	movs	r2, #1
 8003de6:	f240 5147 	movw	r1, #1351	@ 0x547
 8003dea:	4870      	ldr	r0, [pc, #448]	@ (8003fac <MX_GPIO_Init+0x2fc>)
 8003dec:	f000 fe9e 	bl	8004b2c <HAL_GPIO_WritePin>
                          |CELL12_TEMP_03_LED_Pin|CELL12_TEMP_02_CS_Pin, GPIO_PIN_SET);

  /*Configure GPIO pin Output Level */
  HAL_GPIO_WritePin(GPIOC, CELL12_TEMP_02_LED_Pin|CELL12_TEMP_01_CS_Pin, GPIO_PIN_SET);
 8003df0:	2201      	movs	r2, #1
 8003df2:	2103      	movs	r1, #3
 8003df4:	486c      	ldr	r0, [pc, #432]	@ (8003fa8 <MX_GPIO_Init+0x2f8>)
 8003df6:	f000 fe99 	bl	8004b2c <HAL_GPIO_WritePin>

  /*Configure GPIO pin Output Level */
  HAL_GPIO_WritePin(CELL12_TEMP_01_LED_GPIO_Port, CELL12_TEMP_01_LED_Pin, GPIO_PIN_SET);
 8003dfa:	2201      	movs	r2, #1
 8003dfc:	2101      	movs	r1, #1
 8003dfe:	486c      	ldr	r0, [pc, #432]	@ (8003fb0 <MX_GPIO_Init+0x300>)
 8003e00:	f000 fe94 	bl	8004b2c <HAL_GPIO_WritePin>

  /*Configure GPIO pin Output Level */
  HAL_GPIO_WritePin(GPIOA, GPIO_PIN_1, GPIO_PIN_RESET);
 8003e04:	2200      	movs	r2, #0
 8003e06:	2102      	movs	r1, #2
 8003e08:	4869      	ldr	r0, [pc, #420]	@ (8003fb0 <MX_GPIO_Init+0x300>)
 8003e0a:	f000 fe8f 	bl	8004b2c <HAL_GPIO_WritePin>

  /*Configure GPIO pin Output Level */
  HAL_GPIO_WritePin(CELL11_TEMP_03_CS_GPIO_Port, CELL11_TEMP_03_CS_Pin, GPIO_PIN_SET);
 8003e0e:	2201      	movs	r2, #1
 8003e10:	f44f 6100 	mov.w	r1, #2048	@ 0x800
 8003e14:	4867      	ldr	r0, [pc, #412]	@ (8003fb4 <MX_GPIO_Init+0x304>)
 8003e16:	f000 fe89 	bl	8004b2c <HAL_GPIO_WritePin>

  /*Configure GPIO pin Output Level */
  HAL_GPIO_WritePin(GPIOH, CELL11_TEMP_03_LED_Pin|CELL11_TEMP_02_CS_Pin|CELL11_TEMP_02_LED_Pin|CELL11_TEMP_01_CS_Pin
 8003e1a:	2201      	movs	r2, #1
 8003e1c:	f44f 51f2 	mov.w	r1, #7744	@ 0x1e40
 8003e20:	4865      	ldr	r0, [pc, #404]	@ (8003fb8 <MX_GPIO_Init+0x308>)
 8003e22:	f000 fe83 	bl	8004b2c <HAL_GPIO_WritePin>
                          |CELL11_TEMP_01_LED_Pin, GPIO_PIN_SET);

  /*Configure GPIO pin Output Level */
  HAL_GPIO_WritePin(GPIOG, DISPLAY_IO_1_Pin|DISPLAY_IO_2_Pin|BACKLIGHT_1_Pin|BACKLIGHT_2_Pin
 8003e26:	2200      	movs	r2, #0
 8003e28:	f24e 013c 	movw	r1, #57404	@ 0xe03c
 8003e2c:	4863      	ldr	r0, [pc, #396]	@ (8003fbc <MX_GPIO_Init+0x30c>)
 8003e2e:	f000 fe7d 	bl	8004b2c <HAL_GPIO_WritePin>
                          |LED_09_Pin|LED_04_Pin|LED_08_Pin, GPIO_PIN_RESET);

  /*Configure GPIO pin Output Level */
  HAL_GPIO_WritePin(GPIOH, LED_01_Pin|LED_02_Pin, GPIO_PIN_RESET);
 8003e32:	2200      	movs	r2, #0
 8003e34:	f44f 4140 	mov.w	r1, #49152	@ 0xc000
 8003e38:	485f      	ldr	r0, [pc, #380]	@ (8003fb8 <MX_GPIO_Init+0x308>)
 8003e3a:	f000 fe77 	bl	8004b2c <HAL_GPIO_WritePin>

  /*Configure GPIO pin Output Level */
  HAL_GPIO_WritePin(GPIOD, DISPLAY_CS_Pin|DISPLAY_CSD3_Pin, GPIO_PIN_RESET);
 8003e3e:	2200      	movs	r2, #0
 8003e40:	210c      	movs	r1, #12
 8003e42:	485f      	ldr	r0, [pc, #380]	@ (8003fc0 <MX_GPIO_Init+0x310>)
 8003e44:	f000 fe72 	bl	8004b2c <HAL_GPIO_WritePin>

  /*Configure GPIO pin Output Level */
  HAL_GPIO_WritePin(GPIOB, LED_03_Pin|LED_07_Pin, GPIO_PIN_RESET);
 8003e48:	2200      	movs	r2, #0
 8003e4a:	2118      	movs	r1, #24
 8003e4c:	4859      	ldr	r0, [pc, #356]	@ (8003fb4 <MX_GPIO_Init+0x304>)
 8003e4e:	f000 fe6d 	bl	8004b2c <HAL_GPIO_WritePin>

  /*Configure GPIO pin Output Level */
  HAL_GPIO_WritePin(GPIOE, LED_06_Pin|LED_05_Pin, GPIO_PIN_RESET);
 8003e52:	2200      	movs	r2, #0
 8003e54:	2103      	movs	r1, #3
 8003e56:	4852      	ldr	r0, [pc, #328]	@ (8003fa0 <MX_GPIO_Init+0x2f0>)
 8003e58:	f000 fe68 	bl	8004b2c <HAL_GPIO_WritePin>

  /*Configure GPIO pin Output Level */
  HAL_GPIO_WritePin(GPIOI, LED_DC_Y_Pin|LED_DC_G_Pin|LED_PC_Y_Pin|LED_PC_G_Pin, GPIO_PIN_RESET);
 8003e5c:	2200      	movs	r2, #0
 8003e5e:	21f0      	movs	r1, #240	@ 0xf0
 8003e60:	4850      	ldr	r0, [pc, #320]	@ (8003fa4 <MX_GPIO_Init+0x2f4>)
 8003e62:	f000 fe63 	bl	8004b2c <HAL_GPIO_WritePin>

  /*Configure GPIO pins : CELL12_CS_01_Pin CELL12_CS_02_Pin CELL12_CS_03_Pin CELL12_CS_04_Pin
                           CELL12_CS_05_Pin */
  GPIO_InitStruct.Pin = CELL12_CS_01_Pin|CELL12_CS_02_Pin|CELL12_CS_03_Pin|CELL12_CS_04_Pin
 8003e66:	237c      	movs	r3, #124	@ 0x7c
 8003e68:	627b      	str	r3, [r7, #36]	@ 0x24
                          |CELL12_CS_05_Pin;
  GPIO_InitStruct.Mode = GPIO_MODE_OUTPUT_PP;
 8003e6a:	2301      	movs	r3, #1
 8003e6c:	62bb      	str	r3, [r7, #40]	@ 0x28
  GPIO_InitStruct.Pull = GPIO_NOPULL;
 8003e6e:	2300      	movs	r3, #0
 8003e70:	62fb      	str	r3, [r7, #44]	@ 0x2c
  GPIO_InitStruct.Speed = GPIO_SPEED_FREQ_HIGH;
 8003e72:	2302      	movs	r3, #2
 8003e74:	633b      	str	r3, [r7, #48]	@ 0x30
  HAL_GPIO_Init(GPIOE, &GPIO_InitStruct);
 8003e76:	f107 0324 	add.w	r3, r7, #36	@ 0x24
 8003e7a:	4619      	mov	r1, r3
 8003e7c:	4848      	ldr	r0, [pc, #288]	@ (8003fa0 <MX_GPIO_Init+0x2f0>)
 8003e7e:	f000 fca9 	bl	80047d4 <HAL_GPIO_Init>

  /*Configure GPIO pins : CELL12_CS_06_Pin LED_DC_Y_Pin LED_DC_G_Pin LED_PC_Y_Pin
                           LED_PC_G_Pin */
  GPIO_InitStruct.Pin = CELL12_CS_06_Pin|LED_DC_Y_Pin|LED_DC_G_Pin|LED_PC_Y_Pin
 8003e82:	f44f 73f8 	mov.w	r3, #496	@ 0x1f0
 8003e86:	627b      	str	r3, [r7, #36]	@ 0x24
                          |LED_PC_G_Pin;
  GPIO_InitStruct.Mode = GPIO_MODE_OUTPUT_PP;
 8003e88:	2301      	movs	r3, #1
 8003e8a:	62bb      	str	r3, [r7, #40]	@ 0x28
  GPIO_InitStruct.Pull = GPIO_NOPULL;
 8003e8c:	2300      	movs	r3, #0
 8003e8e:	62fb      	str	r3, [r7, #44]	@ 0x2c
  GPIO_InitStruct.Speed = GPIO_SPEED_FREQ_LOW;
 8003e90:	2300      	movs	r3, #0
 8003e92:	633b      	str	r3, [r7, #48]	@ 0x30
  HAL_GPIO_Init(GPIOI, &GPIO_InitStruct);
 8003e94:	f107 0324 	add.w	r3, r7, #36	@ 0x24
 8003e98:	4619      	mov	r1, r3
 8003e9a:	4842      	ldr	r0, [pc, #264]	@ (8003fa4 <MX_GPIO_Init+0x2f4>)
 8003e9c:	f000 fc9a 	bl	80047d4 <HAL_GPIO_Init>

  /*Configure GPIO pin : CELL12_CS_07_Pin */
  GPIO_InitStruct.Pin = CELL12_CS_07_Pin;
 8003ea0:	f44f 5300 	mov.w	r3, #8192	@ 0x2000
 8003ea4:	627b      	str	r3, [r7, #36]	@ 0x24
  GPIO_InitStruct.Mode = GPIO_MODE_OUTPUT_PP;
 8003ea6:	2301      	movs	r3, #1
 8003ea8:	62bb      	str	r3, [r7, #40]	@ 0x28
  GPIO_InitStruct.Pull = GPIO_NOPULL;
 8003eaa:	2300      	movs	r3, #0
 8003eac:	62fb      	str	r3, [r7, #44]	@ 0x2c
  GPIO_InitStruct.Speed = GPIO_SPEED_FREQ_LOW;
 8003eae:	2300      	movs	r3, #0
 8003eb0:	633b      	str	r3, [r7, #48]	@ 0x30
  HAL_GPIO_Init(CELL12_CS_07_GPIO_Port, &GPIO_InitStruct);
 8003eb2:	f107 0324 	add.w	r3, r7, #36	@ 0x24
 8003eb6:	4619      	mov	r1, r3
 8003eb8:	483b      	ldr	r0, [pc, #236]	@ (8003fa8 <MX_GPIO_Init+0x2f8>)
 8003eba:	f000 fc8b 	bl	80047d4 <HAL_GPIO_Init>

  /*Configure GPIO pins : CELL12_CS_08_Pin CELL12_CS_10_Pin CELL12_CS_09_Pin */
  GPIO_InitStruct.Pin = CELL12_CS_08_Pin|CELL12_CS_10_Pin|CELL12_CS_09_Pin;
 8003ebe:	f44f 6360 	mov.w	r3, #3584	@ 0xe00
 8003ec2:	627b      	str	r3, [r7, #36]	@ 0x24
  GPIO_InitStruct.Mode = GPIO_MODE_OUTPUT_PP;
 8003ec4:	2301      	movs	r3, #1
 8003ec6:	62bb      	str	r3, [r7, #40]	@ 0x28
  GPIO_InitStruct.Pull = GPIO_NOPULL;
 8003ec8:	2300      	movs	r3, #0
 8003eca:	62fb      	str	r3, [r7, #44]	@ 0x2c
  GPIO_InitStruct.Speed = GPIO_SPEED_FREQ_HIGH;
 8003ecc:	2302      	movs	r3, #2
 8003ece:	633b      	str	r3, [r7, #48]	@ 0x30
  HAL_GPIO_Init(GPIOI, &GPIO_InitStruct);
 8003ed0:	f107 0324 	add.w	r3, r7, #36	@ 0x24
 8003ed4:	4619      	mov	r1, r3
 8003ed6:	4833      	ldr	r0, [pc, #204]	@ (8003fa4 <MX_GPIO_Init+0x2f4>)
 8003ed8:	f000 fc7c 	bl	80047d4 <HAL_GPIO_Init>

  /*Configure GPIO pin : CELL12_CS_11_Pin */
  GPIO_InitStruct.Pin = CELL12_CS_11_Pin;
 8003edc:	2301      	movs	r3, #1
 8003ede:	627b      	str	r3, [r7, #36]	@ 0x24
  GPIO_InitStruct.Mode = GPIO_MODE_OUTPUT_PP;
 8003ee0:	2301      	movs	r3, #1
 8003ee2:	62bb      	str	r3, [r7, #40]	@ 0x28
  GPIO_InitStruct.Pull = GPIO_NOPULL;
 8003ee4:	2300      	movs	r3, #0
 8003ee6:	62fb      	str	r3, [r7, #44]	@ 0x2c
  GPIO_InitStruct.Speed = GPIO_SPEED_FREQ_LOW;
 8003ee8:	2300      	movs	r3, #0
 8003eea:	633b      	str	r3, [r7, #48]	@ 0x30
  HAL_GPIO_Init(CELL12_CS_11_GPIO_Port, &GPIO_InitStruct);
 8003eec:	f107 0324 	add.w	r3, r7, #36	@ 0x24
 8003ef0:	4619      	mov	r1, r3
 8003ef2:	482e      	ldr	r0, [pc, #184]	@ (8003fac <MX_GPIO_Init+0x2fc>)
 8003ef4:	f000 fc6e 	bl	80047d4 <HAL_GPIO_Init>

  /*Configure GPIO pins : CELL12_CS_12_Pin GPIO_01_Pin */
  GPIO_InitStruct.Pin = CELL12_CS_12_Pin|GPIO_01_Pin;
 8003ef8:	2306      	movs	r3, #6
 8003efa:	627b      	str	r3, [r7, #36]	@ 0x24
  GPIO_InitStruct.Mode = GPIO_MODE_OUTPUT_PP;
 8003efc:	2301      	movs	r3, #1
 8003efe:	62bb      	str	r3, [r7, #40]	@ 0x28
  GPIO_InitStruct.Pull = GPIO_NOPULL;
 8003f00:	2300      	movs	r3, #0
 8003f02:	62fb      	str	r3, [r7, #44]	@ 0x2c
  GPIO_InitStruct.Speed = GPIO_SPEED_FREQ_HIGH;
 8003f04:	2302      	movs	r3, #2
 8003f06:	633b      	str	r3, [r7, #48]	@ 0x30
  HAL_GPIO_Init(GPIOF, &GPIO_InitStruct);
 8003f08:	f107 0324 	add.w	r3, r7, #36	@ 0x24
 8003f0c:	4619      	mov	r1, r3
 8003f0e:	4827      	ldr	r0, [pc, #156]	@ (8003fac <MX_GPIO_Init+0x2fc>)
 8003f10:	f000 fc60 	bl	80047d4 <HAL_GPIO_Init>

  /*Configure GPIO pins : CELL12_TEMP_03_CS_Pin CELL12_TEMP_02_CS_Pin */
  GPIO_InitStruct.Pin = CELL12_TEMP_03_CS_Pin|CELL12_TEMP_02_CS_Pin;
 8003f14:	f44f 6388 	mov.w	r3, #1088	@ 0x440
 8003f18:	627b      	str	r3, [r7, #36]	@ 0x24
  GPIO_InitStruct.Mode = GPIO_MODE_OUTPUT_PP;
 8003f1a:	2301      	movs	r3, #1
 8003f1c:	62bb      	str	r3, [r7, #40]	@ 0x28
  GPIO_InitStruct.Pull = GPIO_PULLUP;
 8003f1e:	2301      	movs	r3, #1
 8003f20:	62fb      	str	r3, [r7, #44]	@ 0x2c
  GPIO_InitStruct.Speed = GPIO_SPEED_FREQ_VERY_HIGH;
 8003f22:	2303      	movs	r3, #3
 8003f24:	633b      	str	r3, [r7, #48]	@ 0x30
  HAL_GPIO_Init(GPIOF, &GPIO_InitStruct);
 8003f26:	f107 0324 	add.w	r3, r7, #36	@ 0x24
 8003f2a:	4619      	mov	r1, r3
 8003f2c:	481f      	ldr	r0, [pc, #124]	@ (8003fac <MX_GPIO_Init+0x2fc>)
 8003f2e:	f000 fc51 	bl	80047d4 <HAL_GPIO_Init>

  /*Configure GPIO pin : CELL12_TEMP_03_LED_Pin */
  GPIO_InitStruct.Pin = CELL12_TEMP_03_LED_Pin;
 8003f32:	f44f 7380 	mov.w	r3, #256	@ 0x100
 8003f36:	627b      	str	r3, [r7, #36]	@ 0x24
  GPIO_InitStruct.Mode = GPIO_MODE_OUTPUT_PP;
 8003f38:	2301      	movs	r3, #1
 8003f3a:	62bb      	str	r3, [r7, #40]	@ 0x28
  GPIO_InitStruct.Pull = GPIO_PULLDOWN;
 8003f3c:	2302      	movs	r3, #2
 8003f3e:	62fb      	str	r3, [r7, #44]	@ 0x2c
  GPIO_InitStruct.Speed = GPIO_SPEED_FREQ_VERY_HIGH;
 8003f40:	2303      	movs	r3, #3
 8003f42:	633b      	str	r3, [r7, #48]	@ 0x30
  HAL_GPIO_Init(CELL12_TEMP_03_LED_GPIO_Port, &GPIO_InitStruct);
 8003f44:	f107 0324 	add.w	r3, r7, #36	@ 0x24
 8003f48:	4619      	mov	r1, r3
 8003f4a:	4818      	ldr	r0, [pc, #96]	@ (8003fac <MX_GPIO_Init+0x2fc>)
 8003f4c:	f000 fc42 	bl	80047d4 <HAL_GPIO_Init>

  /*Configure GPIO pin : CELL12_TEMP_02_LED_Pin */
  GPIO_InitStruct.Pin = CELL12_TEMP_02_LED_Pin;
 8003f50:	2301      	movs	r3, #1
 8003f52:	627b      	str	r3, [r7, #36]	@ 0x24
  GPIO_InitStruct.Mode = GPIO_MODE_OUTPUT_PP;
 8003f54:	2301      	movs	r3, #1
 8003f56:	62bb      	str	r3, [r7, #40]	@ 0x28
  GPIO_InitStruct.Pull = GPIO_PULLDOWN;
 8003f58:	2302      	movs	r3, #2
 8003f5a:	62fb      	str	r3, [r7, #44]	@ 0x2c
  GPIO_InitStruct.Speed = GPIO_SPEED_FREQ_VERY_HIGH;
 8003f5c:	2303      	movs	r3, #3
 8003f5e:	633b      	str	r3, [r7, #48]	@ 0x30
  HAL_GPIO_Init(CELL12_TEMP_02_LED_GPIO_Port, &GPIO_InitStruct);
 8003f60:	f107 0324 	add.w	r3, r7, #36	@ 0x24
 8003f64:	4619      	mov	r1, r3
 8003f66:	4810      	ldr	r0, [pc, #64]	@ (8003fa8 <MX_GPIO_Init+0x2f8>)
 8003f68:	f000 fc34 	bl	80047d4 <HAL_GPIO_Init>

  /*Configure GPIO pin : CELL12_TEMP_01_CS_Pin */
  GPIO_InitStruct.Pin = CELL12_TEMP_01_CS_Pin;
 8003f6c:	2302      	movs	r3, #2
 8003f6e:	627b      	str	r3, [r7, #36]	@ 0x24
  GPIO_InitStruct.Mode = GPIO_MODE_OUTPUT_PP;
 8003f70:	2301      	movs	r3, #1
 8003f72:	62bb      	str	r3, [r7, #40]	@ 0x28
  GPIO_InitStruct.Pull = GPIO_PULLUP;
 8003f74:	2301      	movs	r3, #1
 8003f76:	62fb      	str	r3, [r7, #44]	@ 0x2c
  GPIO_InitStruct.Speed = GPIO_SPEED_FREQ_VERY_HIGH;
 8003f78:	2303      	movs	r3, #3
 8003f7a:	633b      	str	r3, [r7, #48]	@ 0x30
  HAL_GPIO_Init(CELL12_TEMP_01_CS_GPIO_Port, &GPIO_InitStruct);
 8003f7c:	f107 0324 	add.w	r3, r7, #36	@ 0x24
 8003f80:	4619      	mov	r1, r3
 8003f82:	4809      	ldr	r0, [pc, #36]	@ (8003fa8 <MX_GPIO_Init+0x2f8>)
 8003f84:	f000 fc26 	bl	80047d4 <HAL_GPIO_Init>

  /*Configure GPIO pin : CELL12_TEMP_01_LED_Pin */
  GPIO_InitStruct.Pin = CELL12_TEMP_01_LED_Pin;
 8003f88:	2301      	movs	r3, #1
 8003f8a:	627b      	str	r3, [r7, #36]	@ 0x24
  GPIO_InitStruct.Mode = GPIO_MODE_OUTPUT_PP;
 8003f8c:	2301      	movs	r3, #1
 8003f8e:	62bb      	str	r3, [r7, #40]	@ 0x28
  GPIO_InitStruct.Pull = GPIO_PULLDOWN;
 8003f90:	2302      	movs	r3, #2
 8003f92:	62fb      	str	r3, [r7, #44]	@ 0x2c
  GPIO_InitStruct.Speed = GPIO_SPEED_FREQ_VERY_HIGH;
 8003f94:	2303      	movs	r3, #3
 8003f96:	633b      	str	r3, [r7, #48]	@ 0x30
 8003f98:	e014      	b.n	8003fc4 <MX_GPIO_Init+0x314>
 8003f9a:	bf00      	nop
 8003f9c:	40023800 	.word	0x40023800
 8003fa0:	40021000 	.word	0x40021000
 8003fa4:	40022000 	.word	0x40022000
 8003fa8:	40020800 	.word	0x40020800
 8003fac:	40021400 	.word	0x40021400
 8003fb0:	40020000 	.word	0x40020000
 8003fb4:	40020400 	.word	0x40020400
 8003fb8:	40021c00 	.word	0x40021c00
 8003fbc:	40021800 	.word	0x40021800
 8003fc0:	40020c00 	.word	0x40020c00
  HAL_GPIO_Init(CELL12_TEMP_01_LED_GPIO_Port, &GPIO_InitStruct);
 8003fc4:	f107 0324 	add.w	r3, r7, #36	@ 0x24
 8003fc8:	4619      	mov	r1, r3
 8003fca:	4845      	ldr	r0, [pc, #276]	@ (80040e0 <MX_GPIO_Init+0x430>)
 8003fcc:	f000 fc02 	bl	80047d4 <HAL_GPIO_Init>

  /*Configure GPIO pin : PA1 */
  GPIO_InitStruct.Pin = GPIO_PIN_1;
 8003fd0:	2302      	movs	r3, #2
 8003fd2:	627b      	str	r3, [r7, #36]	@ 0x24
  GPIO_InitStruct.Mode = GPIO_MODE_OUTPUT_PP;
 8003fd4:	2301      	movs	r3, #1
 8003fd6:	62bb      	str	r3, [r7, #40]	@ 0x28
  GPIO_InitStruct.Pull = GPIO_NOPULL;
 8003fd8:	2300      	movs	r3, #0
 8003fda:	62fb      	str	r3, [r7, #44]	@ 0x2c
  GPIO_InitStruct.Speed = GPIO_SPEED_FREQ_HIGH;
 8003fdc:	2302      	movs	r3, #2
 8003fde:	633b      	str	r3, [r7, #48]	@ 0x30
  HAL_GPIO_Init(GPIOA, &GPIO_InitStruct);
 8003fe0:	f107 0324 	add.w	r3, r7, #36	@ 0x24
 8003fe4:	4619      	mov	r1, r3
 8003fe6:	483e      	ldr	r0, [pc, #248]	@ (80040e0 <MX_GPIO_Init+0x430>)
 8003fe8:	f000 fbf4 	bl	80047d4 <HAL_GPIO_Init>

  /*Configure GPIO pin : CELL11_TEMP_03_CS_Pin */
  GPIO_InitStruct.Pin = CELL11_TEMP_03_CS_Pin;
 8003fec:	f44f 6300 	mov.w	r3, #2048	@ 0x800
 8003ff0:	627b      	str	r3, [r7, #36]	@ 0x24
  GPIO_InitStruct.Mode = GPIO_MODE_OUTPUT_PP;
 8003ff2:	2301      	movs	r3, #1
 8003ff4:	62bb      	str	r3, [r7, #40]	@ 0x28
  GPIO_InitStruct.Pull = GPIO_PULLUP;
 8003ff6:	2301      	movs	r3, #1
 8003ff8:	62fb      	str	r3, [r7, #44]	@ 0x2c
  GPIO_InitStruct.Speed = GPIO_SPEED_FREQ_VERY_HIGH;
 8003ffa:	2303      	movs	r3, #3
 8003ffc:	633b      	str	r3, [r7, #48]	@ 0x30
  HAL_GPIO_Init(CELL11_TEMP_03_CS_GPIO_Port, &GPIO_InitStruct);
 8003ffe:	f107 0324 	add.w	r3, r7, #36	@ 0x24
 8004002:	4619      	mov	r1, r3
 8004004:	4837      	ldr	r0, [pc, #220]	@ (80040e4 <MX_GPIO_Init+0x434>)
 8004006:	f000 fbe5 	bl	80047d4 <HAL_GPIO_Init>

  /*Configure GPIO pins : CELL11_TEMP_03_LED_Pin CELL11_TEMP_02_LED_Pin CELL11_TEMP_01_LED_Pin */
  GPIO_InitStruct.Pin = CELL11_TEMP_03_LED_Pin|CELL11_TEMP_02_LED_Pin|CELL11_TEMP_01_LED_Pin;
 800400a:	f44f 53a2 	mov.w	r3, #5184	@ 0x1440
 800400e:	627b      	str	r3, [r7, #36]	@ 0x24
  GPIO_InitStruct.Mode = GPIO_MODE_OUTPUT_PP;
 8004010:	2301      	movs	r3, #1
 8004012:	62bb      	str	r3, [r7, #40]	@ 0x28
  GPIO_InitStruct.Pull = GPIO_PULLDOWN;
 8004014:	2302      	movs	r3, #2
 8004016:	62fb      	str	r3, [r7, #44]	@ 0x2c
  GPIO_InitStruct.Speed = GPIO_SPEED_FREQ_VERY_HIGH;
 8004018:	2303      	movs	r3, #3
 800401a:	633b      	str	r3, [r7, #48]	@ 0x30
  HAL_GPIO_Init(GPIOH, &GPIO_InitStruct);
 800401c:	f107 0324 	add.w	r3, r7, #36	@ 0x24
 8004020:	4619      	mov	r1, r3
 8004022:	4831      	ldr	r0, [pc, #196]	@ (80040e8 <MX_GPIO_Init+0x438>)
 8004024:	f000 fbd6 	bl	80047d4 <HAL_GPIO_Init>

  /*Configure GPIO pins : CELL11_TEMP_02_CS_Pin CELL11_TEMP_01_CS_Pin */
  GPIO_InitStruct.Pin = CELL11_TEMP_02_CS_Pin|CELL11_TEMP_01_CS_Pin;
 8004028:	f44f 6320 	mov.w	r3, #2560	@ 0xa00
 800402c:	627b      	str	r3, [r7, #36]	@ 0x24
  GPIO_InitStruct.Mode = GPIO_MODE_OUTPUT_PP;
 800402e:	2301      	movs	r3, #1
 8004030:	62bb      	str	r3, [r7, #40]	@ 0x28
  GPIO_InitStruct.Pull = GPIO_PULLUP;
 8004032:	2301      	movs	r3, #1
 8004034:	62fb      	str	r3, [r7, #44]	@ 0x2c
  GPIO_InitStruct.Speed = GPIO_SPEED_FREQ_VERY_HIGH;
 8004036:	2303      	movs	r3, #3
 8004038:	633b      	str	r3, [r7, #48]	@ 0x30
  HAL_GPIO_Init(GPIOH, &GPIO_InitStruct);
 800403a:	f107 0324 	add.w	r3, r7, #36	@ 0x24
 800403e:	4619      	mov	r1, r3
 8004040:	4829      	ldr	r0, [pc, #164]	@ (80040e8 <MX_GPIO_Init+0x438>)
 8004042:	f000 fbc7 	bl	80047d4 <HAL_GPIO_Init>

  /*Configure GPIO pins : DISPLAY_IO_1_Pin DISPLAY_IO_2_Pin BACKLIGHT_1_Pin BACKLIGHT_2_Pin
                           LED_09_Pin LED_04_Pin LED_08_Pin */
  GPIO_InitStruct.Pin = DISPLAY_IO_1_Pin|DISPLAY_IO_2_Pin|BACKLIGHT_1_Pin|BACKLIGHT_2_Pin
 8004046:	f24e 033c 	movw	r3, #57404	@ 0xe03c
 800404a:	627b      	str	r3, [r7, #36]	@ 0x24
                          |LED_09_Pin|LED_04_Pin|LED_08_Pin;
  GPIO_InitStruct.Mode = GPIO_MODE_OUTPUT_PP;
 800404c:	2301      	movs	r3, #1
 800404e:	62bb      	str	r3, [r7, #40]	@ 0x28
  GPIO_InitStruct.Pull = GPIO_NOPULL;
 8004050:	2300      	movs	r3, #0
 8004052:	62fb      	str	r3, [r7, #44]	@ 0x2c
  GPIO_InitStruct.Speed = GPIO_SPEED_FREQ_LOW;
 8004054:	2300      	movs	r3, #0
 8004056:	633b      	str	r3, [r7, #48]	@ 0x30
  HAL_GPIO_Init(GPIOG, &GPIO_InitStruct);
 8004058:	f107 0324 	add.w	r3, r7, #36	@ 0x24
 800405c:	4619      	mov	r1, r3
 800405e:	4823      	ldr	r0, [pc, #140]	@ (80040ec <MX_GPIO_Init+0x43c>)
 8004060:	f000 fbb8 	bl	80047d4 <HAL_GPIO_Init>

  /*Configure GPIO pins : LED_01_Pin LED_02_Pin */
  GPIO_InitStruct.Pin = LED_01_Pin|LED_02_Pin;
 8004064:	f44f 4340 	mov.w	r3, #49152	@ 0xc000
 8004068:	627b      	str	r3, [r7, #36]	@ 0x24
  GPIO_InitStruct.Mode = GPIO_MODE_OUTPUT_PP;
 800406a:	2301      	movs	r3, #1
 800406c:	62bb      	str	r3, [r7, #40]	@ 0x28
  GPIO_InitStruct.Pull = GPIO_NOPULL;
 800406e:	2300      	movs	r3, #0
 8004070:	62fb      	str	r3, [r7, #44]	@ 0x2c
  GPIO_InitStruct.Speed = GPIO_SPEED_FREQ_LOW;
 8004072:	2300      	movs	r3, #0
 8004074:	633b      	str	r3, [r7, #48]	@ 0x30
  HAL_GPIO_Init(GPIOH, &GPIO_InitStruct);
 8004076:	f107 0324 	add.w	r3, r7, #36	@ 0x24
 800407a:	4619      	mov	r1, r3
 800407c:	481a      	ldr	r0, [pc, #104]	@ (80040e8 <MX_GPIO_Init+0x438>)
 800407e:	f000 fba9 	bl	80047d4 <HAL_GPIO_Init>

  /*Configure GPIO pins : DISPLAY_CS_Pin DISPLAY_CSD3_Pin */
  GPIO_InitStruct.Pin = DISPLAY_CS_Pin|DISPLAY_CSD3_Pin;
 8004082:	230c      	movs	r3, #12
 8004084:	627b      	str	r3, [r7, #36]	@ 0x24
  GPIO_InitStruct.Mode = GPIO_MODE_OUTPUT_PP;
 8004086:	2301      	movs	r3, #1
 8004088:	62bb      	str	r3, [r7, #40]	@ 0x28
  GPIO_InitStruct.Pull = GPIO_NOPULL;
 800408a:	2300      	movs	r3, #0
 800408c:	62fb      	str	r3, [r7, #44]	@ 0x2c
  GPIO_InitStruct.Speed = GPIO_SPEED_FREQ_LOW;
 800408e:	2300      	movs	r3, #0
 8004090:	633b      	str	r3, [r7, #48]	@ 0x30
  HAL_GPIO_Init(GPIOD, &GPIO_InitStruct);
 8004092:	f107 0324 	add.w	r3, r7, #36	@ 0x24
 8004096:	4619      	mov	r1, r3
 8004098:	4815      	ldr	r0, [pc, #84]	@ (80040f0 <MX_GPIO_Init+0x440>)
 800409a:	f000 fb9b 	bl	80047d4 <HAL_GPIO_Init>

  /*Configure GPIO pins : LED_03_Pin LED_07_Pin */
  GPIO_InitStruct.Pin = LED_03_Pin|LED_07_Pin;
 800409e:	2318      	movs	r3, #24
 80040a0:	627b      	str	r3, [r7, #36]	@ 0x24
  GPIO_InitStruct.Mode = GPIO_MODE_OUTPUT_PP;
 80040a2:	2301      	movs	r3, #1
 80040a4:	62bb      	str	r3, [r7, #40]	@ 0x28
  GPIO_InitStruct.Pull = GPIO_NOPULL;
 80040a6:	2300      	movs	r3, #0
 80040a8:	62fb      	str	r3, [r7, #44]	@ 0x2c
  GPIO_InitStruct.Speed = GPIO_SPEED_FREQ_LOW;
 80040aa:	2300      	movs	r3, #0
 80040ac:	633b      	str	r3, [r7, #48]	@ 0x30
  HAL_GPIO_Init(GPIOB, &GPIO_InitStruct);
 80040ae:	f107 0324 	add.w	r3, r7, #36	@ 0x24
 80040b2:	4619      	mov	r1, r3
 80040b4:	480b      	ldr	r0, [pc, #44]	@ (80040e4 <MX_GPIO_Init+0x434>)
 80040b6:	f000 fb8d 	bl	80047d4 <HAL_GPIO_Init>

  /*Configure GPIO pins : LED_06_Pin LED_05_Pin */
  GPIO_InitStruct.Pin = LED_06_Pin|LED_05_Pin;
 80040ba:	2303      	movs	r3, #3
 80040bc:	627b      	str	r3, [r7, #36]	@ 0x24
  GPIO_InitStruct.Mode = GPIO_MODE_OUTPUT_PP;
 80040be:	2301      	movs	r3, #1
 80040c0:	62bb      	str	r3, [r7, #40]	@ 0x28
  GPIO_InitStruct.Pull = GPIO_NOPULL;
 80040c2:	2300      	movs	r3, #0
 80040c4:	62fb      	str	r3, [r7, #44]	@ 0x2c
  GPIO_InitStruct.Speed = GPIO_SPEED_FREQ_LOW;
 80040c6:	2300      	movs	r3, #0
 80040c8:	633b      	str	r3, [r7, #48]	@ 0x30
  HAL_GPIO_Init(GPIOE, &GPIO_InitStruct);
 80040ca:	f107 0324 	add.w	r3, r7, #36	@ 0x24
 80040ce:	4619      	mov	r1, r3
 80040d0:	4808      	ldr	r0, [pc, #32]	@ (80040f4 <MX_GPIO_Init+0x444>)
 80040d2:	f000 fb7f 	bl	80047d4 <HAL_GPIO_Init>

/* USER CODE BEGIN MX_GPIO_Init_2 */
/* USER CODE END MX_GPIO_Init_2 */
}
 80040d6:	bf00      	nop
 80040d8:	3738      	adds	r7, #56	@ 0x38
 80040da:	46bd      	mov	sp, r7
 80040dc:	bd80      	pop	{r7, pc}
 80040de:	bf00      	nop
 80040e0:	40020000 	.word	0x40020000
 80040e4:	40020400 	.word	0x40020400
 80040e8:	40021c00 	.word	0x40021c00
 80040ec:	40021800 	.word	0x40021800
 80040f0:	40020c00 	.word	0x40020c00
 80040f4:	40021000 	.word	0x40021000

080040f8 <Error_Handler>:
/**
  * @brief  This function is executed in case of error occurrence.
  * @retval None
  */
void Error_Handler(void)
{
 80040f8:	b480      	push	{r7}
 80040fa:	af00      	add	r7, sp, #0
  \details Disables IRQ interrupts by setting special-purpose register PRIMASK.
           Can only be executed in Privileged modes.
 */
__STATIC_FORCEINLINE void __disable_irq(void)
{
  __ASM volatile ("cpsid i" : : : "memory");
 80040fc:	b672      	cpsid	i
}
 80040fe:	bf00      	nop
  /* USER CODE BEGIN Error_Handler_Debug */
  /* User can add his own implementation to report the HAL error return state */
  __disable_irq();
  while (1)
 8004100:	bf00      	nop
 8004102:	e7fd      	b.n	8004100 <Error_Handler+0x8>

08004104 <mcu_spiInit>:
extern SPI_HandleTypeDef hspi2;


/********* MCU SPECIFIC SPI CODE STARTS HERE **********/
void mcu_spiInit(uint8_t busId)
{
 8004104:	b480      	push	{r7}
 8004106:	b083      	sub	sp, #12
 8004108:	af00      	add	r7, sp, #0
 800410a:	4603      	mov	r3, r0
 800410c:	71fb      	strb	r3, [r7, #7]
    /* Add MCU specific init necessary for I2C to be used */
}
 800410e:	bf00      	nop
 8004110:	370c      	adds	r7, #12
 8004112:	46bd      	mov	sp, r7
 8004114:	f85d 7b04 	ldr.w	r7, [sp], #4
 8004118:	4770      	bx	lr
	...

0800411c <mcu_spiTransfer>:

uint8_t mcu_spiTransfer(uint8_t busId, uint8_t csGPIOId, uint8_t count, uint8_t* txBuf, uint8_t* rxBuf)
{
 800411c:	b580      	push	{r7, lr}
 800411e:	b084      	sub	sp, #16
 8004120:	af02      	add	r7, sp, #8
 8004122:	603b      	str	r3, [r7, #0]
 8004124:	4603      	mov	r3, r0
 8004126:	71fb      	strb	r3, [r7, #7]
 8004128:	460b      	mov	r3, r1
 800412a:	71bb      	strb	r3, [r7, #6]
 800412c:	4613      	mov	r3, r2
 800412e:	717b      	strb	r3, [r7, #5]
    /*
     *  Add MCU specific SPI read/write code here.
     */

	HAL_SPI_TransmitReceive(&hspi1, txBuf, rxBuf, count, HAL_MAX_DELAY);
 8004130:	797b      	ldrb	r3, [r7, #5]
 8004132:	b29b      	uxth	r3, r3
 8004134:	f04f 32ff 	mov.w	r2, #4294967295
 8004138:	9200      	str	r2, [sp, #0]
 800413a:	693a      	ldr	r2, [r7, #16]
 800413c:	6839      	ldr	r1, [r7, #0]
 800413e:	4804      	ldr	r0, [pc, #16]	@ (8004150 <mcu_spiTransfer+0x34>)
 8004140:	f002 fc0f 	bl	8006962 <HAL_SPI_TransmitReceive>
//	    return 0; // Success
    /*
     *  Add MCU specific return code for error handling
     */

    return (0);
 8004144:	2300      	movs	r3, #0
}
 8004146:	4618      	mov	r0, r3
 8004148:	3708      	adds	r7, #8
 800414a:	46bd      	mov	sp, r7
 800414c:	bd80      	pop	{r7, pc}
 800414e:	bf00      	nop
 8004150:	20000b64 	.word	0x20000b64

08004154 <HAL_MspInit>:
/* USER CODE END 0 */
/**
  * Initializes the Global MSP.
  */
void HAL_MspInit(void)
{
 8004154:	b480      	push	{r7}
 8004156:	b083      	sub	sp, #12
 8004158:	af00      	add	r7, sp, #0

  /* USER CODE BEGIN MspInit 0 */

  /* USER CODE END MspInit 0 */

  __HAL_RCC_SYSCFG_CLK_ENABLE();
 800415a:	2300      	movs	r3, #0
 800415c:	607b      	str	r3, [r7, #4]
 800415e:	4b10      	ldr	r3, [pc, #64]	@ (80041a0 <HAL_MspInit+0x4c>)
 8004160:	6c5b      	ldr	r3, [r3, #68]	@ 0x44
 8004162:	4a0f      	ldr	r2, [pc, #60]	@ (80041a0 <HAL_MspInit+0x4c>)
 8004164:	f443 4380 	orr.w	r3, r3, #16384	@ 0x4000
 8004168:	6453      	str	r3, [r2, #68]	@ 0x44
 800416a:	4b0d      	ldr	r3, [pc, #52]	@ (80041a0 <HAL_MspInit+0x4c>)
 800416c:	6c5b      	ldr	r3, [r3, #68]	@ 0x44
 800416e:	f403 4380 	and.w	r3, r3, #16384	@ 0x4000
 8004172:	607b      	str	r3, [r7, #4]
 8004174:	687b      	ldr	r3, [r7, #4]
  __HAL_RCC_PWR_CLK_ENABLE();
 8004176:	2300      	movs	r3, #0
 8004178:	603b      	str	r3, [r7, #0]
 800417a:	4b09      	ldr	r3, [pc, #36]	@ (80041a0 <HAL_MspInit+0x4c>)
 800417c:	6c1b      	ldr	r3, [r3, #64]	@ 0x40
 800417e:	4a08      	ldr	r2, [pc, #32]	@ (80041a0 <HAL_MspInit+0x4c>)
 8004180:	f043 5380 	orr.w	r3, r3, #268435456	@ 0x10000000
 8004184:	6413      	str	r3, [r2, #64]	@ 0x40
 8004186:	4b06      	ldr	r3, [pc, #24]	@ (80041a0 <HAL_MspInit+0x4c>)
 8004188:	6c1b      	ldr	r3, [r3, #64]	@ 0x40
 800418a:	f003 5380 	and.w	r3, r3, #268435456	@ 0x10000000
 800418e:	603b      	str	r3, [r7, #0]
 8004190:	683b      	ldr	r3, [r7, #0]
  /* System interrupt init*/

  /* USER CODE BEGIN MspInit 1 */

  /* USER CODE END MspInit 1 */
}
 8004192:	bf00      	nop
 8004194:	370c      	adds	r7, #12
 8004196:	46bd      	mov	sp, r7
 8004198:	f85d 7b04 	ldr.w	r7, [sp], #4
 800419c:	4770      	bx	lr
 800419e:	bf00      	nop
 80041a0:	40023800 	.word	0x40023800

080041a4 <HAL_I2C_MspInit>:
* This function configures the hardware resources used in this example
* @param hi2c: I2C handle pointer
* @retval None
*/
void HAL_I2C_MspInit(I2C_HandleTypeDef* hi2c)
{
 80041a4:	b580      	push	{r7, lr}
 80041a6:	b08c      	sub	sp, #48	@ 0x30
 80041a8:	af00      	add	r7, sp, #0
 80041aa:	6078      	str	r0, [r7, #4]
  GPIO_InitTypeDef GPIO_InitStruct = {0};
 80041ac:	f107 031c 	add.w	r3, r7, #28
 80041b0:	2200      	movs	r2, #0
 80041b2:	601a      	str	r2, [r3, #0]
 80041b4:	605a      	str	r2, [r3, #4]
 80041b6:	609a      	str	r2, [r3, #8]
 80041b8:	60da      	str	r2, [r3, #12]
 80041ba:	611a      	str	r2, [r3, #16]
  if(hi2c->Instance==I2C2)
 80041bc:	687b      	ldr	r3, [r7, #4]
 80041be:	681b      	ldr	r3, [r3, #0]
 80041c0:	4a32      	ldr	r2, [pc, #200]	@ (800428c <HAL_I2C_MspInit+0xe8>)
 80041c2:	4293      	cmp	r3, r2
 80041c4:	d12c      	bne.n	8004220 <HAL_I2C_MspInit+0x7c>
  {
  /* USER CODE BEGIN I2C2_MspInit 0 */

  /* USER CODE END I2C2_MspInit 0 */

    __HAL_RCC_GPIOH_CLK_ENABLE();
 80041c6:	2300      	movs	r3, #0
 80041c8:	61bb      	str	r3, [r7, #24]
 80041ca:	4b31      	ldr	r3, [pc, #196]	@ (8004290 <HAL_I2C_MspInit+0xec>)
 80041cc:	6b1b      	ldr	r3, [r3, #48]	@ 0x30
 80041ce:	4a30      	ldr	r2, [pc, #192]	@ (8004290 <HAL_I2C_MspInit+0xec>)
 80041d0:	f043 0380 	orr.w	r3, r3, #128	@ 0x80
 80041d4:	6313      	str	r3, [r2, #48]	@ 0x30
 80041d6:	4b2e      	ldr	r3, [pc, #184]	@ (8004290 <HAL_I2C_MspInit+0xec>)
 80041d8:	6b1b      	ldr	r3, [r3, #48]	@ 0x30
 80041da:	f003 0380 	and.w	r3, r3, #128	@ 0x80
 80041de:	61bb      	str	r3, [r7, #24]
 80041e0:	69bb      	ldr	r3, [r7, #24]
    /**I2C2 GPIO Configuration
    PH4     ------> I2C2_SCL
    PH5     ------> I2C2_SDA
    */
    GPIO_InitStruct.Pin = GPIO_PIN_4|GPIO_PIN_5;
 80041e2:	2330      	movs	r3, #48	@ 0x30
 80041e4:	61fb      	str	r3, [r7, #28]
    GPIO_InitStruct.Mode = GPIO_MODE_AF_OD;
 80041e6:	2312      	movs	r3, #18
 80041e8:	623b      	str	r3, [r7, #32]
    GPIO_InitStruct.Pull = GPIO_NOPULL;
 80041ea:	2300      	movs	r3, #0
 80041ec:	627b      	str	r3, [r7, #36]	@ 0x24
    GPIO_InitStruct.Speed = GPIO_SPEED_FREQ_VERY_HIGH;
 80041ee:	2303      	movs	r3, #3
 80041f0:	62bb      	str	r3, [r7, #40]	@ 0x28
    GPIO_InitStruct.Alternate = GPIO_AF4_I2C2;
 80041f2:	2304      	movs	r3, #4
 80041f4:	62fb      	str	r3, [r7, #44]	@ 0x2c
    HAL_GPIO_Init(GPIOH, &GPIO_InitStruct);
 80041f6:	f107 031c 	add.w	r3, r7, #28
 80041fa:	4619      	mov	r1, r3
 80041fc:	4825      	ldr	r0, [pc, #148]	@ (8004294 <HAL_I2C_MspInit+0xf0>)
 80041fe:	f000 fae9 	bl	80047d4 <HAL_GPIO_Init>

    /* Peripheral clock enable */
    __HAL_RCC_I2C2_CLK_ENABLE();
 8004202:	2300      	movs	r3, #0
 8004204:	617b      	str	r3, [r7, #20]
 8004206:	4b22      	ldr	r3, [pc, #136]	@ (8004290 <HAL_I2C_MspInit+0xec>)
 8004208:	6c1b      	ldr	r3, [r3, #64]	@ 0x40
 800420a:	4a21      	ldr	r2, [pc, #132]	@ (8004290 <HAL_I2C_MspInit+0xec>)
 800420c:	f443 0380 	orr.w	r3, r3, #4194304	@ 0x400000
 8004210:	6413      	str	r3, [r2, #64]	@ 0x40
 8004212:	4b1f      	ldr	r3, [pc, #124]	@ (8004290 <HAL_I2C_MspInit+0xec>)
 8004214:	6c1b      	ldr	r3, [r3, #64]	@ 0x40
 8004216:	f403 0380 	and.w	r3, r3, #4194304	@ 0x400000
 800421a:	617b      	str	r3, [r7, #20]
 800421c:	697b      	ldr	r3, [r7, #20]
  /* USER CODE BEGIN I2C3_MspInit 1 */

  /* USER CODE END I2C3_MspInit 1 */
  }

}
 800421e:	e031      	b.n	8004284 <HAL_I2C_MspInit+0xe0>
  else if(hi2c->Instance==I2C3)
 8004220:	687b      	ldr	r3, [r7, #4]
 8004222:	681b      	ldr	r3, [r3, #0]
 8004224:	4a1c      	ldr	r2, [pc, #112]	@ (8004298 <HAL_I2C_MspInit+0xf4>)
 8004226:	4293      	cmp	r3, r2
 8004228:	d12c      	bne.n	8004284 <HAL_I2C_MspInit+0xe0>
    __HAL_RCC_GPIOH_CLK_ENABLE();
 800422a:	2300      	movs	r3, #0
 800422c:	613b      	str	r3, [r7, #16]
 800422e:	4b18      	ldr	r3, [pc, #96]	@ (8004290 <HAL_I2C_MspInit+0xec>)
 8004230:	6b1b      	ldr	r3, [r3, #48]	@ 0x30
 8004232:	4a17      	ldr	r2, [pc, #92]	@ (8004290 <HAL_I2C_MspInit+0xec>)
 8004234:	f043 0380 	orr.w	r3, r3, #128	@ 0x80
 8004238:	6313      	str	r3, [r2, #48]	@ 0x30
 800423a:	4b15      	ldr	r3, [pc, #84]	@ (8004290 <HAL_I2C_MspInit+0xec>)
 800423c:	6b1b      	ldr	r3, [r3, #48]	@ 0x30
 800423e:	f003 0380 	and.w	r3, r3, #128	@ 0x80
 8004242:	613b      	str	r3, [r7, #16]
 8004244:	693b      	ldr	r3, [r7, #16]
    GPIO_InitStruct.Pin = GPIO_PIN_7|GPIO_PIN_8;
 8004246:	f44f 73c0 	mov.w	r3, #384	@ 0x180
 800424a:	61fb      	str	r3, [r7, #28]
    GPIO_InitStruct.Mode = GPIO_MODE_AF_OD;
 800424c:	2312      	movs	r3, #18
 800424e:	623b      	str	r3, [r7, #32]
    GPIO_InitStruct.Pull = GPIO_NOPULL;
 8004250:	2300      	movs	r3, #0
 8004252:	627b      	str	r3, [r7, #36]	@ 0x24
    GPIO_InitStruct.Speed = GPIO_SPEED_FREQ_VERY_HIGH;
 8004254:	2303      	movs	r3, #3
 8004256:	62bb      	str	r3, [r7, #40]	@ 0x28
    GPIO_InitStruct.Alternate = GPIO_AF4_I2C3;
 8004258:	2304      	movs	r3, #4
 800425a:	62fb      	str	r3, [r7, #44]	@ 0x2c
    HAL_GPIO_Init(GPIOH, &GPIO_InitStruct);
 800425c:	f107 031c 	add.w	r3, r7, #28
 8004260:	4619      	mov	r1, r3
 8004262:	480c      	ldr	r0, [pc, #48]	@ (8004294 <HAL_I2C_MspInit+0xf0>)
 8004264:	f000 fab6 	bl	80047d4 <HAL_GPIO_Init>
    __HAL_RCC_I2C3_CLK_ENABLE();
 8004268:	2300      	movs	r3, #0
 800426a:	60fb      	str	r3, [r7, #12]
 800426c:	4b08      	ldr	r3, [pc, #32]	@ (8004290 <HAL_I2C_MspInit+0xec>)
 800426e:	6c1b      	ldr	r3, [r3, #64]	@ 0x40
 8004270:	4a07      	ldr	r2, [pc, #28]	@ (8004290 <HAL_I2C_MspInit+0xec>)
 8004272:	f443 0300 	orr.w	r3, r3, #8388608	@ 0x800000
 8004276:	6413      	str	r3, [r2, #64]	@ 0x40
 8004278:	4b05      	ldr	r3, [pc, #20]	@ (8004290 <HAL_I2C_MspInit+0xec>)
 800427a:	6c1b      	ldr	r3, [r3, #64]	@ 0x40
 800427c:	f403 0300 	and.w	r3, r3, #8388608	@ 0x800000
 8004280:	60fb      	str	r3, [r7, #12]
 8004282:	68fb      	ldr	r3, [r7, #12]
}
 8004284:	bf00      	nop
 8004286:	3730      	adds	r7, #48	@ 0x30
 8004288:	46bd      	mov	sp, r7
 800428a:	bd80      	pop	{r7, pc}
 800428c:	40005800 	.word	0x40005800
 8004290:	40023800 	.word	0x40023800
 8004294:	40021c00 	.word	0x40021c00
 8004298:	40005c00 	.word	0x40005c00

0800429c <HAL_SPI_MspInit>:
* This function configures the hardware resources used in this example
* @param hspi: SPI handle pointer
* @retval None
*/
void HAL_SPI_MspInit(SPI_HandleTypeDef* hspi)
{
 800429c:	b580      	push	{r7, lr}
 800429e:	b08e      	sub	sp, #56	@ 0x38
 80042a0:	af00      	add	r7, sp, #0
 80042a2:	6078      	str	r0, [r7, #4]
  GPIO_InitTypeDef GPIO_InitStruct = {0};
 80042a4:	f107 0324 	add.w	r3, r7, #36	@ 0x24
 80042a8:	2200      	movs	r2, #0
 80042aa:	601a      	str	r2, [r3, #0]
 80042ac:	605a      	str	r2, [r3, #4]
 80042ae:	609a      	str	r2, [r3, #8]
 80042b0:	60da      	str	r2, [r3, #12]
 80042b2:	611a      	str	r2, [r3, #16]
  if(hspi->Instance==SPI1)
 80042b4:	687b      	ldr	r3, [r7, #4]
 80042b6:	681b      	ldr	r3, [r3, #0]
 80042b8:	4a4b      	ldr	r2, [pc, #300]	@ (80043e8 <HAL_SPI_MspInit+0x14c>)
 80042ba:	4293      	cmp	r3, r2
 80042bc:	d12c      	bne.n	8004318 <HAL_SPI_MspInit+0x7c>
  {
  /* USER CODE BEGIN SPI1_MspInit 0 */

  /* USER CODE END SPI1_MspInit 0 */
    /* Peripheral clock enable */
    __HAL_RCC_SPI1_CLK_ENABLE();
 80042be:	2300      	movs	r3, #0
 80042c0:	623b      	str	r3, [r7, #32]
 80042c2:	4b4a      	ldr	r3, [pc, #296]	@ (80043ec <HAL_SPI_MspInit+0x150>)
 80042c4:	6c5b      	ldr	r3, [r3, #68]	@ 0x44
 80042c6:	4a49      	ldr	r2, [pc, #292]	@ (80043ec <HAL_SPI_MspInit+0x150>)
 80042c8:	f443 5380 	orr.w	r3, r3, #4096	@ 0x1000
 80042cc:	6453      	str	r3, [r2, #68]	@ 0x44
 80042ce:	4b47      	ldr	r3, [pc, #284]	@ (80043ec <HAL_SPI_MspInit+0x150>)
 80042d0:	6c5b      	ldr	r3, [r3, #68]	@ 0x44
 80042d2:	f403 5380 	and.w	r3, r3, #4096	@ 0x1000
 80042d6:	623b      	str	r3, [r7, #32]
 80042d8:	6a3b      	ldr	r3, [r7, #32]

    __HAL_RCC_GPIOA_CLK_ENABLE();
 80042da:	2300      	movs	r3, #0
 80042dc:	61fb      	str	r3, [r7, #28]
 80042de:	4b43      	ldr	r3, [pc, #268]	@ (80043ec <HAL_SPI_MspInit+0x150>)
 80042e0:	6b1b      	ldr	r3, [r3, #48]	@ 0x30
 80042e2:	4a42      	ldr	r2, [pc, #264]	@ (80043ec <HAL_SPI_MspInit+0x150>)
 80042e4:	f043 0301 	orr.w	r3, r3, #1
 80042e8:	6313      	str	r3, [r2, #48]	@ 0x30
 80042ea:	4b40      	ldr	r3, [pc, #256]	@ (80043ec <HAL_SPI_MspInit+0x150>)
 80042ec:	6b1b      	ldr	r3, [r3, #48]	@ 0x30
 80042ee:	f003 0301 	and.w	r3, r3, #1
 80042f2:	61fb      	str	r3, [r7, #28]
 80042f4:	69fb      	ldr	r3, [r7, #28]
    /**SPI1 GPIO Configuration
    PA5     ------> SPI1_SCK
    PA6     ------> SPI1_MISO
    PA7     ------> SPI1_MOSI
    */
    GPIO_InitStruct.Pin = GPIO_PIN_5|GPIO_PIN_6|GPIO_PIN_7;
 80042f6:	23e0      	movs	r3, #224	@ 0xe0
 80042f8:	627b      	str	r3, [r7, #36]	@ 0x24
    GPIO_InitStruct.Mode = GPIO_MODE_AF_PP;
 80042fa:	2302      	movs	r3, #2
 80042fc:	62bb      	str	r3, [r7, #40]	@ 0x28
    GPIO_InitStruct.Pull = GPIO_NOPULL;
 80042fe:	2300      	movs	r3, #0
 8004300:	62fb      	str	r3, [r7, #44]	@ 0x2c
    GPIO_InitStruct.Speed = GPIO_SPEED_FREQ_VERY_HIGH;
 8004302:	2303      	movs	r3, #3
 8004304:	633b      	str	r3, [r7, #48]	@ 0x30
    GPIO_InitStruct.Alternate = GPIO_AF5_SPI1;
 8004306:	2305      	movs	r3, #5
 8004308:	637b      	str	r3, [r7, #52]	@ 0x34
    HAL_GPIO_Init(GPIOA, &GPIO_InitStruct);
 800430a:	f107 0324 	add.w	r3, r7, #36	@ 0x24
 800430e:	4619      	mov	r1, r3
 8004310:	4837      	ldr	r0, [pc, #220]	@ (80043f0 <HAL_SPI_MspInit+0x154>)
 8004312:	f000 fa5f 	bl	80047d4 <HAL_GPIO_Init>
  /* USER CODE BEGIN SPI3_MspInit 1 */

  /* USER CODE END SPI3_MspInit 1 */
  }

}
 8004316:	e063      	b.n	80043e0 <HAL_SPI_MspInit+0x144>
  else if(hspi->Instance==SPI2)
 8004318:	687b      	ldr	r3, [r7, #4]
 800431a:	681b      	ldr	r3, [r3, #0]
 800431c:	4a35      	ldr	r2, [pc, #212]	@ (80043f4 <HAL_SPI_MspInit+0x158>)
 800431e:	4293      	cmp	r3, r2
 8004320:	d12c      	bne.n	800437c <HAL_SPI_MspInit+0xe0>
    __HAL_RCC_SPI2_CLK_ENABLE();
 8004322:	2300      	movs	r3, #0
 8004324:	61bb      	str	r3, [r7, #24]
 8004326:	4b31      	ldr	r3, [pc, #196]	@ (80043ec <HAL_SPI_MspInit+0x150>)
 8004328:	6c1b      	ldr	r3, [r3, #64]	@ 0x40
 800432a:	4a30      	ldr	r2, [pc, #192]	@ (80043ec <HAL_SPI_MspInit+0x150>)
 800432c:	f443 4380 	orr.w	r3, r3, #16384	@ 0x4000
 8004330:	6413      	str	r3, [r2, #64]	@ 0x40
 8004332:	4b2e      	ldr	r3, [pc, #184]	@ (80043ec <HAL_SPI_MspInit+0x150>)
 8004334:	6c1b      	ldr	r3, [r3, #64]	@ 0x40
 8004336:	f403 4380 	and.w	r3, r3, #16384	@ 0x4000
 800433a:	61bb      	str	r3, [r7, #24]
 800433c:	69bb      	ldr	r3, [r7, #24]
    __HAL_RCC_GPIOI_CLK_ENABLE();
 800433e:	2300      	movs	r3, #0
 8004340:	617b      	str	r3, [r7, #20]
 8004342:	4b2a      	ldr	r3, [pc, #168]	@ (80043ec <HAL_SPI_MspInit+0x150>)
 8004344:	6b1b      	ldr	r3, [r3, #48]	@ 0x30
 8004346:	4a29      	ldr	r2, [pc, #164]	@ (80043ec <HAL_SPI_MspInit+0x150>)
 8004348:	f443 7380 	orr.w	r3, r3, #256	@ 0x100
 800434c:	6313      	str	r3, [r2, #48]	@ 0x30
 800434e:	4b27      	ldr	r3, [pc, #156]	@ (80043ec <HAL_SPI_MspInit+0x150>)
 8004350:	6b1b      	ldr	r3, [r3, #48]	@ 0x30
 8004352:	f403 7380 	and.w	r3, r3, #256	@ 0x100
 8004356:	617b      	str	r3, [r7, #20]
 8004358:	697b      	ldr	r3, [r7, #20]
    GPIO_InitStruct.Pin = GPIO_PIN_1|GPIO_PIN_2|GPIO_PIN_3;
 800435a:	230e      	movs	r3, #14
 800435c:	627b      	str	r3, [r7, #36]	@ 0x24
    GPIO_InitStruct.Mode = GPIO_MODE_AF_PP;
 800435e:	2302      	movs	r3, #2
 8004360:	62bb      	str	r3, [r7, #40]	@ 0x28
    GPIO_InitStruct.Pull = GPIO_NOPULL;
 8004362:	2300      	movs	r3, #0
 8004364:	62fb      	str	r3, [r7, #44]	@ 0x2c
    GPIO_InitStruct.Speed = GPIO_SPEED_FREQ_VERY_HIGH;
 8004366:	2303      	movs	r3, #3
 8004368:	633b      	str	r3, [r7, #48]	@ 0x30
    GPIO_InitStruct.Alternate = GPIO_AF5_SPI2;
 800436a:	2305      	movs	r3, #5
 800436c:	637b      	str	r3, [r7, #52]	@ 0x34
    HAL_GPIO_Init(GPIOI, &GPIO_InitStruct);
 800436e:	f107 0324 	add.w	r3, r7, #36	@ 0x24
 8004372:	4619      	mov	r1, r3
 8004374:	4820      	ldr	r0, [pc, #128]	@ (80043f8 <HAL_SPI_MspInit+0x15c>)
 8004376:	f000 fa2d 	bl	80047d4 <HAL_GPIO_Init>
}
 800437a:	e031      	b.n	80043e0 <HAL_SPI_MspInit+0x144>
  else if(hspi->Instance==SPI3)
 800437c:	687b      	ldr	r3, [r7, #4]
 800437e:	681b      	ldr	r3, [r3, #0]
 8004380:	4a1e      	ldr	r2, [pc, #120]	@ (80043fc <HAL_SPI_MspInit+0x160>)
 8004382:	4293      	cmp	r3, r2
 8004384:	d12c      	bne.n	80043e0 <HAL_SPI_MspInit+0x144>
    __HAL_RCC_SPI3_CLK_ENABLE();
 8004386:	2300      	movs	r3, #0
 8004388:	613b      	str	r3, [r7, #16]
 800438a:	4b18      	ldr	r3, [pc, #96]	@ (80043ec <HAL_SPI_MspInit+0x150>)
 800438c:	6c1b      	ldr	r3, [r3, #64]	@ 0x40
 800438e:	4a17      	ldr	r2, [pc, #92]	@ (80043ec <HAL_SPI_MspInit+0x150>)
 8004390:	f443 4300 	orr.w	r3, r3, #32768	@ 0x8000
 8004394:	6413      	str	r3, [r2, #64]	@ 0x40
 8004396:	4b15      	ldr	r3, [pc, #84]	@ (80043ec <HAL_SPI_MspInit+0x150>)
 8004398:	6c1b      	ldr	r3, [r3, #64]	@ 0x40
 800439a:	f403 4300 	and.w	r3, r3, #32768	@ 0x8000
 800439e:	613b      	str	r3, [r7, #16]
 80043a0:	693b      	ldr	r3, [r7, #16]
    __HAL_RCC_GPIOC_CLK_ENABLE();
 80043a2:	2300      	movs	r3, #0
 80043a4:	60fb      	str	r3, [r7, #12]
 80043a6:	4b11      	ldr	r3, [pc, #68]	@ (80043ec <HAL_SPI_MspInit+0x150>)
 80043a8:	6b1b      	ldr	r3, [r3, #48]	@ 0x30
 80043aa:	4a10      	ldr	r2, [pc, #64]	@ (80043ec <HAL_SPI_MspInit+0x150>)
 80043ac:	f043 0304 	orr.w	r3, r3, #4
 80043b0:	6313      	str	r3, [r2, #48]	@ 0x30
 80043b2:	4b0e      	ldr	r3, [pc, #56]	@ (80043ec <HAL_SPI_MspInit+0x150>)
 80043b4:	6b1b      	ldr	r3, [r3, #48]	@ 0x30
 80043b6:	f003 0304 	and.w	r3, r3, #4
 80043ba:	60fb      	str	r3, [r7, #12]
 80043bc:	68fb      	ldr	r3, [r7, #12]
    GPIO_InitStruct.Pin = GPIO_PIN_10|GPIO_PIN_11|GPIO_PIN_12;
 80043be:	f44f 53e0 	mov.w	r3, #7168	@ 0x1c00
 80043c2:	627b      	str	r3, [r7, #36]	@ 0x24
    GPIO_InitStruct.Mode = GPIO_MODE_AF_PP;
 80043c4:	2302      	movs	r3, #2
 80043c6:	62bb      	str	r3, [r7, #40]	@ 0x28
    GPIO_InitStruct.Pull = GPIO_NOPULL;
 80043c8:	2300      	movs	r3, #0
 80043ca:	62fb      	str	r3, [r7, #44]	@ 0x2c
    GPIO_InitStruct.Speed = GPIO_SPEED_FREQ_VERY_HIGH;
 80043cc:	2303      	movs	r3, #3
 80043ce:	633b      	str	r3, [r7, #48]	@ 0x30
    GPIO_InitStruct.Alternate = GPIO_AF6_SPI3;
 80043d0:	2306      	movs	r3, #6
 80043d2:	637b      	str	r3, [r7, #52]	@ 0x34
    HAL_GPIO_Init(GPIOC, &GPIO_InitStruct);
 80043d4:	f107 0324 	add.w	r3, r7, #36	@ 0x24
 80043d8:	4619      	mov	r1, r3
 80043da:	4809      	ldr	r0, [pc, #36]	@ (8004400 <HAL_SPI_MspInit+0x164>)
 80043dc:	f000 f9fa 	bl	80047d4 <HAL_GPIO_Init>
}
 80043e0:	bf00      	nop
 80043e2:	3738      	adds	r7, #56	@ 0x38
 80043e4:	46bd      	mov	sp, r7
 80043e6:	bd80      	pop	{r7, pc}
 80043e8:	40013000 	.word	0x40013000
 80043ec:	40023800 	.word	0x40023800
 80043f0:	40020000 	.word	0x40020000
 80043f4:	40003800 	.word	0x40003800
 80043f8:	40022000 	.word	0x40022000
 80043fc:	40003c00 	.word	0x40003c00
 8004400:	40020800 	.word	0x40020800

08004404 <NMI_Handler>:
/******************************************************************************/
/**
  * @brief This function handles Non maskable interrupt.
  */
void NMI_Handler(void)
{
 8004404:	b480      	push	{r7}
 8004406:	af00      	add	r7, sp, #0
  /* USER CODE BEGIN NonMaskableInt_IRQn 0 */

  /* USER CODE END NonMaskableInt_IRQn 0 */
  /* USER CODE BEGIN NonMaskableInt_IRQn 1 */
   while (1)
 8004408:	bf00      	nop
 800440a:	e7fd      	b.n	8004408 <NMI_Handler+0x4>

0800440c <HardFault_Handler>:

/**
  * @brief This function handles Hard fault interrupt.
  */
void HardFault_Handler(void)
{
 800440c:	b480      	push	{r7}
 800440e:	af00      	add	r7, sp, #0
  /* USER CODE BEGIN HardFault_IRQn 0 */

  /* USER CODE END HardFault_IRQn 0 */
  while (1)
 8004410:	bf00      	nop
 8004412:	e7fd      	b.n	8004410 <HardFault_Handler+0x4>

08004414 <MemManage_Handler>:

/**
  * @brief This function handles Memory management fault.
  */
void MemManage_Handler(void)
{
 8004414:	b480      	push	{r7}
 8004416:	af00      	add	r7, sp, #0
  /* USER CODE BEGIN MemoryManagement_IRQn 0 */

  /* USER CODE END MemoryManagement_IRQn 0 */
  while (1)
 8004418:	bf00      	nop
 800441a:	e7fd      	b.n	8004418 <MemManage_Handler+0x4>

0800441c <BusFault_Handler>:

/**
  * @brief This function handles Pre-fetch fault, memory access fault.
  */
void BusFault_Handler(void)
{
 800441c:	b480      	push	{r7}
 800441e:	af00      	add	r7, sp, #0
  /* USER CODE BEGIN BusFault_IRQn 0 */

  /* USER CODE END BusFault_IRQn 0 */
  while (1)
 8004420:	bf00      	nop
 8004422:	e7fd      	b.n	8004420 <BusFault_Handler+0x4>

08004424 <UsageFault_Handler>:

/**
  * @brief This function handles Undefined instruction or illegal state.
  */
void UsageFault_Handler(void)
{
 8004424:	b480      	push	{r7}
 8004426:	af00      	add	r7, sp, #0
  /* USER CODE BEGIN UsageFault_IRQn 0 */

  /* USER CODE END UsageFault_IRQn 0 */
  while (1)
 8004428:	bf00      	nop
 800442a:	e7fd      	b.n	8004428 <UsageFault_Handler+0x4>

0800442c <SVC_Handler>:

/**
  * @brief This function handles System service call via SWI instruction.
  */
void SVC_Handler(void)
{
 800442c:	b480      	push	{r7}
 800442e:	af00      	add	r7, sp, #0

  /* USER CODE END SVCall_IRQn 0 */
  /* USER CODE BEGIN SVCall_IRQn 1 */

  /* USER CODE END SVCall_IRQn 1 */
}
 8004430:	bf00      	nop
 8004432:	46bd      	mov	sp, r7
 8004434:	f85d 7b04 	ldr.w	r7, [sp], #4
 8004438:	4770      	bx	lr

0800443a <DebugMon_Handler>:

/**
  * @brief This function handles Debug monitor.
  */
void DebugMon_Handler(void)
{
 800443a:	b480      	push	{r7}
 800443c:	af00      	add	r7, sp, #0

  /* USER CODE END DebugMonitor_IRQn 0 */
  /* USER CODE BEGIN DebugMonitor_IRQn 1 */

  /* USER CODE END DebugMonitor_IRQn 1 */
}
 800443e:	bf00      	nop
 8004440:	46bd      	mov	sp, r7
 8004442:	f85d 7b04 	ldr.w	r7, [sp], #4
 8004446:	4770      	bx	lr

08004448 <PendSV_Handler>:

/**
  * @brief This function handles Pendable request for system service.
  */
void PendSV_Handler(void)
{
 8004448:	b480      	push	{r7}
 800444a:	af00      	add	r7, sp, #0

  /* USER CODE END PendSV_IRQn 0 */
  /* USER CODE BEGIN PendSV_IRQn 1 */

  /* USER CODE END PendSV_IRQn 1 */
}
 800444c:	bf00      	nop
 800444e:	46bd      	mov	sp, r7
 8004450:	f85d 7b04 	ldr.w	r7, [sp], #4
 8004454:	4770      	bx	lr

08004456 <SysTick_Handler>:

/**
  * @brief This function handles System tick timer.
  */
void SysTick_Handler(void)
{
 8004456:	b580      	push	{r7, lr}
 8004458:	af00      	add	r7, sp, #0
  /* USER CODE BEGIN SysTick_IRQn 0 */

  /* USER CODE END SysTick_IRQn 0 */
  HAL_IncTick();
 800445a:	f000 f891 	bl	8004580 <HAL_IncTick>
  /* USER CODE BEGIN SysTick_IRQn 1 */

  /* USER CODE END SysTick_IRQn 1 */
}
 800445e:	bf00      	nop
 8004460:	bd80      	pop	{r7, pc}
	...

08004464 <SystemInit>:
  *         configuration.
  * @param  None
  * @retval None
  */
void SystemInit(void)
{
 8004464:	b480      	push	{r7}
 8004466:	af00      	add	r7, sp, #0
  /* FPU settings ------------------------------------------------------------*/
  #if (__FPU_PRESENT == 1) && (__FPU_USED == 1)
    SCB->CPACR |= ((3UL << 10*2)|(3UL << 11*2));  /* set CP10 and CP11 Full Access */
 8004468:	4b06      	ldr	r3, [pc, #24]	@ (8004484 <SystemInit+0x20>)
 800446a:	f8d3 3088 	ldr.w	r3, [r3, #136]	@ 0x88
 800446e:	4a05      	ldr	r2, [pc, #20]	@ (8004484 <SystemInit+0x20>)
 8004470:	f443 0370 	orr.w	r3, r3, #15728640	@ 0xf00000
 8004474:	f8c2 3088 	str.w	r3, [r2, #136]	@ 0x88

  /* Configure the Vector Table location -------------------------------------*/
#if defined(USER_VECT_TAB_ADDRESS)
  SCB->VTOR = VECT_TAB_BASE_ADDRESS | VECT_TAB_OFFSET; /* Vector Table Relocation in Internal SRAM */
#endif /* USER_VECT_TAB_ADDRESS */
}
 8004478:	bf00      	nop
 800447a:	46bd      	mov	sp, r7
 800447c:	f85d 7b04 	ldr.w	r7, [sp], #4
 8004480:	4770      	bx	lr
 8004482:	bf00      	nop
 8004484:	e000ed00 	.word	0xe000ed00

08004488 <Reset_Handler>:

    .section  .text.Reset_Handler
  .weak  Reset_Handler
  .type  Reset_Handler, %function
Reset_Handler: 
  ldr   sp, =_estack       /* set stack pointer */
 8004488:	f8df d034 	ldr.w	sp, [pc, #52]	@ 80044c0 <LoopFillZerobss+0xe>

/* Call the clock system initialization function.*/
  bl  SystemInit   
 800448c:	f7ff ffea 	bl	8004464 <SystemInit>
 
/* Copy the data segment initializers from flash to SRAM */  
  ldr r0, =_sdata
 8004490:	480c      	ldr	r0, [pc, #48]	@ (80044c4 <LoopFillZerobss+0x12>)
  ldr r1, =_edata
 8004492:	490d      	ldr	r1, [pc, #52]	@ (80044c8 <LoopFillZerobss+0x16>)
  ldr r2, =_sidata
 8004494:	4a0d      	ldr	r2, [pc, #52]	@ (80044cc <LoopFillZerobss+0x1a>)
  movs r3, #0
 8004496:	2300      	movs	r3, #0
  b LoopCopyDataInit
 8004498:	e002      	b.n	80044a0 <LoopCopyDataInit>

0800449a <CopyDataInit>:

CopyDataInit:
  ldr r4, [r2, r3]
 800449a:	58d4      	ldr	r4, [r2, r3]
  str r4, [r0, r3]
 800449c:	50c4      	str	r4, [r0, r3]
  adds r3, r3, #4
 800449e:	3304      	adds	r3, #4

080044a0 <LoopCopyDataInit>:

LoopCopyDataInit:
  adds r4, r0, r3
 80044a0:	18c4      	adds	r4, r0, r3
  cmp r4, r1
 80044a2:	428c      	cmp	r4, r1
  bcc CopyDataInit
 80044a4:	d3f9      	bcc.n	800449a <CopyDataInit>
  
/* Zero fill the bss segment. */
  ldr r2, =_sbss
 80044a6:	4a0a      	ldr	r2, [pc, #40]	@ (80044d0 <LoopFillZerobss+0x1e>)
  ldr r4, =_ebss
 80044a8:	4c0a      	ldr	r4, [pc, #40]	@ (80044d4 <LoopFillZerobss+0x22>)
  movs r3, #0
 80044aa:	2300      	movs	r3, #0
  b LoopFillZerobss
 80044ac:	e001      	b.n	80044b2 <LoopFillZerobss>

080044ae <FillZerobss>:

FillZerobss:
  str  r3, [r2]
 80044ae:	6013      	str	r3, [r2, #0]
  adds r2, r2, #4
 80044b0:	3204      	adds	r2, #4

080044b2 <LoopFillZerobss>:

LoopFillZerobss:
  cmp r2, r4
 80044b2:	42a2      	cmp	r2, r4
  bcc FillZerobss
 80044b4:	d3fb      	bcc.n	80044ae <FillZerobss>
  
/* Call static constructors */
    bl __libc_init_array
 80044b6:	f002 fce1 	bl	8006e7c <__libc_init_array>
/* Call the application's entry point.*/
  bl  main
 80044ba:	f7ff f8df 	bl	800367c <main>
  bx  lr    
 80044be:	4770      	bx	lr
  ldr   sp, =_estack       /* set stack pointer */
 80044c0:	20030000 	.word	0x20030000
  ldr r0, =_sdata
 80044c4:	20000000 	.word	0x20000000
  ldr r1, =_edata
 80044c8:	200005ec 	.word	0x200005ec
  ldr r2, =_sidata
 80044cc:	08007c90 	.word	0x08007c90
  ldr r2, =_sbss
 80044d0:	200005ec 	.word	0x200005ec
  ldr r4, =_ebss
 80044d4:	20000c70 	.word	0x20000c70

080044d8 <ADC_IRQHandler>:
 * @retval None       
*/
    .section  .text.Default_Handler,"ax",%progbits
Default_Handler:
Infinite_Loop:
  b  Infinite_Loop
 80044d8:	e7fe      	b.n	80044d8 <ADC_IRQHandler>
	...

080044dc <HAL_Init>:
  *         need to ensure that the SysTick time base is always set to 1 millisecond
  *         to have correct HAL operation.
  * @retval HAL status
  */
HAL_StatusTypeDef HAL_Init(void)
{
 80044dc:	b580      	push	{r7, lr}
 80044de:	af00      	add	r7, sp, #0
  /* Configure Flash prefetch, Instruction cache, Data cache */ 
#if (INSTRUCTION_CACHE_ENABLE != 0U)
  __HAL_FLASH_INSTRUCTION_CACHE_ENABLE();
 80044e0:	4b0e      	ldr	r3, [pc, #56]	@ (800451c <HAL_Init+0x40>)
 80044e2:	681b      	ldr	r3, [r3, #0]
 80044e4:	4a0d      	ldr	r2, [pc, #52]	@ (800451c <HAL_Init+0x40>)
 80044e6:	f443 7300 	orr.w	r3, r3, #512	@ 0x200
 80044ea:	6013      	str	r3, [r2, #0]
#endif /* INSTRUCTION_CACHE_ENABLE */

#if (DATA_CACHE_ENABLE != 0U)
  __HAL_FLASH_DATA_CACHE_ENABLE();
 80044ec:	4b0b      	ldr	r3, [pc, #44]	@ (800451c <HAL_Init+0x40>)
 80044ee:	681b      	ldr	r3, [r3, #0]
 80044f0:	4a0a      	ldr	r2, [pc, #40]	@ (800451c <HAL_Init+0x40>)
 80044f2:	f443 6380 	orr.w	r3, r3, #1024	@ 0x400
 80044f6:	6013      	str	r3, [r2, #0]
#endif /* DATA_CACHE_ENABLE */

#if (PREFETCH_ENABLE != 0U)
  __HAL_FLASH_PREFETCH_BUFFER_ENABLE();
 80044f8:	4b08      	ldr	r3, [pc, #32]	@ (800451c <HAL_Init+0x40>)
 80044fa:	681b      	ldr	r3, [r3, #0]
 80044fc:	4a07      	ldr	r2, [pc, #28]	@ (800451c <HAL_Init+0x40>)
 80044fe:	f443 7380 	orr.w	r3, r3, #256	@ 0x100
 8004502:	6013      	str	r3, [r2, #0]
#endif /* PREFETCH_ENABLE */

  /* Set Interrupt Group Priority */
  HAL_NVIC_SetPriorityGrouping(NVIC_PRIORITYGROUP_4);
 8004504:	2003      	movs	r0, #3
 8004506:	f000 f931 	bl	800476c <HAL_NVIC_SetPriorityGrouping>

  /* Use systick as time base source and configure 1ms tick (default clock after Reset is HSI) */
  HAL_InitTick(TICK_INT_PRIORITY);
 800450a:	200f      	movs	r0, #15
 800450c:	f000 f808 	bl	8004520 <HAL_InitTick>

  /* Init the low level hardware */
  HAL_MspInit();
 8004510:	f7ff fe20 	bl	8004154 <HAL_MspInit>

  /* Return function status */
  return HAL_OK;
 8004514:	2300      	movs	r3, #0
}
 8004516:	4618      	mov	r0, r3
 8004518:	bd80      	pop	{r7, pc}
 800451a:	bf00      	nop
 800451c:	40023c00 	.word	0x40023c00

08004520 <HAL_InitTick>:
  *       implementation  in user file.
  * @param TickPriority Tick interrupt priority.
  * @retval HAL status
  */
__weak HAL_StatusTypeDef HAL_InitTick(uint32_t TickPriority)
{
 8004520:	b580      	push	{r7, lr}
 8004522:	b082      	sub	sp, #8
 8004524:	af00      	add	r7, sp, #0
 8004526:	6078      	str	r0, [r7, #4]
  /* Configure the SysTick to have interrupt in 1ms time basis*/
  if (HAL_SYSTICK_Config(SystemCoreClock / (1000U / uwTickFreq)) > 0U)
 8004528:	4b12      	ldr	r3, [pc, #72]	@ (8004574 <HAL_InitTick+0x54>)
 800452a:	681a      	ldr	r2, [r3, #0]
 800452c:	4b12      	ldr	r3, [pc, #72]	@ (8004578 <HAL_InitTick+0x58>)
 800452e:	781b      	ldrb	r3, [r3, #0]
 8004530:	4619      	mov	r1, r3
 8004532:	f44f 737a 	mov.w	r3, #1000	@ 0x3e8
 8004536:	fbb3 f3f1 	udiv	r3, r3, r1
 800453a:	fbb2 f3f3 	udiv	r3, r2, r3
 800453e:	4618      	mov	r0, r3
 8004540:	f000 f93b 	bl	80047ba <HAL_SYSTICK_Config>
 8004544:	4603      	mov	r3, r0
 8004546:	2b00      	cmp	r3, #0
 8004548:	d001      	beq.n	800454e <HAL_InitTick+0x2e>
  {
    return HAL_ERROR;
 800454a:	2301      	movs	r3, #1
 800454c:	e00e      	b.n	800456c <HAL_InitTick+0x4c>
  }

  /* Configure the SysTick IRQ priority */
  if (TickPriority < (1UL << __NVIC_PRIO_BITS))
 800454e:	687b      	ldr	r3, [r7, #4]
 8004550:	2b0f      	cmp	r3, #15
 8004552:	d80a      	bhi.n	800456a <HAL_InitTick+0x4a>
  {
    HAL_NVIC_SetPriority(SysTick_IRQn, TickPriority, 0U);
 8004554:	2200      	movs	r2, #0
 8004556:	6879      	ldr	r1, [r7, #4]
 8004558:	f04f 30ff 	mov.w	r0, #4294967295
 800455c:	f000 f911 	bl	8004782 <HAL_NVIC_SetPriority>
    uwTickPrio = TickPriority;
 8004560:	4a06      	ldr	r2, [pc, #24]	@ (800457c <HAL_InitTick+0x5c>)
 8004562:	687b      	ldr	r3, [r7, #4]
 8004564:	6013      	str	r3, [r2, #0]
  {
    return HAL_ERROR;
  }

  /* Return function status */
  return HAL_OK;
 8004566:	2300      	movs	r3, #0
 8004568:	e000      	b.n	800456c <HAL_InitTick+0x4c>
    return HAL_ERROR;
 800456a:	2301      	movs	r3, #1
}
 800456c:	4618      	mov	r0, r3
 800456e:	3708      	adds	r7, #8
 8004570:	46bd      	mov	sp, r7
 8004572:	bd80      	pop	{r7, pc}
 8004574:	200005e0 	.word	0x200005e0
 8004578:	200005e8 	.word	0x200005e8
 800457c:	200005e4 	.word	0x200005e4

08004580 <HAL_IncTick>:
 * @note This function is declared as __weak to be overwritten in case of other 
  *      implementations in user file.
  * @retval None
  */
__weak void HAL_IncTick(void)
{
 8004580:	b480      	push	{r7}
 8004582:	af00      	add	r7, sp, #0
  uwTick += uwTickFreq;
 8004584:	4b06      	ldr	r3, [pc, #24]	@ (80045a0 <HAL_IncTick+0x20>)
 8004586:	781b      	ldrb	r3, [r3, #0]
 8004588:	461a      	mov	r2, r3
 800458a:	4b06      	ldr	r3, [pc, #24]	@ (80045a4 <HAL_IncTick+0x24>)
 800458c:	681b      	ldr	r3, [r3, #0]
 800458e:	4413      	add	r3, r2
 8004590:	4a04      	ldr	r2, [pc, #16]	@ (80045a4 <HAL_IncTick+0x24>)
 8004592:	6013      	str	r3, [r2, #0]
}
 8004594:	bf00      	nop
 8004596:	46bd      	mov	sp, r7
 8004598:	f85d 7b04 	ldr.w	r7, [sp], #4
 800459c:	4770      	bx	lr
 800459e:	bf00      	nop
 80045a0:	200005e8 	.word	0x200005e8
 80045a4:	20000c6c 	.word	0x20000c6c

080045a8 <HAL_GetTick>:
  * @note This function is declared as __weak to be overwritten in case of other 
  *       implementations in user file.
  * @retval tick value
  */
__weak uint32_t HAL_GetTick(void)
{
 80045a8:	b480      	push	{r7}
 80045aa:	af00      	add	r7, sp, #0
  return uwTick;
 80045ac:	4b03      	ldr	r3, [pc, #12]	@ (80045bc <HAL_GetTick+0x14>)
 80045ae:	681b      	ldr	r3, [r3, #0]
}
 80045b0:	4618      	mov	r0, r3
 80045b2:	46bd      	mov	sp, r7
 80045b4:	f85d 7b04 	ldr.w	r7, [sp], #4
 80045b8:	4770      	bx	lr
 80045ba:	bf00      	nop
 80045bc:	20000c6c 	.word	0x20000c6c

080045c0 <HAL_Delay>:
  *       implementations in user file.
  * @param Delay specifies the delay time length, in milliseconds.
  * @retval None
  */
__weak void HAL_Delay(uint32_t Delay)
{
 80045c0:	b580      	push	{r7, lr}
 80045c2:	b084      	sub	sp, #16
 80045c4:	af00      	add	r7, sp, #0
 80045c6:	6078      	str	r0, [r7, #4]
  uint32_t tickstart = HAL_GetTick();
 80045c8:	f7ff ffee 	bl	80045a8 <HAL_GetTick>
 80045cc:	60b8      	str	r0, [r7, #8]
  uint32_t wait = Delay;
 80045ce:	687b      	ldr	r3, [r7, #4]
 80045d0:	60fb      	str	r3, [r7, #12]

  /* Add a freq to guarantee minimum wait */
  if (wait < HAL_MAX_DELAY)
 80045d2:	68fb      	ldr	r3, [r7, #12]
 80045d4:	f1b3 3fff 	cmp.w	r3, #4294967295
 80045d8:	d005      	beq.n	80045e6 <HAL_Delay+0x26>
  {
    wait += (uint32_t)(uwTickFreq);
 80045da:	4b0a      	ldr	r3, [pc, #40]	@ (8004604 <HAL_Delay+0x44>)
 80045dc:	781b      	ldrb	r3, [r3, #0]
 80045de:	461a      	mov	r2, r3
 80045e0:	68fb      	ldr	r3, [r7, #12]
 80045e2:	4413      	add	r3, r2
 80045e4:	60fb      	str	r3, [r7, #12]
  }

  while((HAL_GetTick() - tickstart) < wait)
 80045e6:	bf00      	nop
 80045e8:	f7ff ffde 	bl	80045a8 <HAL_GetTick>
 80045ec:	4602      	mov	r2, r0
 80045ee:	68bb      	ldr	r3, [r7, #8]
 80045f0:	1ad3      	subs	r3, r2, r3
 80045f2:	68fa      	ldr	r2, [r7, #12]
 80045f4:	429a      	cmp	r2, r3
 80045f6:	d8f7      	bhi.n	80045e8 <HAL_Delay+0x28>
  {
  }
}
 80045f8:	bf00      	nop
 80045fa:	bf00      	nop
 80045fc:	3710      	adds	r7, #16
 80045fe:	46bd      	mov	sp, r7
 8004600:	bd80      	pop	{r7, pc}
 8004602:	bf00      	nop
 8004604:	200005e8 	.word	0x200005e8

08004608 <__NVIC_SetPriorityGrouping>:
           In case of a conflict between priority grouping and available
           priority bits (__NVIC_PRIO_BITS), the smallest possible priority group is set.
  \param [in]      PriorityGroup  Priority grouping field.
 */
__STATIC_INLINE void __NVIC_SetPriorityGrouping(uint32_t PriorityGroup)
{
 8004608:	b480      	push	{r7}
 800460a:	b085      	sub	sp, #20
 800460c:	af00      	add	r7, sp, #0
 800460e:	6078      	str	r0, [r7, #4]
  uint32_t reg_value;
  uint32_t PriorityGroupTmp = (PriorityGroup & (uint32_t)0x07UL);             /* only values 0..7 are used          */
 8004610:	687b      	ldr	r3, [r7, #4]
 8004612:	f003 0307 	and.w	r3, r3, #7
 8004616:	60fb      	str	r3, [r7, #12]

  reg_value  =  SCB->AIRCR;                                                   /* read old register configuration    */
 8004618:	4b0c      	ldr	r3, [pc, #48]	@ (800464c <__NVIC_SetPriorityGrouping+0x44>)
 800461a:	68db      	ldr	r3, [r3, #12]
 800461c:	60bb      	str	r3, [r7, #8]
  reg_value &= ~((uint32_t)(SCB_AIRCR_VECTKEY_Msk | SCB_AIRCR_PRIGROUP_Msk)); /* clear bits to change               */
 800461e:	68ba      	ldr	r2, [r7, #8]
 8004620:	f64f 03ff 	movw	r3, #63743	@ 0xf8ff
 8004624:	4013      	ands	r3, r2
 8004626:	60bb      	str	r3, [r7, #8]
  reg_value  =  (reg_value                                   |
                ((uint32_t)0x5FAUL << SCB_AIRCR_VECTKEY_Pos) |
                (PriorityGroupTmp << SCB_AIRCR_PRIGROUP_Pos)  );              /* Insert write key and priority group */
 8004628:	68fb      	ldr	r3, [r7, #12]
 800462a:	021a      	lsls	r2, r3, #8
                ((uint32_t)0x5FAUL << SCB_AIRCR_VECTKEY_Pos) |
 800462c:	68bb      	ldr	r3, [r7, #8]
 800462e:	4313      	orrs	r3, r2
  reg_value  =  (reg_value                                   |
 8004630:	f043 63bf 	orr.w	r3, r3, #100139008	@ 0x5f80000
 8004634:	f443 3300 	orr.w	r3, r3, #131072	@ 0x20000
 8004638:	60bb      	str	r3, [r7, #8]
  SCB->AIRCR =  reg_value;
 800463a:	4a04      	ldr	r2, [pc, #16]	@ (800464c <__NVIC_SetPriorityGrouping+0x44>)
 800463c:	68bb      	ldr	r3, [r7, #8]
 800463e:	60d3      	str	r3, [r2, #12]
}
 8004640:	bf00      	nop
 8004642:	3714      	adds	r7, #20
 8004644:	46bd      	mov	sp, r7
 8004646:	f85d 7b04 	ldr.w	r7, [sp], #4
 800464a:	4770      	bx	lr
 800464c:	e000ed00 	.word	0xe000ed00

08004650 <__NVIC_GetPriorityGrouping>:
  \brief   Get Priority Grouping
  \details Reads the priority grouping field from the NVIC Interrupt Controller.
  \return                Priority grouping field (SCB->AIRCR [10:8] PRIGROUP field).
 */
__STATIC_INLINE uint32_t __NVIC_GetPriorityGrouping(void)
{
 8004650:	b480      	push	{r7}
 8004652:	af00      	add	r7, sp, #0
  return ((uint32_t)((SCB->AIRCR & SCB_AIRCR_PRIGROUP_Msk) >> SCB_AIRCR_PRIGROUP_Pos));
 8004654:	4b04      	ldr	r3, [pc, #16]	@ (8004668 <__NVIC_GetPriorityGrouping+0x18>)
 8004656:	68db      	ldr	r3, [r3, #12]
 8004658:	0a1b      	lsrs	r3, r3, #8
 800465a:	f003 0307 	and.w	r3, r3, #7
}
 800465e:	4618      	mov	r0, r3
 8004660:	46bd      	mov	sp, r7
 8004662:	f85d 7b04 	ldr.w	r7, [sp], #4
 8004666:	4770      	bx	lr
 8004668:	e000ed00 	.word	0xe000ed00

0800466c <__NVIC_SetPriority>:
  \param [in]      IRQn  Interrupt number.
  \param [in]  priority  Priority to set.
  \note    The priority cannot be set for every processor exception.
 */
__STATIC_INLINE void __NVIC_SetPriority(IRQn_Type IRQn, uint32_t priority)
{
 800466c:	b480      	push	{r7}
 800466e:	b083      	sub	sp, #12
 8004670:	af00      	add	r7, sp, #0
 8004672:	4603      	mov	r3, r0
 8004674:	6039      	str	r1, [r7, #0]
 8004676:	71fb      	strb	r3, [r7, #7]
  if ((int32_t)(IRQn) >= 0)
 8004678:	f997 3007 	ldrsb.w	r3, [r7, #7]
 800467c:	2b00      	cmp	r3, #0
 800467e:	db0a      	blt.n	8004696 <__NVIC_SetPriority+0x2a>
  {
    NVIC->IP[((uint32_t)IRQn)]               = (uint8_t)((priority << (8U - __NVIC_PRIO_BITS)) & (uint32_t)0xFFUL);
 8004680:	683b      	ldr	r3, [r7, #0]
 8004682:	b2da      	uxtb	r2, r3
 8004684:	490c      	ldr	r1, [pc, #48]	@ (80046b8 <__NVIC_SetPriority+0x4c>)
 8004686:	f997 3007 	ldrsb.w	r3, [r7, #7]
 800468a:	0112      	lsls	r2, r2, #4
 800468c:	b2d2      	uxtb	r2, r2
 800468e:	440b      	add	r3, r1
 8004690:	f883 2300 	strb.w	r2, [r3, #768]	@ 0x300
  }
  else
  {
    SCB->SHP[(((uint32_t)IRQn) & 0xFUL)-4UL] = (uint8_t)((priority << (8U - __NVIC_PRIO_BITS)) & (uint32_t)0xFFUL);
  }
}
 8004694:	e00a      	b.n	80046ac <__NVIC_SetPriority+0x40>
    SCB->SHP[(((uint32_t)IRQn) & 0xFUL)-4UL] = (uint8_t)((priority << (8U - __NVIC_PRIO_BITS)) & (uint32_t)0xFFUL);
 8004696:	683b      	ldr	r3, [r7, #0]
 8004698:	b2da      	uxtb	r2, r3
 800469a:	4908      	ldr	r1, [pc, #32]	@ (80046bc <__NVIC_SetPriority+0x50>)
 800469c:	79fb      	ldrb	r3, [r7, #7]
 800469e:	f003 030f 	and.w	r3, r3, #15
 80046a2:	3b04      	subs	r3, #4
 80046a4:	0112      	lsls	r2, r2, #4
 80046a6:	b2d2      	uxtb	r2, r2
 80046a8:	440b      	add	r3, r1
 80046aa:	761a      	strb	r2, [r3, #24]
}
 80046ac:	bf00      	nop
 80046ae:	370c      	adds	r7, #12
 80046b0:	46bd      	mov	sp, r7
 80046b2:	f85d 7b04 	ldr.w	r7, [sp], #4
 80046b6:	4770      	bx	lr
 80046b8:	e000e100 	.word	0xe000e100
 80046bc:	e000ed00 	.word	0xe000ed00

080046c0 <NVIC_EncodePriority>:
  \param [in]   PreemptPriority  Preemptive priority value (starting from 0).
  \param [in]       SubPriority  Subpriority value (starting from 0).
  \return                        Encoded priority. Value can be used in the function \ref NVIC_SetPriority().
 */
__STATIC_INLINE uint32_t NVIC_EncodePriority (uint32_t PriorityGroup, uint32_t PreemptPriority, uint32_t SubPriority)
{
 80046c0:	b480      	push	{r7}
 80046c2:	b089      	sub	sp, #36	@ 0x24
 80046c4:	af00      	add	r7, sp, #0
 80046c6:	60f8      	str	r0, [r7, #12]
 80046c8:	60b9      	str	r1, [r7, #8]
 80046ca:	607a      	str	r2, [r7, #4]
  uint32_t PriorityGroupTmp = (PriorityGroup & (uint32_t)0x07UL);   /* only values 0..7 are used          */
 80046cc:	68fb      	ldr	r3, [r7, #12]
 80046ce:	f003 0307 	and.w	r3, r3, #7
 80046d2:	61fb      	str	r3, [r7, #28]
  uint32_t PreemptPriorityBits;
  uint32_t SubPriorityBits;

  PreemptPriorityBits = ((7UL - PriorityGroupTmp) > (uint32_t)(__NVIC_PRIO_BITS)) ? (uint32_t)(__NVIC_PRIO_BITS) : (uint32_t)(7UL - PriorityGroupTmp);
 80046d4:	69fb      	ldr	r3, [r7, #28]
 80046d6:	f1c3 0307 	rsb	r3, r3, #7
 80046da:	2b04      	cmp	r3, #4
 80046dc:	bf28      	it	cs
 80046de:	2304      	movcs	r3, #4
 80046e0:	61bb      	str	r3, [r7, #24]
  SubPriorityBits     = ((PriorityGroupTmp + (uint32_t)(__NVIC_PRIO_BITS)) < (uint32_t)7UL) ? (uint32_t)0UL : (uint32_t)((PriorityGroupTmp - 7UL) + (uint32_t)(__NVIC_PRIO_BITS));
 80046e2:	69fb      	ldr	r3, [r7, #28]
 80046e4:	3304      	adds	r3, #4
 80046e6:	2b06      	cmp	r3, #6
 80046e8:	d902      	bls.n	80046f0 <NVIC_EncodePriority+0x30>
 80046ea:	69fb      	ldr	r3, [r7, #28]
 80046ec:	3b03      	subs	r3, #3
 80046ee:	e000      	b.n	80046f2 <NVIC_EncodePriority+0x32>
 80046f0:	2300      	movs	r3, #0
 80046f2:	617b      	str	r3, [r7, #20]

  return (
           ((PreemptPriority & (uint32_t)((1UL << (PreemptPriorityBits)) - 1UL)) << SubPriorityBits) |
 80046f4:	f04f 32ff 	mov.w	r2, #4294967295
 80046f8:	69bb      	ldr	r3, [r7, #24]
 80046fa:	fa02 f303 	lsl.w	r3, r2, r3
 80046fe:	43da      	mvns	r2, r3
 8004700:	68bb      	ldr	r3, [r7, #8]
 8004702:	401a      	ands	r2, r3
 8004704:	697b      	ldr	r3, [r7, #20]
 8004706:	409a      	lsls	r2, r3
           ((SubPriority     & (uint32_t)((1UL << (SubPriorityBits    )) - 1UL)))
 8004708:	f04f 31ff 	mov.w	r1, #4294967295
 800470c:	697b      	ldr	r3, [r7, #20]
 800470e:	fa01 f303 	lsl.w	r3, r1, r3
 8004712:	43d9      	mvns	r1, r3
 8004714:	687b      	ldr	r3, [r7, #4]
 8004716:	400b      	ands	r3, r1
           ((PreemptPriority & (uint32_t)((1UL << (PreemptPriorityBits)) - 1UL)) << SubPriorityBits) |
 8004718:	4313      	orrs	r3, r2
         );
}
 800471a:	4618      	mov	r0, r3
 800471c:	3724      	adds	r7, #36	@ 0x24
 800471e:	46bd      	mov	sp, r7
 8004720:	f85d 7b04 	ldr.w	r7, [sp], #4
 8004724:	4770      	bx	lr
	...

08004728 <SysTick_Config>:
  \note    When the variable <b>__Vendor_SysTickConfig</b> is set to 1, then the
           function <b>SysTick_Config</b> is not included. In this case, the file <b><i>device</i>.h</b>
           must contain a vendor-specific implementation of this function.
 */
__STATIC_INLINE uint32_t SysTick_Config(uint32_t ticks)
{
 8004728:	b580      	push	{r7, lr}
 800472a:	b082      	sub	sp, #8
 800472c:	af00      	add	r7, sp, #0
 800472e:	6078      	str	r0, [r7, #4]
  if ((ticks - 1UL) > SysTick_LOAD_RELOAD_Msk)
 8004730:	687b      	ldr	r3, [r7, #4]
 8004732:	3b01      	subs	r3, #1
 8004734:	f1b3 7f80 	cmp.w	r3, #16777216	@ 0x1000000
 8004738:	d301      	bcc.n	800473e <SysTick_Config+0x16>
  {
    return (1UL);                                                   /* Reload value impossible */
 800473a:	2301      	movs	r3, #1
 800473c:	e00f      	b.n	800475e <SysTick_Config+0x36>
  }

  SysTick->LOAD  = (uint32_t)(ticks - 1UL);                         /* set reload register */
 800473e:	4a0a      	ldr	r2, [pc, #40]	@ (8004768 <SysTick_Config+0x40>)
 8004740:	687b      	ldr	r3, [r7, #4]
 8004742:	3b01      	subs	r3, #1
 8004744:	6053      	str	r3, [r2, #4]
  NVIC_SetPriority (SysTick_IRQn, (1UL << __NVIC_PRIO_BITS) - 1UL); /* set Priority for Systick Interrupt */
 8004746:	210f      	movs	r1, #15
 8004748:	f04f 30ff 	mov.w	r0, #4294967295
 800474c:	f7ff ff8e 	bl	800466c <__NVIC_SetPriority>
  SysTick->VAL   = 0UL;                                             /* Load the SysTick Counter Value */
 8004750:	4b05      	ldr	r3, [pc, #20]	@ (8004768 <SysTick_Config+0x40>)
 8004752:	2200      	movs	r2, #0
 8004754:	609a      	str	r2, [r3, #8]
  SysTick->CTRL  = SysTick_CTRL_CLKSOURCE_Msk |
 8004756:	4b04      	ldr	r3, [pc, #16]	@ (8004768 <SysTick_Config+0x40>)
 8004758:	2207      	movs	r2, #7
 800475a:	601a      	str	r2, [r3, #0]
                   SysTick_CTRL_TICKINT_Msk   |
                   SysTick_CTRL_ENABLE_Msk;                         /* Enable SysTick IRQ and SysTick Timer */
  return (0UL);                                                     /* Function successful */
 800475c:	2300      	movs	r3, #0
}
 800475e:	4618      	mov	r0, r3
 8004760:	3708      	adds	r7, #8
 8004762:	46bd      	mov	sp, r7
 8004764:	bd80      	pop	{r7, pc}
 8004766:	bf00      	nop
 8004768:	e000e010 	.word	0xe000e010

0800476c <HAL_NVIC_SetPriorityGrouping>:
  * @note   When the NVIC_PriorityGroup_0 is selected, IRQ preemption is no more possible. 
  *         The pending IRQ priority will be managed only by the subpriority. 
  * @retval None
  */
void HAL_NVIC_SetPriorityGrouping(uint32_t PriorityGroup)
{
 800476c:	b580      	push	{r7, lr}
 800476e:	b082      	sub	sp, #8
 8004770:	af00      	add	r7, sp, #0
 8004772:	6078      	str	r0, [r7, #4]
  /* Check the parameters */
  assert_param(IS_NVIC_PRIORITY_GROUP(PriorityGroup));
  
  /* Set the PRIGROUP[10:8] bits according to the PriorityGroup parameter value */
  NVIC_SetPriorityGrouping(PriorityGroup);
 8004774:	6878      	ldr	r0, [r7, #4]
 8004776:	f7ff ff47 	bl	8004608 <__NVIC_SetPriorityGrouping>
}
 800477a:	bf00      	nop
 800477c:	3708      	adds	r7, #8
 800477e:	46bd      	mov	sp, r7
 8004780:	bd80      	pop	{r7, pc}

08004782 <HAL_NVIC_SetPriority>:
  *         This parameter can be a value between 0 and 15
  *         A lower priority value indicates a higher priority.          
  * @retval None
  */
void HAL_NVIC_SetPriority(IRQn_Type IRQn, uint32_t PreemptPriority, uint32_t SubPriority)
{ 
 8004782:	b580      	push	{r7, lr}
 8004784:	b086      	sub	sp, #24
 8004786:	af00      	add	r7, sp, #0
 8004788:	4603      	mov	r3, r0
 800478a:	60b9      	str	r1, [r7, #8]
 800478c:	607a      	str	r2, [r7, #4]
 800478e:	73fb      	strb	r3, [r7, #15]
  uint32_t prioritygroup = 0x00U;
 8004790:	2300      	movs	r3, #0
 8004792:	617b      	str	r3, [r7, #20]
  
  /* Check the parameters */
  assert_param(IS_NVIC_SUB_PRIORITY(SubPriority));
  assert_param(IS_NVIC_PREEMPTION_PRIORITY(PreemptPriority));
  
  prioritygroup = NVIC_GetPriorityGrouping();
 8004794:	f7ff ff5c 	bl	8004650 <__NVIC_GetPriorityGrouping>
 8004798:	6178      	str	r0, [r7, #20]
  
  NVIC_SetPriority(IRQn, NVIC_EncodePriority(prioritygroup, PreemptPriority, SubPriority));
 800479a:	687a      	ldr	r2, [r7, #4]
 800479c:	68b9      	ldr	r1, [r7, #8]
 800479e:	6978      	ldr	r0, [r7, #20]
 80047a0:	f7ff ff8e 	bl	80046c0 <NVIC_EncodePriority>
 80047a4:	4602      	mov	r2, r0
 80047a6:	f997 300f 	ldrsb.w	r3, [r7, #15]
 80047aa:	4611      	mov	r1, r2
 80047ac:	4618      	mov	r0, r3
 80047ae:	f7ff ff5d 	bl	800466c <__NVIC_SetPriority>
}
 80047b2:	bf00      	nop
 80047b4:	3718      	adds	r7, #24
 80047b6:	46bd      	mov	sp, r7
 80047b8:	bd80      	pop	{r7, pc}

080047ba <HAL_SYSTICK_Config>:
  * @param  TicksNumb Specifies the ticks Number of ticks between two interrupts.
  * @retval status:  - 0  Function succeeded.
  *                  - 1  Function failed.
  */
uint32_t HAL_SYSTICK_Config(uint32_t TicksNumb)
{
 80047ba:	b580      	push	{r7, lr}
 80047bc:	b082      	sub	sp, #8
 80047be:	af00      	add	r7, sp, #0
 80047c0:	6078      	str	r0, [r7, #4]
   return SysTick_Config(TicksNumb);
 80047c2:	6878      	ldr	r0, [r7, #4]
 80047c4:	f7ff ffb0 	bl	8004728 <SysTick_Config>
 80047c8:	4603      	mov	r3, r0
}
 80047ca:	4618      	mov	r0, r3
 80047cc:	3708      	adds	r7, #8
 80047ce:	46bd      	mov	sp, r7
 80047d0:	bd80      	pop	{r7, pc}
	...

080047d4 <HAL_GPIO_Init>:
  * @param  GPIO_Init pointer to a GPIO_InitTypeDef structure that contains
  *         the configuration information for the specified GPIO peripheral.
  * @retval None
  */
void HAL_GPIO_Init(GPIO_TypeDef  *GPIOx, GPIO_InitTypeDef *GPIO_Init)
{
 80047d4:	b480      	push	{r7}
 80047d6:	b089      	sub	sp, #36	@ 0x24
 80047d8:	af00      	add	r7, sp, #0
 80047da:	6078      	str	r0, [r7, #4]
 80047dc:	6039      	str	r1, [r7, #0]
  uint32_t position;
  uint32_t ioposition = 0x00U;
 80047de:	2300      	movs	r3, #0
 80047e0:	617b      	str	r3, [r7, #20]
  uint32_t iocurrent = 0x00U;
 80047e2:	2300      	movs	r3, #0
 80047e4:	613b      	str	r3, [r7, #16]
  uint32_t temp = 0x00U;
 80047e6:	2300      	movs	r3, #0
 80047e8:	61bb      	str	r3, [r7, #24]
  assert_param(IS_GPIO_ALL_INSTANCE(GPIOx));
  assert_param(IS_GPIO_PIN(GPIO_Init->Pin));
  assert_param(IS_GPIO_MODE(GPIO_Init->Mode));

  /* Configure the port pins */
  for(position = 0U; position < GPIO_NUMBER; position++)
 80047ea:	2300      	movs	r3, #0
 80047ec:	61fb      	str	r3, [r7, #28]
 80047ee:	e177      	b.n	8004ae0 <HAL_GPIO_Init+0x30c>
  {
    /* Get the IO position */
    ioposition = 0x01U << position;
 80047f0:	2201      	movs	r2, #1
 80047f2:	69fb      	ldr	r3, [r7, #28]
 80047f4:	fa02 f303 	lsl.w	r3, r2, r3
 80047f8:	617b      	str	r3, [r7, #20]
    /* Get the current IO position */
    iocurrent = (uint32_t)(GPIO_Init->Pin) & ioposition;
 80047fa:	683b      	ldr	r3, [r7, #0]
 80047fc:	681b      	ldr	r3, [r3, #0]
 80047fe:	697a      	ldr	r2, [r7, #20]
 8004800:	4013      	ands	r3, r2
 8004802:	613b      	str	r3, [r7, #16]

    if(iocurrent == ioposition)
 8004804:	693a      	ldr	r2, [r7, #16]
 8004806:	697b      	ldr	r3, [r7, #20]
 8004808:	429a      	cmp	r2, r3
 800480a:	f040 8166 	bne.w	8004ada <HAL_GPIO_Init+0x306>
    {
      /*--------------------- GPIO Mode Configuration ------------------------*/
      /* In case of Output or Alternate function mode selection */
      if(((GPIO_Init->Mode & GPIO_MODE) == MODE_OUTPUT) || \
 800480e:	683b      	ldr	r3, [r7, #0]
 8004810:	685b      	ldr	r3, [r3, #4]
 8004812:	f003 0303 	and.w	r3, r3, #3
 8004816:	2b01      	cmp	r3, #1
 8004818:	d005      	beq.n	8004826 <HAL_GPIO_Init+0x52>
          (GPIO_Init->Mode & GPIO_MODE) == MODE_AF)
 800481a:	683b      	ldr	r3, [r7, #0]
 800481c:	685b      	ldr	r3, [r3, #4]
 800481e:	f003 0303 	and.w	r3, r3, #3
      if(((GPIO_Init->Mode & GPIO_MODE) == MODE_OUTPUT) || \
 8004822:	2b02      	cmp	r3, #2
 8004824:	d130      	bne.n	8004888 <HAL_GPIO_Init+0xb4>
      {
        /* Check the Speed parameter */
        assert_param(IS_GPIO_SPEED(GPIO_Init->Speed));
        /* Configure the IO Speed */
        temp = GPIOx->OSPEEDR; 
 8004826:	687b      	ldr	r3, [r7, #4]
 8004828:	689b      	ldr	r3, [r3, #8]
 800482a:	61bb      	str	r3, [r7, #24]
        temp &= ~(GPIO_OSPEEDER_OSPEEDR0 << (position * 2U));
 800482c:	69fb      	ldr	r3, [r7, #28]
 800482e:	005b      	lsls	r3, r3, #1
 8004830:	2203      	movs	r2, #3
 8004832:	fa02 f303 	lsl.w	r3, r2, r3
 8004836:	43db      	mvns	r3, r3
 8004838:	69ba      	ldr	r2, [r7, #24]
 800483a:	4013      	ands	r3, r2
 800483c:	61bb      	str	r3, [r7, #24]
        temp |= (GPIO_Init->Speed << (position * 2U));
 800483e:	683b      	ldr	r3, [r7, #0]
 8004840:	68da      	ldr	r2, [r3, #12]
 8004842:	69fb      	ldr	r3, [r7, #28]
 8004844:	005b      	lsls	r3, r3, #1
 8004846:	fa02 f303 	lsl.w	r3, r2, r3
 800484a:	69ba      	ldr	r2, [r7, #24]
 800484c:	4313      	orrs	r3, r2
 800484e:	61bb      	str	r3, [r7, #24]
        GPIOx->OSPEEDR = temp;
 8004850:	687b      	ldr	r3, [r7, #4]
 8004852:	69ba      	ldr	r2, [r7, #24]
 8004854:	609a      	str	r2, [r3, #8]

        /* Configure the IO Output Type */
        temp = GPIOx->OTYPER;
 8004856:	687b      	ldr	r3, [r7, #4]
 8004858:	685b      	ldr	r3, [r3, #4]
 800485a:	61bb      	str	r3, [r7, #24]
        temp &= ~(GPIO_OTYPER_OT_0 << position) ;
 800485c:	2201      	movs	r2, #1
 800485e:	69fb      	ldr	r3, [r7, #28]
 8004860:	fa02 f303 	lsl.w	r3, r2, r3
 8004864:	43db      	mvns	r3, r3
 8004866:	69ba      	ldr	r2, [r7, #24]
 8004868:	4013      	ands	r3, r2
 800486a:	61bb      	str	r3, [r7, #24]
        temp |= (((GPIO_Init->Mode & OUTPUT_TYPE) >> OUTPUT_TYPE_Pos) << position);
 800486c:	683b      	ldr	r3, [r7, #0]
 800486e:	685b      	ldr	r3, [r3, #4]
 8004870:	091b      	lsrs	r3, r3, #4
 8004872:	f003 0201 	and.w	r2, r3, #1
 8004876:	69fb      	ldr	r3, [r7, #28]
 8004878:	fa02 f303 	lsl.w	r3, r2, r3
 800487c:	69ba      	ldr	r2, [r7, #24]
 800487e:	4313      	orrs	r3, r2
 8004880:	61bb      	str	r3, [r7, #24]
        GPIOx->OTYPER = temp;
 8004882:	687b      	ldr	r3, [r7, #4]
 8004884:	69ba      	ldr	r2, [r7, #24]
 8004886:	605a      	str	r2, [r3, #4]
       }

      if((GPIO_Init->Mode & GPIO_MODE) != MODE_ANALOG)
 8004888:	683b      	ldr	r3, [r7, #0]
 800488a:	685b      	ldr	r3, [r3, #4]
 800488c:	f003 0303 	and.w	r3, r3, #3
 8004890:	2b03      	cmp	r3, #3
 8004892:	d017      	beq.n	80048c4 <HAL_GPIO_Init+0xf0>
      {
        /* Check the parameters */
        assert_param(IS_GPIO_PULL(GPIO_Init->Pull));
        
        /* Activate the Pull-up or Pull down resistor for the current IO */
        temp = GPIOx->PUPDR;
 8004894:	687b      	ldr	r3, [r7, #4]
 8004896:	68db      	ldr	r3, [r3, #12]
 8004898:	61bb      	str	r3, [r7, #24]
        temp &= ~(GPIO_PUPDR_PUPDR0 << (position * 2U));
 800489a:	69fb      	ldr	r3, [r7, #28]
 800489c:	005b      	lsls	r3, r3, #1
 800489e:	2203      	movs	r2, #3
 80048a0:	fa02 f303 	lsl.w	r3, r2, r3
 80048a4:	43db      	mvns	r3, r3
 80048a6:	69ba      	ldr	r2, [r7, #24]
 80048a8:	4013      	ands	r3, r2
 80048aa:	61bb      	str	r3, [r7, #24]
        temp |= ((GPIO_Init->Pull) << (position * 2U));
 80048ac:	683b      	ldr	r3, [r7, #0]
 80048ae:	689a      	ldr	r2, [r3, #8]
 80048b0:	69fb      	ldr	r3, [r7, #28]
 80048b2:	005b      	lsls	r3, r3, #1
 80048b4:	fa02 f303 	lsl.w	r3, r2, r3
 80048b8:	69ba      	ldr	r2, [r7, #24]
 80048ba:	4313      	orrs	r3, r2
 80048bc:	61bb      	str	r3, [r7, #24]
        GPIOx->PUPDR = temp;
 80048be:	687b      	ldr	r3, [r7, #4]
 80048c0:	69ba      	ldr	r2, [r7, #24]
 80048c2:	60da      	str	r2, [r3, #12]
      }

      /* In case of Alternate function mode selection */
      if((GPIO_Init->Mode & GPIO_MODE) == MODE_AF)
 80048c4:	683b      	ldr	r3, [r7, #0]
 80048c6:	685b      	ldr	r3, [r3, #4]
 80048c8:	f003 0303 	and.w	r3, r3, #3
 80048cc:	2b02      	cmp	r3, #2
 80048ce:	d123      	bne.n	8004918 <HAL_GPIO_Init+0x144>
      {
        /* Check the Alternate function parameter */
        assert_param(IS_GPIO_AF(GPIO_Init->Alternate));
        /* Configure Alternate function mapped with the current IO */
        temp = GPIOx->AFR[position >> 3U];
 80048d0:	69fb      	ldr	r3, [r7, #28]
 80048d2:	08da      	lsrs	r2, r3, #3
 80048d4:	687b      	ldr	r3, [r7, #4]
 80048d6:	3208      	adds	r2, #8
 80048d8:	f853 3022 	ldr.w	r3, [r3, r2, lsl #2]
 80048dc:	61bb      	str	r3, [r7, #24]
        temp &= ~(0xFU << ((uint32_t)(position & 0x07U) * 4U)) ;
 80048de:	69fb      	ldr	r3, [r7, #28]
 80048e0:	f003 0307 	and.w	r3, r3, #7
 80048e4:	009b      	lsls	r3, r3, #2
 80048e6:	220f      	movs	r2, #15
 80048e8:	fa02 f303 	lsl.w	r3, r2, r3
 80048ec:	43db      	mvns	r3, r3
 80048ee:	69ba      	ldr	r2, [r7, #24]
 80048f0:	4013      	ands	r3, r2
 80048f2:	61bb      	str	r3, [r7, #24]
        temp |= ((uint32_t)(GPIO_Init->Alternate) << (((uint32_t)position & 0x07U) * 4U));
 80048f4:	683b      	ldr	r3, [r7, #0]
 80048f6:	691a      	ldr	r2, [r3, #16]
 80048f8:	69fb      	ldr	r3, [r7, #28]
 80048fa:	f003 0307 	and.w	r3, r3, #7
 80048fe:	009b      	lsls	r3, r3, #2
 8004900:	fa02 f303 	lsl.w	r3, r2, r3
 8004904:	69ba      	ldr	r2, [r7, #24]
 8004906:	4313      	orrs	r3, r2
 8004908:	61bb      	str	r3, [r7, #24]
        GPIOx->AFR[position >> 3U] = temp;
 800490a:	69fb      	ldr	r3, [r7, #28]
 800490c:	08da      	lsrs	r2, r3, #3
 800490e:	687b      	ldr	r3, [r7, #4]
 8004910:	3208      	adds	r2, #8
 8004912:	69b9      	ldr	r1, [r7, #24]
 8004914:	f843 1022 	str.w	r1, [r3, r2, lsl #2]
      }

      /* Configure IO Direction mode (Input, Output, Alternate or Analog) */
      temp = GPIOx->MODER;
 8004918:	687b      	ldr	r3, [r7, #4]
 800491a:	681b      	ldr	r3, [r3, #0]
 800491c:	61bb      	str	r3, [r7, #24]
      temp &= ~(GPIO_MODER_MODER0 << (position * 2U));
 800491e:	69fb      	ldr	r3, [r7, #28]
 8004920:	005b      	lsls	r3, r3, #1
 8004922:	2203      	movs	r2, #3
 8004924:	fa02 f303 	lsl.w	r3, r2, r3
 8004928:	43db      	mvns	r3, r3
 800492a:	69ba      	ldr	r2, [r7, #24]
 800492c:	4013      	ands	r3, r2
 800492e:	61bb      	str	r3, [r7, #24]
      temp |= ((GPIO_Init->Mode & GPIO_MODE) << (position * 2U));
 8004930:	683b      	ldr	r3, [r7, #0]
 8004932:	685b      	ldr	r3, [r3, #4]
 8004934:	f003 0203 	and.w	r2, r3, #3
 8004938:	69fb      	ldr	r3, [r7, #28]
 800493a:	005b      	lsls	r3, r3, #1
 800493c:	fa02 f303 	lsl.w	r3, r2, r3
 8004940:	69ba      	ldr	r2, [r7, #24]
 8004942:	4313      	orrs	r3, r2
 8004944:	61bb      	str	r3, [r7, #24]
      GPIOx->MODER = temp;
 8004946:	687b      	ldr	r3, [r7, #4]
 8004948:	69ba      	ldr	r2, [r7, #24]
 800494a:	601a      	str	r2, [r3, #0]

      /*--------------------- EXTI Mode Configuration ------------------------*/
      /* Configure the External Interrupt or event for the current IO */
      if((GPIO_Init->Mode & EXTI_MODE) != 0x00U)
 800494c:	683b      	ldr	r3, [r7, #0]
 800494e:	685b      	ldr	r3, [r3, #4]
 8004950:	f403 3340 	and.w	r3, r3, #196608	@ 0x30000
 8004954:	2b00      	cmp	r3, #0
 8004956:	f000 80c0 	beq.w	8004ada <HAL_GPIO_Init+0x306>
      {
        /* Enable SYSCFG Clock */
        __HAL_RCC_SYSCFG_CLK_ENABLE();
 800495a:	2300      	movs	r3, #0
 800495c:	60fb      	str	r3, [r7, #12]
 800495e:	4b66      	ldr	r3, [pc, #408]	@ (8004af8 <HAL_GPIO_Init+0x324>)
 8004960:	6c5b      	ldr	r3, [r3, #68]	@ 0x44
 8004962:	4a65      	ldr	r2, [pc, #404]	@ (8004af8 <HAL_GPIO_Init+0x324>)
 8004964:	f443 4380 	orr.w	r3, r3, #16384	@ 0x4000
 8004968:	6453      	str	r3, [r2, #68]	@ 0x44
 800496a:	4b63      	ldr	r3, [pc, #396]	@ (8004af8 <HAL_GPIO_Init+0x324>)
 800496c:	6c5b      	ldr	r3, [r3, #68]	@ 0x44
 800496e:	f403 4380 	and.w	r3, r3, #16384	@ 0x4000
 8004972:	60fb      	str	r3, [r7, #12]
 8004974:	68fb      	ldr	r3, [r7, #12]

        temp = SYSCFG->EXTICR[position >> 2U];
 8004976:	4a61      	ldr	r2, [pc, #388]	@ (8004afc <HAL_GPIO_Init+0x328>)
 8004978:	69fb      	ldr	r3, [r7, #28]
 800497a:	089b      	lsrs	r3, r3, #2
 800497c:	3302      	adds	r3, #2
 800497e:	f852 3023 	ldr.w	r3, [r2, r3, lsl #2]
 8004982:	61bb      	str	r3, [r7, #24]
        temp &= ~(0x0FU << (4U * (position & 0x03U)));
 8004984:	69fb      	ldr	r3, [r7, #28]
 8004986:	f003 0303 	and.w	r3, r3, #3
 800498a:	009b      	lsls	r3, r3, #2
 800498c:	220f      	movs	r2, #15
 800498e:	fa02 f303 	lsl.w	r3, r2, r3
 8004992:	43db      	mvns	r3, r3
 8004994:	69ba      	ldr	r2, [r7, #24]
 8004996:	4013      	ands	r3, r2
 8004998:	61bb      	str	r3, [r7, #24]
        temp |= ((uint32_t)(GPIO_GET_INDEX(GPIOx)) << (4U * (position & 0x03U)));
 800499a:	687b      	ldr	r3, [r7, #4]
 800499c:	4a58      	ldr	r2, [pc, #352]	@ (8004b00 <HAL_GPIO_Init+0x32c>)
 800499e:	4293      	cmp	r3, r2
 80049a0:	d037      	beq.n	8004a12 <HAL_GPIO_Init+0x23e>
 80049a2:	687b      	ldr	r3, [r7, #4]
 80049a4:	4a57      	ldr	r2, [pc, #348]	@ (8004b04 <HAL_GPIO_Init+0x330>)
 80049a6:	4293      	cmp	r3, r2
 80049a8:	d031      	beq.n	8004a0e <HAL_GPIO_Init+0x23a>
 80049aa:	687b      	ldr	r3, [r7, #4]
 80049ac:	4a56      	ldr	r2, [pc, #344]	@ (8004b08 <HAL_GPIO_Init+0x334>)
 80049ae:	4293      	cmp	r3, r2
 80049b0:	d02b      	beq.n	8004a0a <HAL_GPIO_Init+0x236>
 80049b2:	687b      	ldr	r3, [r7, #4]
 80049b4:	4a55      	ldr	r2, [pc, #340]	@ (8004b0c <HAL_GPIO_Init+0x338>)
 80049b6:	4293      	cmp	r3, r2
 80049b8:	d025      	beq.n	8004a06 <HAL_GPIO_Init+0x232>
 80049ba:	687b      	ldr	r3, [r7, #4]
 80049bc:	4a54      	ldr	r2, [pc, #336]	@ (8004b10 <HAL_GPIO_Init+0x33c>)
 80049be:	4293      	cmp	r3, r2
 80049c0:	d01f      	beq.n	8004a02 <HAL_GPIO_Init+0x22e>
 80049c2:	687b      	ldr	r3, [r7, #4]
 80049c4:	4a53      	ldr	r2, [pc, #332]	@ (8004b14 <HAL_GPIO_Init+0x340>)
 80049c6:	4293      	cmp	r3, r2
 80049c8:	d019      	beq.n	80049fe <HAL_GPIO_Init+0x22a>
 80049ca:	687b      	ldr	r3, [r7, #4]
 80049cc:	4a52      	ldr	r2, [pc, #328]	@ (8004b18 <HAL_GPIO_Init+0x344>)
 80049ce:	4293      	cmp	r3, r2
 80049d0:	d013      	beq.n	80049fa <HAL_GPIO_Init+0x226>
 80049d2:	687b      	ldr	r3, [r7, #4]
 80049d4:	4a51      	ldr	r2, [pc, #324]	@ (8004b1c <HAL_GPIO_Init+0x348>)
 80049d6:	4293      	cmp	r3, r2
 80049d8:	d00d      	beq.n	80049f6 <HAL_GPIO_Init+0x222>
 80049da:	687b      	ldr	r3, [r7, #4]
 80049dc:	4a50      	ldr	r2, [pc, #320]	@ (8004b20 <HAL_GPIO_Init+0x34c>)
 80049de:	4293      	cmp	r3, r2
 80049e0:	d007      	beq.n	80049f2 <HAL_GPIO_Init+0x21e>
 80049e2:	687b      	ldr	r3, [r7, #4]
 80049e4:	4a4f      	ldr	r2, [pc, #316]	@ (8004b24 <HAL_GPIO_Init+0x350>)
 80049e6:	4293      	cmp	r3, r2
 80049e8:	d101      	bne.n	80049ee <HAL_GPIO_Init+0x21a>
 80049ea:	2309      	movs	r3, #9
 80049ec:	e012      	b.n	8004a14 <HAL_GPIO_Init+0x240>
 80049ee:	230a      	movs	r3, #10
 80049f0:	e010      	b.n	8004a14 <HAL_GPIO_Init+0x240>
 80049f2:	2308      	movs	r3, #8
 80049f4:	e00e      	b.n	8004a14 <HAL_GPIO_Init+0x240>
 80049f6:	2307      	movs	r3, #7
 80049f8:	e00c      	b.n	8004a14 <HAL_GPIO_Init+0x240>
 80049fa:	2306      	movs	r3, #6
 80049fc:	e00a      	b.n	8004a14 <HAL_GPIO_Init+0x240>
 80049fe:	2305      	movs	r3, #5
 8004a00:	e008      	b.n	8004a14 <HAL_GPIO_Init+0x240>
 8004a02:	2304      	movs	r3, #4
 8004a04:	e006      	b.n	8004a14 <HAL_GPIO_Init+0x240>
 8004a06:	2303      	movs	r3, #3
 8004a08:	e004      	b.n	8004a14 <HAL_GPIO_Init+0x240>
 8004a0a:	2302      	movs	r3, #2
 8004a0c:	e002      	b.n	8004a14 <HAL_GPIO_Init+0x240>
 8004a0e:	2301      	movs	r3, #1
 8004a10:	e000      	b.n	8004a14 <HAL_GPIO_Init+0x240>
 8004a12:	2300      	movs	r3, #0
 8004a14:	69fa      	ldr	r2, [r7, #28]
 8004a16:	f002 0203 	and.w	r2, r2, #3
 8004a1a:	0092      	lsls	r2, r2, #2
 8004a1c:	4093      	lsls	r3, r2
 8004a1e:	69ba      	ldr	r2, [r7, #24]
 8004a20:	4313      	orrs	r3, r2
 8004a22:	61bb      	str	r3, [r7, #24]
        SYSCFG->EXTICR[position >> 2U] = temp;
 8004a24:	4935      	ldr	r1, [pc, #212]	@ (8004afc <HAL_GPIO_Init+0x328>)
 8004a26:	69fb      	ldr	r3, [r7, #28]
 8004a28:	089b      	lsrs	r3, r3, #2
 8004a2a:	3302      	adds	r3, #2
 8004a2c:	69ba      	ldr	r2, [r7, #24]
 8004a2e:	f841 2023 	str.w	r2, [r1, r3, lsl #2]

        /* Clear Rising Falling edge configuration */
        temp = EXTI->RTSR;
 8004a32:	4b3d      	ldr	r3, [pc, #244]	@ (8004b28 <HAL_GPIO_Init+0x354>)
 8004a34:	689b      	ldr	r3, [r3, #8]
 8004a36:	61bb      	str	r3, [r7, #24]
        temp &= ~((uint32_t)iocurrent);
 8004a38:	693b      	ldr	r3, [r7, #16]
 8004a3a:	43db      	mvns	r3, r3
 8004a3c:	69ba      	ldr	r2, [r7, #24]
 8004a3e:	4013      	ands	r3, r2
 8004a40:	61bb      	str	r3, [r7, #24]
        if((GPIO_Init->Mode & TRIGGER_RISING) != 0x00U)
 8004a42:	683b      	ldr	r3, [r7, #0]
 8004a44:	685b      	ldr	r3, [r3, #4]
 8004a46:	f403 1380 	and.w	r3, r3, #1048576	@ 0x100000
 8004a4a:	2b00      	cmp	r3, #0
 8004a4c:	d003      	beq.n	8004a56 <HAL_GPIO_Init+0x282>
        {
          temp |= iocurrent;
 8004a4e:	69ba      	ldr	r2, [r7, #24]
 8004a50:	693b      	ldr	r3, [r7, #16]
 8004a52:	4313      	orrs	r3, r2
 8004a54:	61bb      	str	r3, [r7, #24]
        }
        EXTI->RTSR = temp;
 8004a56:	4a34      	ldr	r2, [pc, #208]	@ (8004b28 <HAL_GPIO_Init+0x354>)
 8004a58:	69bb      	ldr	r3, [r7, #24]
 8004a5a:	6093      	str	r3, [r2, #8]

        temp = EXTI->FTSR;
 8004a5c:	4b32      	ldr	r3, [pc, #200]	@ (8004b28 <HAL_GPIO_Init+0x354>)
 8004a5e:	68db      	ldr	r3, [r3, #12]
 8004a60:	61bb      	str	r3, [r7, #24]
        temp &= ~((uint32_t)iocurrent);
 8004a62:	693b      	ldr	r3, [r7, #16]
 8004a64:	43db      	mvns	r3, r3
 8004a66:	69ba      	ldr	r2, [r7, #24]
 8004a68:	4013      	ands	r3, r2
 8004a6a:	61bb      	str	r3, [r7, #24]
        if((GPIO_Init->Mode & TRIGGER_FALLING) != 0x00U)
 8004a6c:	683b      	ldr	r3, [r7, #0]
 8004a6e:	685b      	ldr	r3, [r3, #4]
 8004a70:	f403 1300 	and.w	r3, r3, #2097152	@ 0x200000
 8004a74:	2b00      	cmp	r3, #0
 8004a76:	d003      	beq.n	8004a80 <HAL_GPIO_Init+0x2ac>
        {
          temp |= iocurrent;
 8004a78:	69ba      	ldr	r2, [r7, #24]
 8004a7a:	693b      	ldr	r3, [r7, #16]
 8004a7c:	4313      	orrs	r3, r2
 8004a7e:	61bb      	str	r3, [r7, #24]
        }
        EXTI->FTSR = temp;
 8004a80:	4a29      	ldr	r2, [pc, #164]	@ (8004b28 <HAL_GPIO_Init+0x354>)
 8004a82:	69bb      	ldr	r3, [r7, #24]
 8004a84:	60d3      	str	r3, [r2, #12]

        temp = EXTI->EMR;
 8004a86:	4b28      	ldr	r3, [pc, #160]	@ (8004b28 <HAL_GPIO_Init+0x354>)
 8004a88:	685b      	ldr	r3, [r3, #4]
 8004a8a:	61bb      	str	r3, [r7, #24]
        temp &= ~((uint32_t)iocurrent);
 8004a8c:	693b      	ldr	r3, [r7, #16]
 8004a8e:	43db      	mvns	r3, r3
 8004a90:	69ba      	ldr	r2, [r7, #24]
 8004a92:	4013      	ands	r3, r2
 8004a94:	61bb      	str	r3, [r7, #24]
        if((GPIO_Init->Mode & EXTI_EVT) != 0x00U)
 8004a96:	683b      	ldr	r3, [r7, #0]
 8004a98:	685b      	ldr	r3, [r3, #4]
 8004a9a:	f403 3300 	and.w	r3, r3, #131072	@ 0x20000
 8004a9e:	2b00      	cmp	r3, #0
 8004aa0:	d003      	beq.n	8004aaa <HAL_GPIO_Init+0x2d6>
        {
          temp |= iocurrent;
 8004aa2:	69ba      	ldr	r2, [r7, #24]
 8004aa4:	693b      	ldr	r3, [r7, #16]
 8004aa6:	4313      	orrs	r3, r2
 8004aa8:	61bb      	str	r3, [r7, #24]
        }
        EXTI->EMR = temp;
 8004aaa:	4a1f      	ldr	r2, [pc, #124]	@ (8004b28 <HAL_GPIO_Init+0x354>)
 8004aac:	69bb      	ldr	r3, [r7, #24]
 8004aae:	6053      	str	r3, [r2, #4]

        /* Clear EXTI line configuration */
        temp = EXTI->IMR;
 8004ab0:	4b1d      	ldr	r3, [pc, #116]	@ (8004b28 <HAL_GPIO_Init+0x354>)
 8004ab2:	681b      	ldr	r3, [r3, #0]
 8004ab4:	61bb      	str	r3, [r7, #24]
        temp &= ~((uint32_t)iocurrent);
 8004ab6:	693b      	ldr	r3, [r7, #16]
 8004ab8:	43db      	mvns	r3, r3
 8004aba:	69ba      	ldr	r2, [r7, #24]
 8004abc:	4013      	ands	r3, r2
 8004abe:	61bb      	str	r3, [r7, #24]
        if((GPIO_Init->Mode & EXTI_IT) != 0x00U)
 8004ac0:	683b      	ldr	r3, [r7, #0]
 8004ac2:	685b      	ldr	r3, [r3, #4]
 8004ac4:	f403 3380 	and.w	r3, r3, #65536	@ 0x10000
 8004ac8:	2b00      	cmp	r3, #0
 8004aca:	d003      	beq.n	8004ad4 <HAL_GPIO_Init+0x300>
        {
          temp |= iocurrent;
 8004acc:	69ba      	ldr	r2, [r7, #24]
 8004ace:	693b      	ldr	r3, [r7, #16]
 8004ad0:	4313      	orrs	r3, r2
 8004ad2:	61bb      	str	r3, [r7, #24]
        }
        EXTI->IMR = temp;
 8004ad4:	4a14      	ldr	r2, [pc, #80]	@ (8004b28 <HAL_GPIO_Init+0x354>)
 8004ad6:	69bb      	ldr	r3, [r7, #24]
 8004ad8:	6013      	str	r3, [r2, #0]
  for(position = 0U; position < GPIO_NUMBER; position++)
 8004ada:	69fb      	ldr	r3, [r7, #28]
 8004adc:	3301      	adds	r3, #1
 8004ade:	61fb      	str	r3, [r7, #28]
 8004ae0:	69fb      	ldr	r3, [r7, #28]
 8004ae2:	2b0f      	cmp	r3, #15
 8004ae4:	f67f ae84 	bls.w	80047f0 <HAL_GPIO_Init+0x1c>
      }
    }
  }
}
 8004ae8:	bf00      	nop
 8004aea:	bf00      	nop
 8004aec:	3724      	adds	r7, #36	@ 0x24
 8004aee:	46bd      	mov	sp, r7
 8004af0:	f85d 7b04 	ldr.w	r7, [sp], #4
 8004af4:	4770      	bx	lr
 8004af6:	bf00      	nop
 8004af8:	40023800 	.word	0x40023800
 8004afc:	40013800 	.word	0x40013800
 8004b00:	40020000 	.word	0x40020000
 8004b04:	40020400 	.word	0x40020400
 8004b08:	40020800 	.word	0x40020800
 8004b0c:	40020c00 	.word	0x40020c00
 8004b10:	40021000 	.word	0x40021000
 8004b14:	40021400 	.word	0x40021400
 8004b18:	40021800 	.word	0x40021800
 8004b1c:	40021c00 	.word	0x40021c00
 8004b20:	40022000 	.word	0x40022000
 8004b24:	40022400 	.word	0x40022400
 8004b28:	40013c00 	.word	0x40013c00

08004b2c <HAL_GPIO_WritePin>:
  *            @arg GPIO_PIN_RESET: to clear the port pin
  *            @arg GPIO_PIN_SET: to set the port pin
  * @retval None
  */
void HAL_GPIO_WritePin(GPIO_TypeDef* GPIOx, uint16_t GPIO_Pin, GPIO_PinState PinState)
{
 8004b2c:	b480      	push	{r7}
 8004b2e:	b083      	sub	sp, #12
 8004b30:	af00      	add	r7, sp, #0
 8004b32:	6078      	str	r0, [r7, #4]
 8004b34:	460b      	mov	r3, r1
 8004b36:	807b      	strh	r3, [r7, #2]
 8004b38:	4613      	mov	r3, r2
 8004b3a:	707b      	strb	r3, [r7, #1]
  /* Check the parameters */
  assert_param(IS_GPIO_PIN(GPIO_Pin));
  assert_param(IS_GPIO_PIN_ACTION(PinState));

  if(PinState != GPIO_PIN_RESET)
 8004b3c:	787b      	ldrb	r3, [r7, #1]
 8004b3e:	2b00      	cmp	r3, #0
 8004b40:	d003      	beq.n	8004b4a <HAL_GPIO_WritePin+0x1e>
  {
    GPIOx->BSRR = GPIO_Pin;
 8004b42:	887a      	ldrh	r2, [r7, #2]
 8004b44:	687b      	ldr	r3, [r7, #4]
 8004b46:	619a      	str	r2, [r3, #24]
  }
  else
  {
    GPIOx->BSRR = (uint32_t)GPIO_Pin << 16U;
  }
}
 8004b48:	e003      	b.n	8004b52 <HAL_GPIO_WritePin+0x26>
    GPIOx->BSRR = (uint32_t)GPIO_Pin << 16U;
 8004b4a:	887b      	ldrh	r3, [r7, #2]
 8004b4c:	041a      	lsls	r2, r3, #16
 8004b4e:	687b      	ldr	r3, [r7, #4]
 8004b50:	619a      	str	r2, [r3, #24]
}
 8004b52:	bf00      	nop
 8004b54:	370c      	adds	r7, #12
 8004b56:	46bd      	mov	sp, r7
 8004b58:	f85d 7b04 	ldr.w	r7, [sp], #4
 8004b5c:	4770      	bx	lr
	...

08004b60 <HAL_I2C_Init>:
  * @param  hi2c Pointer to a I2C_HandleTypeDef structure that contains
  *                the configuration information for the specified I2C.
  * @retval HAL status
  */
HAL_StatusTypeDef HAL_I2C_Init(I2C_HandleTypeDef *hi2c)
{
 8004b60:	b580      	push	{r7, lr}
 8004b62:	b084      	sub	sp, #16
 8004b64:	af00      	add	r7, sp, #0
 8004b66:	6078      	str	r0, [r7, #4]
  uint32_t freqrange;
  uint32_t pclk1;

  /* Check the I2C handle allocation */
  if (hi2c == NULL)
 8004b68:	687b      	ldr	r3, [r7, #4]
 8004b6a:	2b00      	cmp	r3, #0
 8004b6c:	d101      	bne.n	8004b72 <HAL_I2C_Init+0x12>
  {
    return HAL_ERROR;
 8004b6e:	2301      	movs	r3, #1
 8004b70:	e12b      	b.n	8004dca <HAL_I2C_Init+0x26a>
  assert_param(IS_I2C_DUAL_ADDRESS(hi2c->Init.DualAddressMode));
  assert_param(IS_I2C_OWN_ADDRESS2(hi2c->Init.OwnAddress2));
  assert_param(IS_I2C_GENERAL_CALL(hi2c->Init.GeneralCallMode));
  assert_param(IS_I2C_NO_STRETCH(hi2c->Init.NoStretchMode));

  if (hi2c->State == HAL_I2C_STATE_RESET)
 8004b72:	687b      	ldr	r3, [r7, #4]
 8004b74:	f893 303d 	ldrb.w	r3, [r3, #61]	@ 0x3d
 8004b78:	b2db      	uxtb	r3, r3
 8004b7a:	2b00      	cmp	r3, #0
 8004b7c:	d106      	bne.n	8004b8c <HAL_I2C_Init+0x2c>
  {
    /* Allocate lock resource and initialize it */
    hi2c->Lock = HAL_UNLOCKED;
 8004b7e:	687b      	ldr	r3, [r7, #4]
 8004b80:	2200      	movs	r2, #0
 8004b82:	f883 203c 	strb.w	r2, [r3, #60]	@ 0x3c

    /* Init the low level hardware : GPIO, CLOCK, NVIC */
    hi2c->MspInitCallback(hi2c);
#else
    /* Init the low level hardware : GPIO, CLOCK, NVIC */
    HAL_I2C_MspInit(hi2c);
 8004b86:	6878      	ldr	r0, [r7, #4]
 8004b88:	f7ff fb0c 	bl	80041a4 <HAL_I2C_MspInit>
#endif /* USE_HAL_I2C_REGISTER_CALLBACKS */
  }

  hi2c->State = HAL_I2C_STATE_BUSY;
 8004b8c:	687b      	ldr	r3, [r7, #4]
 8004b8e:	2224      	movs	r2, #36	@ 0x24
 8004b90:	f883 203d 	strb.w	r2, [r3, #61]	@ 0x3d

  /* Disable the selected I2C peripheral */
  __HAL_I2C_DISABLE(hi2c);
 8004b94:	687b      	ldr	r3, [r7, #4]
 8004b96:	681b      	ldr	r3, [r3, #0]
 8004b98:	681a      	ldr	r2, [r3, #0]
 8004b9a:	687b      	ldr	r3, [r7, #4]
 8004b9c:	681b      	ldr	r3, [r3, #0]
 8004b9e:	f022 0201 	bic.w	r2, r2, #1
 8004ba2:	601a      	str	r2, [r3, #0]

  /*Reset I2C*/
  hi2c->Instance->CR1 |= I2C_CR1_SWRST;
 8004ba4:	687b      	ldr	r3, [r7, #4]
 8004ba6:	681b      	ldr	r3, [r3, #0]
 8004ba8:	681a      	ldr	r2, [r3, #0]
 8004baa:	687b      	ldr	r3, [r7, #4]
 8004bac:	681b      	ldr	r3, [r3, #0]
 8004bae:	f442 4200 	orr.w	r2, r2, #32768	@ 0x8000
 8004bb2:	601a      	str	r2, [r3, #0]
  hi2c->Instance->CR1 &= ~I2C_CR1_SWRST;
 8004bb4:	687b      	ldr	r3, [r7, #4]
 8004bb6:	681b      	ldr	r3, [r3, #0]
 8004bb8:	681a      	ldr	r2, [r3, #0]
 8004bba:	687b      	ldr	r3, [r7, #4]
 8004bbc:	681b      	ldr	r3, [r3, #0]
 8004bbe:	f422 4200 	bic.w	r2, r2, #32768	@ 0x8000
 8004bc2:	601a      	str	r2, [r3, #0]

  /* Get PCLK1 frequency */
  pclk1 = HAL_RCC_GetPCLK1Freq();
 8004bc4:	f001 fcec 	bl	80065a0 <HAL_RCC_GetPCLK1Freq>
 8004bc8:	60f8      	str	r0, [r7, #12]

  /* Check the minimum allowed PCLK1 frequency */
  if (I2C_MIN_PCLK_FREQ(pclk1, hi2c->Init.ClockSpeed) == 1U)
 8004bca:	687b      	ldr	r3, [r7, #4]
 8004bcc:	685b      	ldr	r3, [r3, #4]
 8004bce:	4a81      	ldr	r2, [pc, #516]	@ (8004dd4 <HAL_I2C_Init+0x274>)
 8004bd0:	4293      	cmp	r3, r2
 8004bd2:	d807      	bhi.n	8004be4 <HAL_I2C_Init+0x84>
 8004bd4:	68fb      	ldr	r3, [r7, #12]
 8004bd6:	4a80      	ldr	r2, [pc, #512]	@ (8004dd8 <HAL_I2C_Init+0x278>)
 8004bd8:	4293      	cmp	r3, r2
 8004bda:	bf94      	ite	ls
 8004bdc:	2301      	movls	r3, #1
 8004bde:	2300      	movhi	r3, #0
 8004be0:	b2db      	uxtb	r3, r3
 8004be2:	e006      	b.n	8004bf2 <HAL_I2C_Init+0x92>
 8004be4:	68fb      	ldr	r3, [r7, #12]
 8004be6:	4a7d      	ldr	r2, [pc, #500]	@ (8004ddc <HAL_I2C_Init+0x27c>)
 8004be8:	4293      	cmp	r3, r2
 8004bea:	bf94      	ite	ls
 8004bec:	2301      	movls	r3, #1
 8004bee:	2300      	movhi	r3, #0
 8004bf0:	b2db      	uxtb	r3, r3
 8004bf2:	2b00      	cmp	r3, #0
 8004bf4:	d001      	beq.n	8004bfa <HAL_I2C_Init+0x9a>
  {
    return HAL_ERROR;
 8004bf6:	2301      	movs	r3, #1
 8004bf8:	e0e7      	b.n	8004dca <HAL_I2C_Init+0x26a>
  }

  /* Calculate frequency range */
  freqrange = I2C_FREQRANGE(pclk1);
 8004bfa:	68fb      	ldr	r3, [r7, #12]
 8004bfc:	4a78      	ldr	r2, [pc, #480]	@ (8004de0 <HAL_I2C_Init+0x280>)
 8004bfe:	fba2 2303 	umull	r2, r3, r2, r3
 8004c02:	0c9b      	lsrs	r3, r3, #18
 8004c04:	60bb      	str	r3, [r7, #8]

  /*---------------------------- I2Cx CR2 Configuration ----------------------*/
  /* Configure I2Cx: Frequency range */
  MODIFY_REG(hi2c->Instance->CR2, I2C_CR2_FREQ, freqrange);
 8004c06:	687b      	ldr	r3, [r7, #4]
 8004c08:	681b      	ldr	r3, [r3, #0]
 8004c0a:	685b      	ldr	r3, [r3, #4]
 8004c0c:	f023 013f 	bic.w	r1, r3, #63	@ 0x3f
 8004c10:	687b      	ldr	r3, [r7, #4]
 8004c12:	681b      	ldr	r3, [r3, #0]
 8004c14:	68ba      	ldr	r2, [r7, #8]
 8004c16:	430a      	orrs	r2, r1
 8004c18:	605a      	str	r2, [r3, #4]

  /*---------------------------- I2Cx TRISE Configuration --------------------*/
  /* Configure I2Cx: Rise Time */
  MODIFY_REG(hi2c->Instance->TRISE, I2C_TRISE_TRISE, I2C_RISE_TIME(freqrange, hi2c->Init.ClockSpeed));
 8004c1a:	687b      	ldr	r3, [r7, #4]
 8004c1c:	681b      	ldr	r3, [r3, #0]
 8004c1e:	6a1b      	ldr	r3, [r3, #32]
 8004c20:	f023 013f 	bic.w	r1, r3, #63	@ 0x3f
 8004c24:	687b      	ldr	r3, [r7, #4]
 8004c26:	685b      	ldr	r3, [r3, #4]
 8004c28:	4a6a      	ldr	r2, [pc, #424]	@ (8004dd4 <HAL_I2C_Init+0x274>)
 8004c2a:	4293      	cmp	r3, r2
 8004c2c:	d802      	bhi.n	8004c34 <HAL_I2C_Init+0xd4>
 8004c2e:	68bb      	ldr	r3, [r7, #8]
 8004c30:	3301      	adds	r3, #1
 8004c32:	e009      	b.n	8004c48 <HAL_I2C_Init+0xe8>
 8004c34:	68bb      	ldr	r3, [r7, #8]
 8004c36:	f44f 7296 	mov.w	r2, #300	@ 0x12c
 8004c3a:	fb02 f303 	mul.w	r3, r2, r3
 8004c3e:	4a69      	ldr	r2, [pc, #420]	@ (8004de4 <HAL_I2C_Init+0x284>)
 8004c40:	fba2 2303 	umull	r2, r3, r2, r3
 8004c44:	099b      	lsrs	r3, r3, #6
 8004c46:	3301      	adds	r3, #1
 8004c48:	687a      	ldr	r2, [r7, #4]
 8004c4a:	6812      	ldr	r2, [r2, #0]
 8004c4c:	430b      	orrs	r3, r1
 8004c4e:	6213      	str	r3, [r2, #32]

  /*---------------------------- I2Cx CCR Configuration ----------------------*/
  /* Configure I2Cx: Speed */
  MODIFY_REG(hi2c->Instance->CCR, (I2C_CCR_FS | I2C_CCR_DUTY | I2C_CCR_CCR), I2C_SPEED(pclk1, hi2c->Init.ClockSpeed, hi2c->Init.DutyCycle));
 8004c50:	687b      	ldr	r3, [r7, #4]
 8004c52:	681b      	ldr	r3, [r3, #0]
 8004c54:	69db      	ldr	r3, [r3, #28]
 8004c56:	f423 424f 	bic.w	r2, r3, #52992	@ 0xcf00
 8004c5a:	f022 02ff 	bic.w	r2, r2, #255	@ 0xff
 8004c5e:	687b      	ldr	r3, [r7, #4]
 8004c60:	685b      	ldr	r3, [r3, #4]
 8004c62:	495c      	ldr	r1, [pc, #368]	@ (8004dd4 <HAL_I2C_Init+0x274>)
 8004c64:	428b      	cmp	r3, r1
 8004c66:	d819      	bhi.n	8004c9c <HAL_I2C_Init+0x13c>
 8004c68:	68fb      	ldr	r3, [r7, #12]
 8004c6a:	1e59      	subs	r1, r3, #1
 8004c6c:	687b      	ldr	r3, [r7, #4]
 8004c6e:	685b      	ldr	r3, [r3, #4]
 8004c70:	005b      	lsls	r3, r3, #1
 8004c72:	fbb1 f3f3 	udiv	r3, r1, r3
 8004c76:	1c59      	adds	r1, r3, #1
 8004c78:	f640 73fc 	movw	r3, #4092	@ 0xffc
 8004c7c:	400b      	ands	r3, r1
 8004c7e:	2b00      	cmp	r3, #0
 8004c80:	d00a      	beq.n	8004c98 <HAL_I2C_Init+0x138>
 8004c82:	68fb      	ldr	r3, [r7, #12]
 8004c84:	1e59      	subs	r1, r3, #1
 8004c86:	687b      	ldr	r3, [r7, #4]
 8004c88:	685b      	ldr	r3, [r3, #4]
 8004c8a:	005b      	lsls	r3, r3, #1
 8004c8c:	fbb1 f3f3 	udiv	r3, r1, r3
 8004c90:	3301      	adds	r3, #1
 8004c92:	f3c3 030b 	ubfx	r3, r3, #0, #12
 8004c96:	e051      	b.n	8004d3c <HAL_I2C_Init+0x1dc>
 8004c98:	2304      	movs	r3, #4
 8004c9a:	e04f      	b.n	8004d3c <HAL_I2C_Init+0x1dc>
 8004c9c:	687b      	ldr	r3, [r7, #4]
 8004c9e:	689b      	ldr	r3, [r3, #8]
 8004ca0:	2b00      	cmp	r3, #0
 8004ca2:	d111      	bne.n	8004cc8 <HAL_I2C_Init+0x168>
 8004ca4:	68fb      	ldr	r3, [r7, #12]
 8004ca6:	1e58      	subs	r0, r3, #1
 8004ca8:	687b      	ldr	r3, [r7, #4]
 8004caa:	6859      	ldr	r1, [r3, #4]
 8004cac:	460b      	mov	r3, r1
 8004cae:	005b      	lsls	r3, r3, #1
 8004cb0:	440b      	add	r3, r1
 8004cb2:	fbb0 f3f3 	udiv	r3, r0, r3
 8004cb6:	3301      	adds	r3, #1
 8004cb8:	f3c3 030b 	ubfx	r3, r3, #0, #12
 8004cbc:	2b00      	cmp	r3, #0
 8004cbe:	bf0c      	ite	eq
 8004cc0:	2301      	moveq	r3, #1
 8004cc2:	2300      	movne	r3, #0
 8004cc4:	b2db      	uxtb	r3, r3
 8004cc6:	e012      	b.n	8004cee <HAL_I2C_Init+0x18e>
 8004cc8:	68fb      	ldr	r3, [r7, #12]
 8004cca:	1e58      	subs	r0, r3, #1
 8004ccc:	687b      	ldr	r3, [r7, #4]
 8004cce:	6859      	ldr	r1, [r3, #4]
 8004cd0:	460b      	mov	r3, r1
 8004cd2:	009b      	lsls	r3, r3, #2
 8004cd4:	440b      	add	r3, r1
 8004cd6:	0099      	lsls	r1, r3, #2
 8004cd8:	440b      	add	r3, r1
 8004cda:	fbb0 f3f3 	udiv	r3, r0, r3
 8004cde:	3301      	adds	r3, #1
 8004ce0:	f3c3 030b 	ubfx	r3, r3, #0, #12
 8004ce4:	2b00      	cmp	r3, #0
 8004ce6:	bf0c      	ite	eq
 8004ce8:	2301      	moveq	r3, #1
 8004cea:	2300      	movne	r3, #0
 8004cec:	b2db      	uxtb	r3, r3
 8004cee:	2b00      	cmp	r3, #0
 8004cf0:	d001      	beq.n	8004cf6 <HAL_I2C_Init+0x196>
 8004cf2:	2301      	movs	r3, #1
 8004cf4:	e022      	b.n	8004d3c <HAL_I2C_Init+0x1dc>
 8004cf6:	687b      	ldr	r3, [r7, #4]
 8004cf8:	689b      	ldr	r3, [r3, #8]
 8004cfa:	2b00      	cmp	r3, #0
 8004cfc:	d10e      	bne.n	8004d1c <HAL_I2C_Init+0x1bc>
 8004cfe:	68fb      	ldr	r3, [r7, #12]
 8004d00:	1e58      	subs	r0, r3, #1
 8004d02:	687b      	ldr	r3, [r7, #4]
 8004d04:	6859      	ldr	r1, [r3, #4]
 8004d06:	460b      	mov	r3, r1
 8004d08:	005b      	lsls	r3, r3, #1
 8004d0a:	440b      	add	r3, r1
 8004d0c:	fbb0 f3f3 	udiv	r3, r0, r3
 8004d10:	3301      	adds	r3, #1
 8004d12:	f3c3 030b 	ubfx	r3, r3, #0, #12
 8004d16:	f443 4300 	orr.w	r3, r3, #32768	@ 0x8000
 8004d1a:	e00f      	b.n	8004d3c <HAL_I2C_Init+0x1dc>
 8004d1c:	68fb      	ldr	r3, [r7, #12]
 8004d1e:	1e58      	subs	r0, r3, #1
 8004d20:	687b      	ldr	r3, [r7, #4]
 8004d22:	6859      	ldr	r1, [r3, #4]
 8004d24:	460b      	mov	r3, r1
 8004d26:	009b      	lsls	r3, r3, #2
 8004d28:	440b      	add	r3, r1
 8004d2a:	0099      	lsls	r1, r3, #2
 8004d2c:	440b      	add	r3, r1
 8004d2e:	fbb0 f3f3 	udiv	r3, r0, r3
 8004d32:	3301      	adds	r3, #1
 8004d34:	f3c3 030b 	ubfx	r3, r3, #0, #12
 8004d38:	f443 4340 	orr.w	r3, r3, #49152	@ 0xc000
 8004d3c:	6879      	ldr	r1, [r7, #4]
 8004d3e:	6809      	ldr	r1, [r1, #0]
 8004d40:	4313      	orrs	r3, r2
 8004d42:	61cb      	str	r3, [r1, #28]

  /*---------------------------- I2Cx CR1 Configuration ----------------------*/
  /* Configure I2Cx: Generalcall and NoStretch mode */
  MODIFY_REG(hi2c->Instance->CR1, (I2C_CR1_ENGC | I2C_CR1_NOSTRETCH), (hi2c->Init.GeneralCallMode | hi2c->Init.NoStretchMode));
 8004d44:	687b      	ldr	r3, [r7, #4]
 8004d46:	681b      	ldr	r3, [r3, #0]
 8004d48:	681b      	ldr	r3, [r3, #0]
 8004d4a:	f023 01c0 	bic.w	r1, r3, #192	@ 0xc0
 8004d4e:	687b      	ldr	r3, [r7, #4]
 8004d50:	69da      	ldr	r2, [r3, #28]
 8004d52:	687b      	ldr	r3, [r7, #4]
 8004d54:	6a1b      	ldr	r3, [r3, #32]
 8004d56:	431a      	orrs	r2, r3
 8004d58:	687b      	ldr	r3, [r7, #4]
 8004d5a:	681b      	ldr	r3, [r3, #0]
 8004d5c:	430a      	orrs	r2, r1
 8004d5e:	601a      	str	r2, [r3, #0]

  /*---------------------------- I2Cx OAR1 Configuration ---------------------*/
  /* Configure I2Cx: Own Address1 and addressing mode */
  MODIFY_REG(hi2c->Instance->OAR1, (I2C_OAR1_ADDMODE | I2C_OAR1_ADD8_9 | I2C_OAR1_ADD1_7 | I2C_OAR1_ADD0), (hi2c->Init.AddressingMode | hi2c->Init.OwnAddress1));
 8004d60:	687b      	ldr	r3, [r7, #4]
 8004d62:	681b      	ldr	r3, [r3, #0]
 8004d64:	689b      	ldr	r3, [r3, #8]
 8004d66:	f423 4303 	bic.w	r3, r3, #33536	@ 0x8300
 8004d6a:	f023 03ff 	bic.w	r3, r3, #255	@ 0xff
 8004d6e:	687a      	ldr	r2, [r7, #4]
 8004d70:	6911      	ldr	r1, [r2, #16]
 8004d72:	687a      	ldr	r2, [r7, #4]
 8004d74:	68d2      	ldr	r2, [r2, #12]
 8004d76:	4311      	orrs	r1, r2
 8004d78:	687a      	ldr	r2, [r7, #4]
 8004d7a:	6812      	ldr	r2, [r2, #0]
 8004d7c:	430b      	orrs	r3, r1
 8004d7e:	6093      	str	r3, [r2, #8]

  /*---------------------------- I2Cx OAR2 Configuration ---------------------*/
  /* Configure I2Cx: Dual mode and Own Address2 */
  MODIFY_REG(hi2c->Instance->OAR2, (I2C_OAR2_ENDUAL | I2C_OAR2_ADD2), (hi2c->Init.DualAddressMode | hi2c->Init.OwnAddress2));
 8004d80:	687b      	ldr	r3, [r7, #4]
 8004d82:	681b      	ldr	r3, [r3, #0]
 8004d84:	68db      	ldr	r3, [r3, #12]
 8004d86:	f023 01ff 	bic.w	r1, r3, #255	@ 0xff
 8004d8a:	687b      	ldr	r3, [r7, #4]
 8004d8c:	695a      	ldr	r2, [r3, #20]
 8004d8e:	687b      	ldr	r3, [r7, #4]
 8004d90:	699b      	ldr	r3, [r3, #24]
 8004d92:	431a      	orrs	r2, r3
 8004d94:	687b      	ldr	r3, [r7, #4]
 8004d96:	681b      	ldr	r3, [r3, #0]
 8004d98:	430a      	orrs	r2, r1
 8004d9a:	60da      	str	r2, [r3, #12]

  /* Enable the selected I2C peripheral */
  __HAL_I2C_ENABLE(hi2c);
 8004d9c:	687b      	ldr	r3, [r7, #4]
 8004d9e:	681b      	ldr	r3, [r3, #0]
 8004da0:	681a      	ldr	r2, [r3, #0]
 8004da2:	687b      	ldr	r3, [r7, #4]
 8004da4:	681b      	ldr	r3, [r3, #0]
 8004da6:	f042 0201 	orr.w	r2, r2, #1
 8004daa:	601a      	str	r2, [r3, #0]

  hi2c->ErrorCode = HAL_I2C_ERROR_NONE;
 8004dac:	687b      	ldr	r3, [r7, #4]
 8004dae:	2200      	movs	r2, #0
 8004db0:	641a      	str	r2, [r3, #64]	@ 0x40
  hi2c->State = HAL_I2C_STATE_READY;
 8004db2:	687b      	ldr	r3, [r7, #4]
 8004db4:	2220      	movs	r2, #32
 8004db6:	f883 203d 	strb.w	r2, [r3, #61]	@ 0x3d
  hi2c->PreviousState = I2C_STATE_NONE;
 8004dba:	687b      	ldr	r3, [r7, #4]
 8004dbc:	2200      	movs	r2, #0
 8004dbe:	631a      	str	r2, [r3, #48]	@ 0x30
  hi2c->Mode = HAL_I2C_MODE_NONE;
 8004dc0:	687b      	ldr	r3, [r7, #4]
 8004dc2:	2200      	movs	r2, #0
 8004dc4:	f883 203e 	strb.w	r2, [r3, #62]	@ 0x3e

  return HAL_OK;
 8004dc8:	2300      	movs	r3, #0
}
 8004dca:	4618      	mov	r0, r3
 8004dcc:	3710      	adds	r7, #16
 8004dce:	46bd      	mov	sp, r7
 8004dd0:	bd80      	pop	{r7, pc}
 8004dd2:	bf00      	nop
 8004dd4:	000186a0 	.word	0x000186a0
 8004dd8:	001e847f 	.word	0x001e847f
 8004ddc:	003d08ff 	.word	0x003d08ff
 8004de0:	431bde83 	.word	0x431bde83
 8004de4:	10624dd3 	.word	0x10624dd3

08004de8 <HAL_I2C_Mem_Write>:
  * @param  Size Amount of data to be sent
  * @param  Timeout Timeout duration
  * @retval HAL status
  */
HAL_StatusTypeDef HAL_I2C_Mem_Write(I2C_HandleTypeDef *hi2c, uint16_t DevAddress, uint16_t MemAddress, uint16_t MemAddSize, uint8_t *pData, uint16_t Size, uint32_t Timeout)
{
 8004de8:	b580      	push	{r7, lr}
 8004dea:	b088      	sub	sp, #32
 8004dec:	af02      	add	r7, sp, #8
 8004dee:	60f8      	str	r0, [r7, #12]
 8004df0:	4608      	mov	r0, r1
 8004df2:	4611      	mov	r1, r2
 8004df4:	461a      	mov	r2, r3
 8004df6:	4603      	mov	r3, r0
 8004df8:	817b      	strh	r3, [r7, #10]
 8004dfa:	460b      	mov	r3, r1
 8004dfc:	813b      	strh	r3, [r7, #8]
 8004dfe:	4613      	mov	r3, r2
 8004e00:	80fb      	strh	r3, [r7, #6]
  /* Init tickstart for timeout management*/
  uint32_t tickstart = HAL_GetTick();
 8004e02:	f7ff fbd1 	bl	80045a8 <HAL_GetTick>
 8004e06:	6178      	str	r0, [r7, #20]

  /* Check the parameters */
  assert_param(IS_I2C_MEMADD_SIZE(MemAddSize));

  if (hi2c->State == HAL_I2C_STATE_READY)
 8004e08:	68fb      	ldr	r3, [r7, #12]
 8004e0a:	f893 303d 	ldrb.w	r3, [r3, #61]	@ 0x3d
 8004e0e:	b2db      	uxtb	r3, r3
 8004e10:	2b20      	cmp	r3, #32
 8004e12:	f040 80d9 	bne.w	8004fc8 <HAL_I2C_Mem_Write+0x1e0>
  {
    /* Wait until BUSY flag is reset */
    if (I2C_WaitOnFlagUntilTimeout(hi2c, I2C_FLAG_BUSY, SET, I2C_TIMEOUT_BUSY_FLAG, tickstart) != HAL_OK)
 8004e16:	697b      	ldr	r3, [r7, #20]
 8004e18:	9300      	str	r3, [sp, #0]
 8004e1a:	2319      	movs	r3, #25
 8004e1c:	2201      	movs	r2, #1
 8004e1e:	496d      	ldr	r1, [pc, #436]	@ (8004fd4 <HAL_I2C_Mem_Write+0x1ec>)
 8004e20:	68f8      	ldr	r0, [r7, #12]
 8004e22:	f000 fc8b 	bl	800573c <I2C_WaitOnFlagUntilTimeout>
 8004e26:	4603      	mov	r3, r0
 8004e28:	2b00      	cmp	r3, #0
 8004e2a:	d001      	beq.n	8004e30 <HAL_I2C_Mem_Write+0x48>
    {
      return HAL_BUSY;
 8004e2c:	2302      	movs	r3, #2
 8004e2e:	e0cc      	b.n	8004fca <HAL_I2C_Mem_Write+0x1e2>
    }

    /* Process Locked */
    __HAL_LOCK(hi2c);
 8004e30:	68fb      	ldr	r3, [r7, #12]
 8004e32:	f893 303c 	ldrb.w	r3, [r3, #60]	@ 0x3c
 8004e36:	2b01      	cmp	r3, #1
 8004e38:	d101      	bne.n	8004e3e <HAL_I2C_Mem_Write+0x56>
 8004e3a:	2302      	movs	r3, #2
 8004e3c:	e0c5      	b.n	8004fca <HAL_I2C_Mem_Write+0x1e2>
 8004e3e:	68fb      	ldr	r3, [r7, #12]
 8004e40:	2201      	movs	r2, #1
 8004e42:	f883 203c 	strb.w	r2, [r3, #60]	@ 0x3c

    /* Check if the I2C is already enabled */
    if ((hi2c->Instance->CR1 & I2C_CR1_PE) != I2C_CR1_PE)
 8004e46:	68fb      	ldr	r3, [r7, #12]
 8004e48:	681b      	ldr	r3, [r3, #0]
 8004e4a:	681b      	ldr	r3, [r3, #0]
 8004e4c:	f003 0301 	and.w	r3, r3, #1
 8004e50:	2b01      	cmp	r3, #1
 8004e52:	d007      	beq.n	8004e64 <HAL_I2C_Mem_Write+0x7c>
    {
      /* Enable I2C peripheral */
      __HAL_I2C_ENABLE(hi2c);
 8004e54:	68fb      	ldr	r3, [r7, #12]
 8004e56:	681b      	ldr	r3, [r3, #0]
 8004e58:	681a      	ldr	r2, [r3, #0]
 8004e5a:	68fb      	ldr	r3, [r7, #12]
 8004e5c:	681b      	ldr	r3, [r3, #0]
 8004e5e:	f042 0201 	orr.w	r2, r2, #1
 8004e62:	601a      	str	r2, [r3, #0]
    }

    /* Disable Pos */
    CLEAR_BIT(hi2c->Instance->CR1, I2C_CR1_POS);
 8004e64:	68fb      	ldr	r3, [r7, #12]
 8004e66:	681b      	ldr	r3, [r3, #0]
 8004e68:	681a      	ldr	r2, [r3, #0]
 8004e6a:	68fb      	ldr	r3, [r7, #12]
 8004e6c:	681b      	ldr	r3, [r3, #0]
 8004e6e:	f422 6200 	bic.w	r2, r2, #2048	@ 0x800
 8004e72:	601a      	str	r2, [r3, #0]

    hi2c->State     = HAL_I2C_STATE_BUSY_TX;
 8004e74:	68fb      	ldr	r3, [r7, #12]
 8004e76:	2221      	movs	r2, #33	@ 0x21
 8004e78:	f883 203d 	strb.w	r2, [r3, #61]	@ 0x3d
    hi2c->Mode      = HAL_I2C_MODE_MEM;
 8004e7c:	68fb      	ldr	r3, [r7, #12]
 8004e7e:	2240      	movs	r2, #64	@ 0x40
 8004e80:	f883 203e 	strb.w	r2, [r3, #62]	@ 0x3e
    hi2c->ErrorCode = HAL_I2C_ERROR_NONE;
 8004e84:	68fb      	ldr	r3, [r7, #12]
 8004e86:	2200      	movs	r2, #0
 8004e88:	641a      	str	r2, [r3, #64]	@ 0x40

    /* Prepare transfer parameters */
    hi2c->pBuffPtr    = pData;
 8004e8a:	68fb      	ldr	r3, [r7, #12]
 8004e8c:	6a3a      	ldr	r2, [r7, #32]
 8004e8e:	625a      	str	r2, [r3, #36]	@ 0x24
    hi2c->XferCount   = Size;
 8004e90:	68fb      	ldr	r3, [r7, #12]
 8004e92:	8cba      	ldrh	r2, [r7, #36]	@ 0x24
 8004e94:	855a      	strh	r2, [r3, #42]	@ 0x2a
    hi2c->XferSize    = hi2c->XferCount;
 8004e96:	68fb      	ldr	r3, [r7, #12]
 8004e98:	8d5b      	ldrh	r3, [r3, #42]	@ 0x2a
 8004e9a:	b29a      	uxth	r2, r3
 8004e9c:	68fb      	ldr	r3, [r7, #12]
 8004e9e:	851a      	strh	r2, [r3, #40]	@ 0x28
    hi2c->XferOptions = I2C_NO_OPTION_FRAME;
 8004ea0:	68fb      	ldr	r3, [r7, #12]
 8004ea2:	4a4d      	ldr	r2, [pc, #308]	@ (8004fd8 <HAL_I2C_Mem_Write+0x1f0>)
 8004ea4:	62da      	str	r2, [r3, #44]	@ 0x2c

    /* Send Slave Address and Memory Address */
    if (I2C_RequestMemoryWrite(hi2c, DevAddress, MemAddress, MemAddSize, Timeout, tickstart) != HAL_OK)
 8004ea6:	88f8      	ldrh	r0, [r7, #6]
 8004ea8:	893a      	ldrh	r2, [r7, #8]
 8004eaa:	8979      	ldrh	r1, [r7, #10]
 8004eac:	697b      	ldr	r3, [r7, #20]
 8004eae:	9301      	str	r3, [sp, #4]
 8004eb0:	6abb      	ldr	r3, [r7, #40]	@ 0x28
 8004eb2:	9300      	str	r3, [sp, #0]
 8004eb4:	4603      	mov	r3, r0
 8004eb6:	68f8      	ldr	r0, [r7, #12]
 8004eb8:	f000 fac2 	bl	8005440 <I2C_RequestMemoryWrite>
 8004ebc:	4603      	mov	r3, r0
 8004ebe:	2b00      	cmp	r3, #0
 8004ec0:	d052      	beq.n	8004f68 <HAL_I2C_Mem_Write+0x180>
    {
      return HAL_ERROR;
 8004ec2:	2301      	movs	r3, #1
 8004ec4:	e081      	b.n	8004fca <HAL_I2C_Mem_Write+0x1e2>
    }

    while (hi2c->XferSize > 0U)
    {
      /* Wait until TXE flag is set */
      if (I2C_WaitOnTXEFlagUntilTimeout(hi2c, Timeout, tickstart) != HAL_OK)
 8004ec6:	697a      	ldr	r2, [r7, #20]
 8004ec8:	6ab9      	ldr	r1, [r7, #40]	@ 0x28
 8004eca:	68f8      	ldr	r0, [r7, #12]
 8004ecc:	f000 fd50 	bl	8005970 <I2C_WaitOnTXEFlagUntilTimeout>
 8004ed0:	4603      	mov	r3, r0
 8004ed2:	2b00      	cmp	r3, #0
 8004ed4:	d00d      	beq.n	8004ef2 <HAL_I2C_Mem_Write+0x10a>
      {
        if (hi2c->ErrorCode == HAL_I2C_ERROR_AF)
 8004ed6:	68fb      	ldr	r3, [r7, #12]
 8004ed8:	6c1b      	ldr	r3, [r3, #64]	@ 0x40
 8004eda:	2b04      	cmp	r3, #4
 8004edc:	d107      	bne.n	8004eee <HAL_I2C_Mem_Write+0x106>
        {
          /* Generate Stop */
          SET_BIT(hi2c->Instance->CR1, I2C_CR1_STOP);
 8004ede:	68fb      	ldr	r3, [r7, #12]
 8004ee0:	681b      	ldr	r3, [r3, #0]
 8004ee2:	681a      	ldr	r2, [r3, #0]
 8004ee4:	68fb      	ldr	r3, [r7, #12]
 8004ee6:	681b      	ldr	r3, [r3, #0]
 8004ee8:	f442 7200 	orr.w	r2, r2, #512	@ 0x200
 8004eec:	601a      	str	r2, [r3, #0]
        }
        return HAL_ERROR;
 8004eee:	2301      	movs	r3, #1
 8004ef0:	e06b      	b.n	8004fca <HAL_I2C_Mem_Write+0x1e2>
      }

      /* Write data to DR */
      hi2c->Instance->DR = *hi2c->pBuffPtr;
 8004ef2:	68fb      	ldr	r3, [r7, #12]
 8004ef4:	6a5b      	ldr	r3, [r3, #36]	@ 0x24
 8004ef6:	781a      	ldrb	r2, [r3, #0]
 8004ef8:	68fb      	ldr	r3, [r7, #12]
 8004efa:	681b      	ldr	r3, [r3, #0]
 8004efc:	611a      	str	r2, [r3, #16]

      /* Increment Buffer pointer */
      hi2c->pBuffPtr++;
 8004efe:	68fb      	ldr	r3, [r7, #12]
 8004f00:	6a5b      	ldr	r3, [r3, #36]	@ 0x24
 8004f02:	1c5a      	adds	r2, r3, #1
 8004f04:	68fb      	ldr	r3, [r7, #12]
 8004f06:	625a      	str	r2, [r3, #36]	@ 0x24

      /* Update counter */
      hi2c->XferSize--;
 8004f08:	68fb      	ldr	r3, [r7, #12]
 8004f0a:	8d1b      	ldrh	r3, [r3, #40]	@ 0x28
 8004f0c:	3b01      	subs	r3, #1
 8004f0e:	b29a      	uxth	r2, r3
 8004f10:	68fb      	ldr	r3, [r7, #12]
 8004f12:	851a      	strh	r2, [r3, #40]	@ 0x28
      hi2c->XferCount--;
 8004f14:	68fb      	ldr	r3, [r7, #12]
 8004f16:	8d5b      	ldrh	r3, [r3, #42]	@ 0x2a
 8004f18:	b29b      	uxth	r3, r3
 8004f1a:	3b01      	subs	r3, #1
 8004f1c:	b29a      	uxth	r2, r3
 8004f1e:	68fb      	ldr	r3, [r7, #12]
 8004f20:	855a      	strh	r2, [r3, #42]	@ 0x2a

      if ((__HAL_I2C_GET_FLAG(hi2c, I2C_FLAG_BTF) == SET) && (hi2c->XferSize != 0U))
 8004f22:	68fb      	ldr	r3, [r7, #12]
 8004f24:	681b      	ldr	r3, [r3, #0]
 8004f26:	695b      	ldr	r3, [r3, #20]
 8004f28:	f003 0304 	and.w	r3, r3, #4
 8004f2c:	2b04      	cmp	r3, #4
 8004f2e:	d11b      	bne.n	8004f68 <HAL_I2C_Mem_Write+0x180>
 8004f30:	68fb      	ldr	r3, [r7, #12]
 8004f32:	8d1b      	ldrh	r3, [r3, #40]	@ 0x28
 8004f34:	2b00      	cmp	r3, #0
 8004f36:	d017      	beq.n	8004f68 <HAL_I2C_Mem_Write+0x180>
      {
        /* Write data to DR */
        hi2c->Instance->DR = *hi2c->pBuffPtr;
 8004f38:	68fb      	ldr	r3, [r7, #12]
 8004f3a:	6a5b      	ldr	r3, [r3, #36]	@ 0x24
 8004f3c:	781a      	ldrb	r2, [r3, #0]
 8004f3e:	68fb      	ldr	r3, [r7, #12]
 8004f40:	681b      	ldr	r3, [r3, #0]
 8004f42:	611a      	str	r2, [r3, #16]

        /* Increment Buffer pointer */
        hi2c->pBuffPtr++;
 8004f44:	68fb      	ldr	r3, [r7, #12]
 8004f46:	6a5b      	ldr	r3, [r3, #36]	@ 0x24
 8004f48:	1c5a      	adds	r2, r3, #1
 8004f4a:	68fb      	ldr	r3, [r7, #12]
 8004f4c:	625a      	str	r2, [r3, #36]	@ 0x24

        /* Update counter */
        hi2c->XferSize--;
 8004f4e:	68fb      	ldr	r3, [r7, #12]
 8004f50:	8d1b      	ldrh	r3, [r3, #40]	@ 0x28
 8004f52:	3b01      	subs	r3, #1
 8004f54:	b29a      	uxth	r2, r3
 8004f56:	68fb      	ldr	r3, [r7, #12]
 8004f58:	851a      	strh	r2, [r3, #40]	@ 0x28
        hi2c->XferCount--;
 8004f5a:	68fb      	ldr	r3, [r7, #12]
 8004f5c:	8d5b      	ldrh	r3, [r3, #42]	@ 0x2a
 8004f5e:	b29b      	uxth	r3, r3
 8004f60:	3b01      	subs	r3, #1
 8004f62:	b29a      	uxth	r2, r3
 8004f64:	68fb      	ldr	r3, [r7, #12]
 8004f66:	855a      	strh	r2, [r3, #42]	@ 0x2a
    while (hi2c->XferSize > 0U)
 8004f68:	68fb      	ldr	r3, [r7, #12]
 8004f6a:	8d1b      	ldrh	r3, [r3, #40]	@ 0x28
 8004f6c:	2b00      	cmp	r3, #0
 8004f6e:	d1aa      	bne.n	8004ec6 <HAL_I2C_Mem_Write+0xde>
      }
    }

    /* Wait until BTF flag is set */
    if (I2C_WaitOnBTFFlagUntilTimeout(hi2c, Timeout, tickstart) != HAL_OK)
 8004f70:	697a      	ldr	r2, [r7, #20]
 8004f72:	6ab9      	ldr	r1, [r7, #40]	@ 0x28
 8004f74:	68f8      	ldr	r0, [r7, #12]
 8004f76:	f000 fd43 	bl	8005a00 <I2C_WaitOnBTFFlagUntilTimeout>
 8004f7a:	4603      	mov	r3, r0
 8004f7c:	2b00      	cmp	r3, #0
 8004f7e:	d00d      	beq.n	8004f9c <HAL_I2C_Mem_Write+0x1b4>
    {
      if (hi2c->ErrorCode == HAL_I2C_ERROR_AF)
 8004f80:	68fb      	ldr	r3, [r7, #12]
 8004f82:	6c1b      	ldr	r3, [r3, #64]	@ 0x40
 8004f84:	2b04      	cmp	r3, #4
 8004f86:	d107      	bne.n	8004f98 <HAL_I2C_Mem_Write+0x1b0>
      {
        /* Generate Stop */
        SET_BIT(hi2c->Instance->CR1, I2C_CR1_STOP);
 8004f88:	68fb      	ldr	r3, [r7, #12]
 8004f8a:	681b      	ldr	r3, [r3, #0]
 8004f8c:	681a      	ldr	r2, [r3, #0]
 8004f8e:	68fb      	ldr	r3, [r7, #12]
 8004f90:	681b      	ldr	r3, [r3, #0]
 8004f92:	f442 7200 	orr.w	r2, r2, #512	@ 0x200
 8004f96:	601a      	str	r2, [r3, #0]
      }
      return HAL_ERROR;
 8004f98:	2301      	movs	r3, #1
 8004f9a:	e016      	b.n	8004fca <HAL_I2C_Mem_Write+0x1e2>
    }

    /* Generate Stop */
    SET_BIT(hi2c->Instance->CR1, I2C_CR1_STOP);
 8004f9c:	68fb      	ldr	r3, [r7, #12]
 8004f9e:	681b      	ldr	r3, [r3, #0]
 8004fa0:	681a      	ldr	r2, [r3, #0]
 8004fa2:	68fb      	ldr	r3, [r7, #12]
 8004fa4:	681b      	ldr	r3, [r3, #0]
 8004fa6:	f442 7200 	orr.w	r2, r2, #512	@ 0x200
 8004faa:	601a      	str	r2, [r3, #0]

    hi2c->State = HAL_I2C_STATE_READY;
 8004fac:	68fb      	ldr	r3, [r7, #12]
 8004fae:	2220      	movs	r2, #32
 8004fb0:	f883 203d 	strb.w	r2, [r3, #61]	@ 0x3d
    hi2c->Mode = HAL_I2C_MODE_NONE;
 8004fb4:	68fb      	ldr	r3, [r7, #12]
 8004fb6:	2200      	movs	r2, #0
 8004fb8:	f883 203e 	strb.w	r2, [r3, #62]	@ 0x3e

    /* Process Unlocked */
    __HAL_UNLOCK(hi2c);
 8004fbc:	68fb      	ldr	r3, [r7, #12]
 8004fbe:	2200      	movs	r2, #0
 8004fc0:	f883 203c 	strb.w	r2, [r3, #60]	@ 0x3c

    return HAL_OK;
 8004fc4:	2300      	movs	r3, #0
 8004fc6:	e000      	b.n	8004fca <HAL_I2C_Mem_Write+0x1e2>
  }
  else
  {
    return HAL_BUSY;
 8004fc8:	2302      	movs	r3, #2
  }
}
 8004fca:	4618      	mov	r0, r3
 8004fcc:	3718      	adds	r7, #24
 8004fce:	46bd      	mov	sp, r7
 8004fd0:	bd80      	pop	{r7, pc}
 8004fd2:	bf00      	nop
 8004fd4:	00100002 	.word	0x00100002
 8004fd8:	ffff0000 	.word	0xffff0000

08004fdc <HAL_I2C_Mem_Read>:
  * @param  Size Amount of data to be sent
  * @param  Timeout Timeout duration
  * @retval HAL status
  */
HAL_StatusTypeDef HAL_I2C_Mem_Read(I2C_HandleTypeDef *hi2c, uint16_t DevAddress, uint16_t MemAddress, uint16_t MemAddSize, uint8_t *pData, uint16_t Size, uint32_t Timeout)
{
 8004fdc:	b580      	push	{r7, lr}
 8004fde:	b08c      	sub	sp, #48	@ 0x30
 8004fe0:	af02      	add	r7, sp, #8
 8004fe2:	60f8      	str	r0, [r7, #12]
 8004fe4:	4608      	mov	r0, r1
 8004fe6:	4611      	mov	r1, r2
 8004fe8:	461a      	mov	r2, r3
 8004fea:	4603      	mov	r3, r0
 8004fec:	817b      	strh	r3, [r7, #10]
 8004fee:	460b      	mov	r3, r1
 8004ff0:	813b      	strh	r3, [r7, #8]
 8004ff2:	4613      	mov	r3, r2
 8004ff4:	80fb      	strh	r3, [r7, #6]
  /* Init tickstart for timeout management*/
  uint32_t tickstart = HAL_GetTick();
 8004ff6:	f7ff fad7 	bl	80045a8 <HAL_GetTick>
 8004ffa:	6278      	str	r0, [r7, #36]	@ 0x24

  /* Check the parameters */
  assert_param(IS_I2C_MEMADD_SIZE(MemAddSize));

  if (hi2c->State == HAL_I2C_STATE_READY)
 8004ffc:	68fb      	ldr	r3, [r7, #12]
 8004ffe:	f893 303d 	ldrb.w	r3, [r3, #61]	@ 0x3d
 8005002:	b2db      	uxtb	r3, r3
 8005004:	2b20      	cmp	r3, #32
 8005006:	f040 8214 	bne.w	8005432 <HAL_I2C_Mem_Read+0x456>
  {
    /* Wait until BUSY flag is reset */
    if (I2C_WaitOnFlagUntilTimeout(hi2c, I2C_FLAG_BUSY, SET, I2C_TIMEOUT_BUSY_FLAG, tickstart) != HAL_OK)
 800500a:	6a7b      	ldr	r3, [r7, #36]	@ 0x24
 800500c:	9300      	str	r3, [sp, #0]
 800500e:	2319      	movs	r3, #25
 8005010:	2201      	movs	r2, #1
 8005012:	497b      	ldr	r1, [pc, #492]	@ (8005200 <HAL_I2C_Mem_Read+0x224>)
 8005014:	68f8      	ldr	r0, [r7, #12]
 8005016:	f000 fb91 	bl	800573c <I2C_WaitOnFlagUntilTimeout>
 800501a:	4603      	mov	r3, r0
 800501c:	2b00      	cmp	r3, #0
 800501e:	d001      	beq.n	8005024 <HAL_I2C_Mem_Read+0x48>
    {
      return HAL_BUSY;
 8005020:	2302      	movs	r3, #2
 8005022:	e207      	b.n	8005434 <HAL_I2C_Mem_Read+0x458>
    }

    /* Process Locked */
    __HAL_LOCK(hi2c);
 8005024:	68fb      	ldr	r3, [r7, #12]
 8005026:	f893 303c 	ldrb.w	r3, [r3, #60]	@ 0x3c
 800502a:	2b01      	cmp	r3, #1
 800502c:	d101      	bne.n	8005032 <HAL_I2C_Mem_Read+0x56>
 800502e:	2302      	movs	r3, #2
 8005030:	e200      	b.n	8005434 <HAL_I2C_Mem_Read+0x458>
 8005032:	68fb      	ldr	r3, [r7, #12]
 8005034:	2201      	movs	r2, #1
 8005036:	f883 203c 	strb.w	r2, [r3, #60]	@ 0x3c

    /* Check if the I2C is already enabled */
    if ((hi2c->Instance->CR1 & I2C_CR1_PE) != I2C_CR1_PE)
 800503a:	68fb      	ldr	r3, [r7, #12]
 800503c:	681b      	ldr	r3, [r3, #0]
 800503e:	681b      	ldr	r3, [r3, #0]
 8005040:	f003 0301 	and.w	r3, r3, #1
 8005044:	2b01      	cmp	r3, #1
 8005046:	d007      	beq.n	8005058 <HAL_I2C_Mem_Read+0x7c>
    {
      /* Enable I2C peripheral */
      __HAL_I2C_ENABLE(hi2c);
 8005048:	68fb      	ldr	r3, [r7, #12]
 800504a:	681b      	ldr	r3, [r3, #0]
 800504c:	681a      	ldr	r2, [r3, #0]
 800504e:	68fb      	ldr	r3, [r7, #12]
 8005050:	681b      	ldr	r3, [r3, #0]
 8005052:	f042 0201 	orr.w	r2, r2, #1
 8005056:	601a      	str	r2, [r3, #0]
    }

    /* Disable Pos */
    CLEAR_BIT(hi2c->Instance->CR1, I2C_CR1_POS);
 8005058:	68fb      	ldr	r3, [r7, #12]
 800505a:	681b      	ldr	r3, [r3, #0]
 800505c:	681a      	ldr	r2, [r3, #0]
 800505e:	68fb      	ldr	r3, [r7, #12]
 8005060:	681b      	ldr	r3, [r3, #0]
 8005062:	f422 6200 	bic.w	r2, r2, #2048	@ 0x800
 8005066:	601a      	str	r2, [r3, #0]

    hi2c->State     = HAL_I2C_STATE_BUSY_RX;
 8005068:	68fb      	ldr	r3, [r7, #12]
 800506a:	2222      	movs	r2, #34	@ 0x22
 800506c:	f883 203d 	strb.w	r2, [r3, #61]	@ 0x3d
    hi2c->Mode      = HAL_I2C_MODE_MEM;
 8005070:	68fb      	ldr	r3, [r7, #12]
 8005072:	2240      	movs	r2, #64	@ 0x40
 8005074:	f883 203e 	strb.w	r2, [r3, #62]	@ 0x3e
    hi2c->ErrorCode = HAL_I2C_ERROR_NONE;
 8005078:	68fb      	ldr	r3, [r7, #12]
 800507a:	2200      	movs	r2, #0
 800507c:	641a      	str	r2, [r3, #64]	@ 0x40

    /* Prepare transfer parameters */
    hi2c->pBuffPtr    = pData;
 800507e:	68fb      	ldr	r3, [r7, #12]
 8005080:	6b3a      	ldr	r2, [r7, #48]	@ 0x30
 8005082:	625a      	str	r2, [r3, #36]	@ 0x24
    hi2c->XferCount   = Size;
 8005084:	68fb      	ldr	r3, [r7, #12]
 8005086:	8eba      	ldrh	r2, [r7, #52]	@ 0x34
 8005088:	855a      	strh	r2, [r3, #42]	@ 0x2a
    hi2c->XferSize    = hi2c->XferCount;
 800508a:	68fb      	ldr	r3, [r7, #12]
 800508c:	8d5b      	ldrh	r3, [r3, #42]	@ 0x2a
 800508e:	b29a      	uxth	r2, r3
 8005090:	68fb      	ldr	r3, [r7, #12]
 8005092:	851a      	strh	r2, [r3, #40]	@ 0x28
    hi2c->XferOptions = I2C_NO_OPTION_FRAME;
 8005094:	68fb      	ldr	r3, [r7, #12]
 8005096:	4a5b      	ldr	r2, [pc, #364]	@ (8005204 <HAL_I2C_Mem_Read+0x228>)
 8005098:	62da      	str	r2, [r3, #44]	@ 0x2c

    /* Send Slave Address and Memory Address */
    if (I2C_RequestMemoryRead(hi2c, DevAddress, MemAddress, MemAddSize, Timeout, tickstart) != HAL_OK)
 800509a:	88f8      	ldrh	r0, [r7, #6]
 800509c:	893a      	ldrh	r2, [r7, #8]
 800509e:	8979      	ldrh	r1, [r7, #10]
 80050a0:	6a7b      	ldr	r3, [r7, #36]	@ 0x24
 80050a2:	9301      	str	r3, [sp, #4]
 80050a4:	6bbb      	ldr	r3, [r7, #56]	@ 0x38
 80050a6:	9300      	str	r3, [sp, #0]
 80050a8:	4603      	mov	r3, r0
 80050aa:	68f8      	ldr	r0, [r7, #12]
 80050ac:	f000 fa5e 	bl	800556c <I2C_RequestMemoryRead>
 80050b0:	4603      	mov	r3, r0
 80050b2:	2b00      	cmp	r3, #0
 80050b4:	d001      	beq.n	80050ba <HAL_I2C_Mem_Read+0xde>
    {
      return HAL_ERROR;
 80050b6:	2301      	movs	r3, #1
 80050b8:	e1bc      	b.n	8005434 <HAL_I2C_Mem_Read+0x458>
    }

    if (hi2c->XferSize == 0U)
 80050ba:	68fb      	ldr	r3, [r7, #12]
 80050bc:	8d1b      	ldrh	r3, [r3, #40]	@ 0x28
 80050be:	2b00      	cmp	r3, #0
 80050c0:	d113      	bne.n	80050ea <HAL_I2C_Mem_Read+0x10e>
    {
      /* Clear ADDR flag */
      __HAL_I2C_CLEAR_ADDRFLAG(hi2c);
 80050c2:	2300      	movs	r3, #0
 80050c4:	623b      	str	r3, [r7, #32]
 80050c6:	68fb      	ldr	r3, [r7, #12]
 80050c8:	681b      	ldr	r3, [r3, #0]
 80050ca:	695b      	ldr	r3, [r3, #20]
 80050cc:	623b      	str	r3, [r7, #32]
 80050ce:	68fb      	ldr	r3, [r7, #12]
 80050d0:	681b      	ldr	r3, [r3, #0]
 80050d2:	699b      	ldr	r3, [r3, #24]
 80050d4:	623b      	str	r3, [r7, #32]
 80050d6:	6a3b      	ldr	r3, [r7, #32]

      /* Generate Stop */
      SET_BIT(hi2c->Instance->CR1, I2C_CR1_STOP);
 80050d8:	68fb      	ldr	r3, [r7, #12]
 80050da:	681b      	ldr	r3, [r3, #0]
 80050dc:	681a      	ldr	r2, [r3, #0]
 80050de:	68fb      	ldr	r3, [r7, #12]
 80050e0:	681b      	ldr	r3, [r3, #0]
 80050e2:	f442 7200 	orr.w	r2, r2, #512	@ 0x200
 80050e6:	601a      	str	r2, [r3, #0]
 80050e8:	e190      	b.n	800540c <HAL_I2C_Mem_Read+0x430>
    }
    else if (hi2c->XferSize == 1U)
 80050ea:	68fb      	ldr	r3, [r7, #12]
 80050ec:	8d1b      	ldrh	r3, [r3, #40]	@ 0x28
 80050ee:	2b01      	cmp	r3, #1
 80050f0:	d11b      	bne.n	800512a <HAL_I2C_Mem_Read+0x14e>
    {
      /* Disable Acknowledge */
      CLEAR_BIT(hi2c->Instance->CR1, I2C_CR1_ACK);
 80050f2:	68fb      	ldr	r3, [r7, #12]
 80050f4:	681b      	ldr	r3, [r3, #0]
 80050f6:	681a      	ldr	r2, [r3, #0]
 80050f8:	68fb      	ldr	r3, [r7, #12]
 80050fa:	681b      	ldr	r3, [r3, #0]
 80050fc:	f422 6280 	bic.w	r2, r2, #1024	@ 0x400
 8005100:	601a      	str	r2, [r3, #0]

      /* Clear ADDR flag */
      __HAL_I2C_CLEAR_ADDRFLAG(hi2c);
 8005102:	2300      	movs	r3, #0
 8005104:	61fb      	str	r3, [r7, #28]
 8005106:	68fb      	ldr	r3, [r7, #12]
 8005108:	681b      	ldr	r3, [r3, #0]
 800510a:	695b      	ldr	r3, [r3, #20]
 800510c:	61fb      	str	r3, [r7, #28]
 800510e:	68fb      	ldr	r3, [r7, #12]
 8005110:	681b      	ldr	r3, [r3, #0]
 8005112:	699b      	ldr	r3, [r3, #24]
 8005114:	61fb      	str	r3, [r7, #28]
 8005116:	69fb      	ldr	r3, [r7, #28]

      /* Generate Stop */
      SET_BIT(hi2c->Instance->CR1, I2C_CR1_STOP);
 8005118:	68fb      	ldr	r3, [r7, #12]
 800511a:	681b      	ldr	r3, [r3, #0]
 800511c:	681a      	ldr	r2, [r3, #0]
 800511e:	68fb      	ldr	r3, [r7, #12]
 8005120:	681b      	ldr	r3, [r3, #0]
 8005122:	f442 7200 	orr.w	r2, r2, #512	@ 0x200
 8005126:	601a      	str	r2, [r3, #0]
 8005128:	e170      	b.n	800540c <HAL_I2C_Mem_Read+0x430>
    }
    else if (hi2c->XferSize == 2U)
 800512a:	68fb      	ldr	r3, [r7, #12]
 800512c:	8d1b      	ldrh	r3, [r3, #40]	@ 0x28
 800512e:	2b02      	cmp	r3, #2
 8005130:	d11b      	bne.n	800516a <HAL_I2C_Mem_Read+0x18e>
    {
      /* Disable Acknowledge */
      CLEAR_BIT(hi2c->Instance->CR1, I2C_CR1_ACK);
 8005132:	68fb      	ldr	r3, [r7, #12]
 8005134:	681b      	ldr	r3, [r3, #0]
 8005136:	681a      	ldr	r2, [r3, #0]
 8005138:	68fb      	ldr	r3, [r7, #12]
 800513a:	681b      	ldr	r3, [r3, #0]
 800513c:	f422 6280 	bic.w	r2, r2, #1024	@ 0x400
 8005140:	601a      	str	r2, [r3, #0]

      /* Enable Pos */
      SET_BIT(hi2c->Instance->CR1, I2C_CR1_POS);
 8005142:	68fb      	ldr	r3, [r7, #12]
 8005144:	681b      	ldr	r3, [r3, #0]
 8005146:	681a      	ldr	r2, [r3, #0]
 8005148:	68fb      	ldr	r3, [r7, #12]
 800514a:	681b      	ldr	r3, [r3, #0]
 800514c:	f442 6200 	orr.w	r2, r2, #2048	@ 0x800
 8005150:	601a      	str	r2, [r3, #0]

      /* Clear ADDR flag */
      __HAL_I2C_CLEAR_ADDRFLAG(hi2c);
 8005152:	2300      	movs	r3, #0
 8005154:	61bb      	str	r3, [r7, #24]
 8005156:	68fb      	ldr	r3, [r7, #12]
 8005158:	681b      	ldr	r3, [r3, #0]
 800515a:	695b      	ldr	r3, [r3, #20]
 800515c:	61bb      	str	r3, [r7, #24]
 800515e:	68fb      	ldr	r3, [r7, #12]
 8005160:	681b      	ldr	r3, [r3, #0]
 8005162:	699b      	ldr	r3, [r3, #24]
 8005164:	61bb      	str	r3, [r7, #24]
 8005166:	69bb      	ldr	r3, [r7, #24]
 8005168:	e150      	b.n	800540c <HAL_I2C_Mem_Read+0x430>
    }
    else
    {
      /* Clear ADDR flag */
      __HAL_I2C_CLEAR_ADDRFLAG(hi2c);
 800516a:	2300      	movs	r3, #0
 800516c:	617b      	str	r3, [r7, #20]
 800516e:	68fb      	ldr	r3, [r7, #12]
 8005170:	681b      	ldr	r3, [r3, #0]
 8005172:	695b      	ldr	r3, [r3, #20]
 8005174:	617b      	str	r3, [r7, #20]
 8005176:	68fb      	ldr	r3, [r7, #12]
 8005178:	681b      	ldr	r3, [r3, #0]
 800517a:	699b      	ldr	r3, [r3, #24]
 800517c:	617b      	str	r3, [r7, #20]
 800517e:	697b      	ldr	r3, [r7, #20]
    }

    while (hi2c->XferSize > 0U)
 8005180:	e144      	b.n	800540c <HAL_I2C_Mem_Read+0x430>
    {
      if (hi2c->XferSize <= 3U)
 8005182:	68fb      	ldr	r3, [r7, #12]
 8005184:	8d1b      	ldrh	r3, [r3, #40]	@ 0x28
 8005186:	2b03      	cmp	r3, #3
 8005188:	f200 80f1 	bhi.w	800536e <HAL_I2C_Mem_Read+0x392>
      {
        /* One byte */
        if (hi2c->XferSize == 1U)
 800518c:	68fb      	ldr	r3, [r7, #12]
 800518e:	8d1b      	ldrh	r3, [r3, #40]	@ 0x28
 8005190:	2b01      	cmp	r3, #1
 8005192:	d123      	bne.n	80051dc <HAL_I2C_Mem_Read+0x200>
        {
          /* Wait until RXNE flag is set */
          if (I2C_WaitOnRXNEFlagUntilTimeout(hi2c, Timeout, tickstart) != HAL_OK)
 8005194:	6a7a      	ldr	r2, [r7, #36]	@ 0x24
 8005196:	6bb9      	ldr	r1, [r7, #56]	@ 0x38
 8005198:	68f8      	ldr	r0, [r7, #12]
 800519a:	f000 fc79 	bl	8005a90 <I2C_WaitOnRXNEFlagUntilTimeout>
 800519e:	4603      	mov	r3, r0
 80051a0:	2b00      	cmp	r3, #0
 80051a2:	d001      	beq.n	80051a8 <HAL_I2C_Mem_Read+0x1cc>
          {
            return HAL_ERROR;
 80051a4:	2301      	movs	r3, #1
 80051a6:	e145      	b.n	8005434 <HAL_I2C_Mem_Read+0x458>
          }

          /* Read data from DR */
          *hi2c->pBuffPtr = (uint8_t)hi2c->Instance->DR;
 80051a8:	68fb      	ldr	r3, [r7, #12]
 80051aa:	681b      	ldr	r3, [r3, #0]
 80051ac:	691a      	ldr	r2, [r3, #16]
 80051ae:	68fb      	ldr	r3, [r7, #12]
 80051b0:	6a5b      	ldr	r3, [r3, #36]	@ 0x24
 80051b2:	b2d2      	uxtb	r2, r2
 80051b4:	701a      	strb	r2, [r3, #0]

          /* Increment Buffer pointer */
          hi2c->pBuffPtr++;
 80051b6:	68fb      	ldr	r3, [r7, #12]
 80051b8:	6a5b      	ldr	r3, [r3, #36]	@ 0x24
 80051ba:	1c5a      	adds	r2, r3, #1
 80051bc:	68fb      	ldr	r3, [r7, #12]
 80051be:	625a      	str	r2, [r3, #36]	@ 0x24

          /* Update counter */
          hi2c->XferSize--;
 80051c0:	68fb      	ldr	r3, [r7, #12]
 80051c2:	8d1b      	ldrh	r3, [r3, #40]	@ 0x28
 80051c4:	3b01      	subs	r3, #1
 80051c6:	b29a      	uxth	r2, r3
 80051c8:	68fb      	ldr	r3, [r7, #12]
 80051ca:	851a      	strh	r2, [r3, #40]	@ 0x28
          hi2c->XferCount--;
 80051cc:	68fb      	ldr	r3, [r7, #12]
 80051ce:	8d5b      	ldrh	r3, [r3, #42]	@ 0x2a
 80051d0:	b29b      	uxth	r3, r3
 80051d2:	3b01      	subs	r3, #1
 80051d4:	b29a      	uxth	r2, r3
 80051d6:	68fb      	ldr	r3, [r7, #12]
 80051d8:	855a      	strh	r2, [r3, #42]	@ 0x2a
 80051da:	e117      	b.n	800540c <HAL_I2C_Mem_Read+0x430>
        }
        /* Two bytes */
        else if (hi2c->XferSize == 2U)
 80051dc:	68fb      	ldr	r3, [r7, #12]
 80051de:	8d1b      	ldrh	r3, [r3, #40]	@ 0x28
 80051e0:	2b02      	cmp	r3, #2
 80051e2:	d14e      	bne.n	8005282 <HAL_I2C_Mem_Read+0x2a6>
        {
          /* Wait until BTF flag is set */
          if (I2C_WaitOnFlagUntilTimeout(hi2c, I2C_FLAG_BTF, RESET, Timeout, tickstart) != HAL_OK)
 80051e4:	6a7b      	ldr	r3, [r7, #36]	@ 0x24
 80051e6:	9300      	str	r3, [sp, #0]
 80051e8:	6bbb      	ldr	r3, [r7, #56]	@ 0x38
 80051ea:	2200      	movs	r2, #0
 80051ec:	4906      	ldr	r1, [pc, #24]	@ (8005208 <HAL_I2C_Mem_Read+0x22c>)
 80051ee:	68f8      	ldr	r0, [r7, #12]
 80051f0:	f000 faa4 	bl	800573c <I2C_WaitOnFlagUntilTimeout>
 80051f4:	4603      	mov	r3, r0
 80051f6:	2b00      	cmp	r3, #0
 80051f8:	d008      	beq.n	800520c <HAL_I2C_Mem_Read+0x230>
          {
            return HAL_ERROR;
 80051fa:	2301      	movs	r3, #1
 80051fc:	e11a      	b.n	8005434 <HAL_I2C_Mem_Read+0x458>
 80051fe:	bf00      	nop
 8005200:	00100002 	.word	0x00100002
 8005204:	ffff0000 	.word	0xffff0000
 8005208:	00010004 	.word	0x00010004
          }

          /* Generate Stop */
          SET_BIT(hi2c->Instance->CR1, I2C_CR1_STOP);
 800520c:	68fb      	ldr	r3, [r7, #12]
 800520e:	681b      	ldr	r3, [r3, #0]
 8005210:	681a      	ldr	r2, [r3, #0]
 8005212:	68fb      	ldr	r3, [r7, #12]
 8005214:	681b      	ldr	r3, [r3, #0]
 8005216:	f442 7200 	orr.w	r2, r2, #512	@ 0x200
 800521a:	601a      	str	r2, [r3, #0]

          /* Read data from DR */
          *hi2c->pBuffPtr = (uint8_t)hi2c->Instance->DR;
 800521c:	68fb      	ldr	r3, [r7, #12]
 800521e:	681b      	ldr	r3, [r3, #0]
 8005220:	691a      	ldr	r2, [r3, #16]
 8005222:	68fb      	ldr	r3, [r7, #12]
 8005224:	6a5b      	ldr	r3, [r3, #36]	@ 0x24
 8005226:	b2d2      	uxtb	r2, r2
 8005228:	701a      	strb	r2, [r3, #0]

          /* Increment Buffer pointer */
          hi2c->pBuffPtr++;
 800522a:	68fb      	ldr	r3, [r7, #12]
 800522c:	6a5b      	ldr	r3, [r3, #36]	@ 0x24
 800522e:	1c5a      	adds	r2, r3, #1
 8005230:	68fb      	ldr	r3, [r7, #12]
 8005232:	625a      	str	r2, [r3, #36]	@ 0x24

          /* Update counter */
          hi2c->XferSize--;
 8005234:	68fb      	ldr	r3, [r7, #12]
 8005236:	8d1b      	ldrh	r3, [r3, #40]	@ 0x28
 8005238:	3b01      	subs	r3, #1
 800523a:	b29a      	uxth	r2, r3
 800523c:	68fb      	ldr	r3, [r7, #12]
 800523e:	851a      	strh	r2, [r3, #40]	@ 0x28
          hi2c->XferCount--;
 8005240:	68fb      	ldr	r3, [r7, #12]
 8005242:	8d5b      	ldrh	r3, [r3, #42]	@ 0x2a
 8005244:	b29b      	uxth	r3, r3
 8005246:	3b01      	subs	r3, #1
 8005248:	b29a      	uxth	r2, r3
 800524a:	68fb      	ldr	r3, [r7, #12]
 800524c:	855a      	strh	r2, [r3, #42]	@ 0x2a

          /* Read data from DR */
          *hi2c->pBuffPtr = (uint8_t)hi2c->Instance->DR;
 800524e:	68fb      	ldr	r3, [r7, #12]
 8005250:	681b      	ldr	r3, [r3, #0]
 8005252:	691a      	ldr	r2, [r3, #16]
 8005254:	68fb      	ldr	r3, [r7, #12]
 8005256:	6a5b      	ldr	r3, [r3, #36]	@ 0x24
 8005258:	b2d2      	uxtb	r2, r2
 800525a:	701a      	strb	r2, [r3, #0]

          /* Increment Buffer pointer */
          hi2c->pBuffPtr++;
 800525c:	68fb      	ldr	r3, [r7, #12]
 800525e:	6a5b      	ldr	r3, [r3, #36]	@ 0x24
 8005260:	1c5a      	adds	r2, r3, #1
 8005262:	68fb      	ldr	r3, [r7, #12]
 8005264:	625a      	str	r2, [r3, #36]	@ 0x24

          /* Update counter */
          hi2c->XferSize--;
 8005266:	68fb      	ldr	r3, [r7, #12]
 8005268:	8d1b      	ldrh	r3, [r3, #40]	@ 0x28
 800526a:	3b01      	subs	r3, #1
 800526c:	b29a      	uxth	r2, r3
 800526e:	68fb      	ldr	r3, [r7, #12]
 8005270:	851a      	strh	r2, [r3, #40]	@ 0x28
          hi2c->XferCount--;
 8005272:	68fb      	ldr	r3, [r7, #12]
 8005274:	8d5b      	ldrh	r3, [r3, #42]	@ 0x2a
 8005276:	b29b      	uxth	r3, r3
 8005278:	3b01      	subs	r3, #1
 800527a:	b29a      	uxth	r2, r3
 800527c:	68fb      	ldr	r3, [r7, #12]
 800527e:	855a      	strh	r2, [r3, #42]	@ 0x2a
 8005280:	e0c4      	b.n	800540c <HAL_I2C_Mem_Read+0x430>
        }
        /* 3 Last bytes */
        else
        {
          /* Wait until BTF flag is set */
          if (I2C_WaitOnFlagUntilTimeout(hi2c, I2C_FLAG_BTF, RESET, Timeout, tickstart) != HAL_OK)
 8005282:	6a7b      	ldr	r3, [r7, #36]	@ 0x24
 8005284:	9300      	str	r3, [sp, #0]
 8005286:	6bbb      	ldr	r3, [r7, #56]	@ 0x38
 8005288:	2200      	movs	r2, #0
 800528a:	496c      	ldr	r1, [pc, #432]	@ (800543c <HAL_I2C_Mem_Read+0x460>)
 800528c:	68f8      	ldr	r0, [r7, #12]
 800528e:	f000 fa55 	bl	800573c <I2C_WaitOnFlagUntilTimeout>
 8005292:	4603      	mov	r3, r0
 8005294:	2b00      	cmp	r3, #0
 8005296:	d001      	beq.n	800529c <HAL_I2C_Mem_Read+0x2c0>
          {
            return HAL_ERROR;
 8005298:	2301      	movs	r3, #1
 800529a:	e0cb      	b.n	8005434 <HAL_I2C_Mem_Read+0x458>
          }

          /* Disable Acknowledge */
          CLEAR_BIT(hi2c->Instance->CR1, I2C_CR1_ACK);
 800529c:	68fb      	ldr	r3, [r7, #12]
 800529e:	681b      	ldr	r3, [r3, #0]
 80052a0:	681a      	ldr	r2, [r3, #0]
 80052a2:	68fb      	ldr	r3, [r7, #12]
 80052a4:	681b      	ldr	r3, [r3, #0]
 80052a6:	f422 6280 	bic.w	r2, r2, #1024	@ 0x400
 80052aa:	601a      	str	r2, [r3, #0]

          /* Read data from DR */
          *hi2c->pBuffPtr = (uint8_t)hi2c->Instance->DR;
 80052ac:	68fb      	ldr	r3, [r7, #12]
 80052ae:	681b      	ldr	r3, [r3, #0]
 80052b0:	691a      	ldr	r2, [r3, #16]
 80052b2:	68fb      	ldr	r3, [r7, #12]
 80052b4:	6a5b      	ldr	r3, [r3, #36]	@ 0x24
 80052b6:	b2d2      	uxtb	r2, r2
 80052b8:	701a      	strb	r2, [r3, #0]

          /* Increment Buffer pointer */
          hi2c->pBuffPtr++;
 80052ba:	68fb      	ldr	r3, [r7, #12]
 80052bc:	6a5b      	ldr	r3, [r3, #36]	@ 0x24
 80052be:	1c5a      	adds	r2, r3, #1
 80052c0:	68fb      	ldr	r3, [r7, #12]
 80052c2:	625a      	str	r2, [r3, #36]	@ 0x24

          /* Update counter */
          hi2c->XferSize--;
 80052c4:	68fb      	ldr	r3, [r7, #12]
 80052c6:	8d1b      	ldrh	r3, [r3, #40]	@ 0x28
 80052c8:	3b01      	subs	r3, #1
 80052ca:	b29a      	uxth	r2, r3
 80052cc:	68fb      	ldr	r3, [r7, #12]
 80052ce:	851a      	strh	r2, [r3, #40]	@ 0x28
          hi2c->XferCount--;
 80052d0:	68fb      	ldr	r3, [r7, #12]
 80052d2:	8d5b      	ldrh	r3, [r3, #42]	@ 0x2a
 80052d4:	b29b      	uxth	r3, r3
 80052d6:	3b01      	subs	r3, #1
 80052d8:	b29a      	uxth	r2, r3
 80052da:	68fb      	ldr	r3, [r7, #12]
 80052dc:	855a      	strh	r2, [r3, #42]	@ 0x2a

          /* Wait until BTF flag is set */
          if (I2C_WaitOnFlagUntilTimeout(hi2c, I2C_FLAG_BTF, RESET, Timeout, tickstart) != HAL_OK)
 80052de:	6a7b      	ldr	r3, [r7, #36]	@ 0x24
 80052e0:	9300      	str	r3, [sp, #0]
 80052e2:	6bbb      	ldr	r3, [r7, #56]	@ 0x38
 80052e4:	2200      	movs	r2, #0
 80052e6:	4955      	ldr	r1, [pc, #340]	@ (800543c <HAL_I2C_Mem_Read+0x460>)
 80052e8:	68f8      	ldr	r0, [r7, #12]
 80052ea:	f000 fa27 	bl	800573c <I2C_WaitOnFlagUntilTimeout>
 80052ee:	4603      	mov	r3, r0
 80052f0:	2b00      	cmp	r3, #0
 80052f2:	d001      	beq.n	80052f8 <HAL_I2C_Mem_Read+0x31c>
          {
            return HAL_ERROR;
 80052f4:	2301      	movs	r3, #1
 80052f6:	e09d      	b.n	8005434 <HAL_I2C_Mem_Read+0x458>
          }

          /* Generate Stop */
          SET_BIT(hi2c->Instance->CR1, I2C_CR1_STOP);
 80052f8:	68fb      	ldr	r3, [r7, #12]
 80052fa:	681b      	ldr	r3, [r3, #0]
 80052fc:	681a      	ldr	r2, [r3, #0]
 80052fe:	68fb      	ldr	r3, [r7, #12]
 8005300:	681b      	ldr	r3, [r3, #0]
 8005302:	f442 7200 	orr.w	r2, r2, #512	@ 0x200
 8005306:	601a      	str	r2, [r3, #0]

          /* Read data from DR */
          *hi2c->pBuffPtr = (uint8_t)hi2c->Instance->DR;
 8005308:	68fb      	ldr	r3, [r7, #12]
 800530a:	681b      	ldr	r3, [r3, #0]
 800530c:	691a      	ldr	r2, [r3, #16]
 800530e:	68fb      	ldr	r3, [r7, #12]
 8005310:	6a5b      	ldr	r3, [r3, #36]	@ 0x24
 8005312:	b2d2      	uxtb	r2, r2
 8005314:	701a      	strb	r2, [r3, #0]

          /* Increment Buffer pointer */
          hi2c->pBuffPtr++;
 8005316:	68fb      	ldr	r3, [r7, #12]
 8005318:	6a5b      	ldr	r3, [r3, #36]	@ 0x24
 800531a:	1c5a      	adds	r2, r3, #1
 800531c:	68fb      	ldr	r3, [r7, #12]
 800531e:	625a      	str	r2, [r3, #36]	@ 0x24

          /* Update counter */
          hi2c->XferSize--;
 8005320:	68fb      	ldr	r3, [r7, #12]
 8005322:	8d1b      	ldrh	r3, [r3, #40]	@ 0x28
 8005324:	3b01      	subs	r3, #1
 8005326:	b29a      	uxth	r2, r3
 8005328:	68fb      	ldr	r3, [r7, #12]
 800532a:	851a      	strh	r2, [r3, #40]	@ 0x28
          hi2c->XferCount--;
 800532c:	68fb      	ldr	r3, [r7, #12]
 800532e:	8d5b      	ldrh	r3, [r3, #42]	@ 0x2a
 8005330:	b29b      	uxth	r3, r3
 8005332:	3b01      	subs	r3, #1
 8005334:	b29a      	uxth	r2, r3
 8005336:	68fb      	ldr	r3, [r7, #12]
 8005338:	855a      	strh	r2, [r3, #42]	@ 0x2a

          /* Read data from DR */
          *hi2c->pBuffPtr = (uint8_t)hi2c->Instance->DR;
 800533a:	68fb      	ldr	r3, [r7, #12]
 800533c:	681b      	ldr	r3, [r3, #0]
 800533e:	691a      	ldr	r2, [r3, #16]
 8005340:	68fb      	ldr	r3, [r7, #12]
 8005342:	6a5b      	ldr	r3, [r3, #36]	@ 0x24
 8005344:	b2d2      	uxtb	r2, r2
 8005346:	701a      	strb	r2, [r3, #0]

          /* Increment Buffer pointer */
          hi2c->pBuffPtr++;
 8005348:	68fb      	ldr	r3, [r7, #12]
 800534a:	6a5b      	ldr	r3, [r3, #36]	@ 0x24
 800534c:	1c5a      	adds	r2, r3, #1
 800534e:	68fb      	ldr	r3, [r7, #12]
 8005350:	625a      	str	r2, [r3, #36]	@ 0x24

          /* Update counter */
          hi2c->XferSize--;
 8005352:	68fb      	ldr	r3, [r7, #12]
 8005354:	8d1b      	ldrh	r3, [r3, #40]	@ 0x28
 8005356:	3b01      	subs	r3, #1
 8005358:	b29a      	uxth	r2, r3
 800535a:	68fb      	ldr	r3, [r7, #12]
 800535c:	851a      	strh	r2, [r3, #40]	@ 0x28
          hi2c->XferCount--;
 800535e:	68fb      	ldr	r3, [r7, #12]
 8005360:	8d5b      	ldrh	r3, [r3, #42]	@ 0x2a
 8005362:	b29b      	uxth	r3, r3
 8005364:	3b01      	subs	r3, #1
 8005366:	b29a      	uxth	r2, r3
 8005368:	68fb      	ldr	r3, [r7, #12]
 800536a:	855a      	strh	r2, [r3, #42]	@ 0x2a
 800536c:	e04e      	b.n	800540c <HAL_I2C_Mem_Read+0x430>
        }
      }
      else
      {
        /* Wait until RXNE flag is set */
        if (I2C_WaitOnRXNEFlagUntilTimeout(hi2c, Timeout, tickstart) != HAL_OK)
 800536e:	6a7a      	ldr	r2, [r7, #36]	@ 0x24
 8005370:	6bb9      	ldr	r1, [r7, #56]	@ 0x38
 8005372:	68f8      	ldr	r0, [r7, #12]
 8005374:	f000 fb8c 	bl	8005a90 <I2C_WaitOnRXNEFlagUntilTimeout>
 8005378:	4603      	mov	r3, r0
 800537a:	2b00      	cmp	r3, #0
 800537c:	d001      	beq.n	8005382 <HAL_I2C_Mem_Read+0x3a6>
        {
          return HAL_ERROR;
 800537e:	2301      	movs	r3, #1
 8005380:	e058      	b.n	8005434 <HAL_I2C_Mem_Read+0x458>
        }

        /* Read data from DR */
        *hi2c->pBuffPtr = (uint8_t)hi2c->Instance->DR;
 8005382:	68fb      	ldr	r3, [r7, #12]
 8005384:	681b      	ldr	r3, [r3, #0]
 8005386:	691a      	ldr	r2, [r3, #16]
 8005388:	68fb      	ldr	r3, [r7, #12]
 800538a:	6a5b      	ldr	r3, [r3, #36]	@ 0x24
 800538c:	b2d2      	uxtb	r2, r2
 800538e:	701a      	strb	r2, [r3, #0]

        /* Increment Buffer pointer */
        hi2c->pBuffPtr++;
 8005390:	68fb      	ldr	r3, [r7, #12]
 8005392:	6a5b      	ldr	r3, [r3, #36]	@ 0x24
 8005394:	1c5a      	adds	r2, r3, #1
 8005396:	68fb      	ldr	r3, [r7, #12]
 8005398:	625a      	str	r2, [r3, #36]	@ 0x24

        /* Update counter */
        hi2c->XferSize--;
 800539a:	68fb      	ldr	r3, [r7, #12]
 800539c:	8d1b      	ldrh	r3, [r3, #40]	@ 0x28
 800539e:	3b01      	subs	r3, #1
 80053a0:	b29a      	uxth	r2, r3
 80053a2:	68fb      	ldr	r3, [r7, #12]
 80053a4:	851a      	strh	r2, [r3, #40]	@ 0x28
        hi2c->XferCount--;
 80053a6:	68fb      	ldr	r3, [r7, #12]
 80053a8:	8d5b      	ldrh	r3, [r3, #42]	@ 0x2a
 80053aa:	b29b      	uxth	r3, r3
 80053ac:	3b01      	subs	r3, #1
 80053ae:	b29a      	uxth	r2, r3
 80053b0:	68fb      	ldr	r3, [r7, #12]
 80053b2:	855a      	strh	r2, [r3, #42]	@ 0x2a

        if (__HAL_I2C_GET_FLAG(hi2c, I2C_FLAG_BTF) == SET)
 80053b4:	68fb      	ldr	r3, [r7, #12]
 80053b6:	681b      	ldr	r3, [r3, #0]
 80053b8:	695b      	ldr	r3, [r3, #20]
 80053ba:	f003 0304 	and.w	r3, r3, #4
 80053be:	2b04      	cmp	r3, #4
 80053c0:	d124      	bne.n	800540c <HAL_I2C_Mem_Read+0x430>
        {
          if (hi2c->XferSize == 3U)
 80053c2:	68fb      	ldr	r3, [r7, #12]
 80053c4:	8d1b      	ldrh	r3, [r3, #40]	@ 0x28
 80053c6:	2b03      	cmp	r3, #3
 80053c8:	d107      	bne.n	80053da <HAL_I2C_Mem_Read+0x3fe>
          {
            /* Disable Acknowledge */
            CLEAR_BIT(hi2c->Instance->CR1, I2C_CR1_ACK);
 80053ca:	68fb      	ldr	r3, [r7, #12]
 80053cc:	681b      	ldr	r3, [r3, #0]
 80053ce:	681a      	ldr	r2, [r3, #0]
 80053d0:	68fb      	ldr	r3, [r7, #12]
 80053d2:	681b      	ldr	r3, [r3, #0]
 80053d4:	f422 6280 	bic.w	r2, r2, #1024	@ 0x400
 80053d8:	601a      	str	r2, [r3, #0]
          }
          /* Read data from DR */
          *hi2c->pBuffPtr = (uint8_t)hi2c->Instance->DR;
 80053da:	68fb      	ldr	r3, [r7, #12]
 80053dc:	681b      	ldr	r3, [r3, #0]
 80053de:	691a      	ldr	r2, [r3, #16]
 80053e0:	68fb      	ldr	r3, [r7, #12]
 80053e2:	6a5b      	ldr	r3, [r3, #36]	@ 0x24
 80053e4:	b2d2      	uxtb	r2, r2
 80053e6:	701a      	strb	r2, [r3, #0]

          /* Increment Buffer pointer */
          hi2c->pBuffPtr++;
 80053e8:	68fb      	ldr	r3, [r7, #12]
 80053ea:	6a5b      	ldr	r3, [r3, #36]	@ 0x24
 80053ec:	1c5a      	adds	r2, r3, #1
 80053ee:	68fb      	ldr	r3, [r7, #12]
 80053f0:	625a      	str	r2, [r3, #36]	@ 0x24

          /* Update counter */
          hi2c->XferSize--;
 80053f2:	68fb      	ldr	r3, [r7, #12]
 80053f4:	8d1b      	ldrh	r3, [r3, #40]	@ 0x28
 80053f6:	3b01      	subs	r3, #1
 80053f8:	b29a      	uxth	r2, r3
 80053fa:	68fb      	ldr	r3, [r7, #12]
 80053fc:	851a      	strh	r2, [r3, #40]	@ 0x28
          hi2c->XferCount--;
 80053fe:	68fb      	ldr	r3, [r7, #12]
 8005400:	8d5b      	ldrh	r3, [r3, #42]	@ 0x2a
 8005402:	b29b      	uxth	r3, r3
 8005404:	3b01      	subs	r3, #1
 8005406:	b29a      	uxth	r2, r3
 8005408:	68fb      	ldr	r3, [r7, #12]
 800540a:	855a      	strh	r2, [r3, #42]	@ 0x2a
    while (hi2c->XferSize > 0U)
 800540c:	68fb      	ldr	r3, [r7, #12]
 800540e:	8d1b      	ldrh	r3, [r3, #40]	@ 0x28
 8005410:	2b00      	cmp	r3, #0
 8005412:	f47f aeb6 	bne.w	8005182 <HAL_I2C_Mem_Read+0x1a6>
        }
      }
    }

    hi2c->State = HAL_I2C_STATE_READY;
 8005416:	68fb      	ldr	r3, [r7, #12]
 8005418:	2220      	movs	r2, #32
 800541a:	f883 203d 	strb.w	r2, [r3, #61]	@ 0x3d
    hi2c->Mode = HAL_I2C_MODE_NONE;
 800541e:	68fb      	ldr	r3, [r7, #12]
 8005420:	2200      	movs	r2, #0
 8005422:	f883 203e 	strb.w	r2, [r3, #62]	@ 0x3e

    /* Process Unlocked */
    __HAL_UNLOCK(hi2c);
 8005426:	68fb      	ldr	r3, [r7, #12]
 8005428:	2200      	movs	r2, #0
 800542a:	f883 203c 	strb.w	r2, [r3, #60]	@ 0x3c

    return HAL_OK;
 800542e:	2300      	movs	r3, #0
 8005430:	e000      	b.n	8005434 <HAL_I2C_Mem_Read+0x458>
  }
  else
  {
    return HAL_BUSY;
 8005432:	2302      	movs	r3, #2
  }
}
 8005434:	4618      	mov	r0, r3
 8005436:	3728      	adds	r7, #40	@ 0x28
 8005438:	46bd      	mov	sp, r7
 800543a:	bd80      	pop	{r7, pc}
 800543c:	00010004 	.word	0x00010004

08005440 <I2C_RequestMemoryWrite>:
  * @param  Timeout Timeout duration
  * @param  Tickstart Tick start value
  * @retval HAL status
  */
static HAL_StatusTypeDef I2C_RequestMemoryWrite(I2C_HandleTypeDef *hi2c, uint16_t DevAddress, uint16_t MemAddress, uint16_t MemAddSize, uint32_t Timeout, uint32_t Tickstart)
{
 8005440:	b580      	push	{r7, lr}
 8005442:	b088      	sub	sp, #32
 8005444:	af02      	add	r7, sp, #8
 8005446:	60f8      	str	r0, [r7, #12]
 8005448:	4608      	mov	r0, r1
 800544a:	4611      	mov	r1, r2
 800544c:	461a      	mov	r2, r3
 800544e:	4603      	mov	r3, r0
 8005450:	817b      	strh	r3, [r7, #10]
 8005452:	460b      	mov	r3, r1
 8005454:	813b      	strh	r3, [r7, #8]
 8005456:	4613      	mov	r3, r2
 8005458:	80fb      	strh	r3, [r7, #6]
  /* Generate Start */
  SET_BIT(hi2c->Instance->CR1, I2C_CR1_START);
 800545a:	68fb      	ldr	r3, [r7, #12]
 800545c:	681b      	ldr	r3, [r3, #0]
 800545e:	681a      	ldr	r2, [r3, #0]
 8005460:	68fb      	ldr	r3, [r7, #12]
 8005462:	681b      	ldr	r3, [r3, #0]
 8005464:	f442 7280 	orr.w	r2, r2, #256	@ 0x100
 8005468:	601a      	str	r2, [r3, #0]

  /* Wait until SB flag is set */
  if (I2C_WaitOnFlagUntilTimeout(hi2c, I2C_FLAG_SB, RESET, Timeout, Tickstart) != HAL_OK)
 800546a:	6a7b      	ldr	r3, [r7, #36]	@ 0x24
 800546c:	9300      	str	r3, [sp, #0]
 800546e:	6a3b      	ldr	r3, [r7, #32]
 8005470:	2200      	movs	r2, #0
 8005472:	f04f 1101 	mov.w	r1, #65537	@ 0x10001
 8005476:	68f8      	ldr	r0, [r7, #12]
 8005478:	f000 f960 	bl	800573c <I2C_WaitOnFlagUntilTimeout>
 800547c:	4603      	mov	r3, r0
 800547e:	2b00      	cmp	r3, #0
 8005480:	d00d      	beq.n	800549e <I2C_RequestMemoryWrite+0x5e>
  {
    if (READ_BIT(hi2c->Instance->CR1, I2C_CR1_START) == I2C_CR1_START)
 8005482:	68fb      	ldr	r3, [r7, #12]
 8005484:	681b      	ldr	r3, [r3, #0]
 8005486:	681b      	ldr	r3, [r3, #0]
 8005488:	f403 7380 	and.w	r3, r3, #256	@ 0x100
 800548c:	f5b3 7f80 	cmp.w	r3, #256	@ 0x100
 8005490:	d103      	bne.n	800549a <I2C_RequestMemoryWrite+0x5a>
    {
      hi2c->ErrorCode = HAL_I2C_WRONG_START;
 8005492:	68fb      	ldr	r3, [r7, #12]
 8005494:	f44f 7200 	mov.w	r2, #512	@ 0x200
 8005498:	641a      	str	r2, [r3, #64]	@ 0x40
    }
    return HAL_TIMEOUT;
 800549a:	2303      	movs	r3, #3
 800549c:	e05f      	b.n	800555e <I2C_RequestMemoryWrite+0x11e>
  }

  /* Send slave address */
  hi2c->Instance->DR = I2C_7BIT_ADD_WRITE(DevAddress);
 800549e:	897b      	ldrh	r3, [r7, #10]
 80054a0:	b2db      	uxtb	r3, r3
 80054a2:	461a      	mov	r2, r3
 80054a4:	68fb      	ldr	r3, [r7, #12]
 80054a6:	681b      	ldr	r3, [r3, #0]
 80054a8:	f002 02fe 	and.w	r2, r2, #254	@ 0xfe
 80054ac:	611a      	str	r2, [r3, #16]

  /* Wait until ADDR flag is set */
  if (I2C_WaitOnMasterAddressFlagUntilTimeout(hi2c, I2C_FLAG_ADDR, Timeout, Tickstart) != HAL_OK)
 80054ae:	6a7b      	ldr	r3, [r7, #36]	@ 0x24
 80054b0:	6a3a      	ldr	r2, [r7, #32]
 80054b2:	492d      	ldr	r1, [pc, #180]	@ (8005568 <I2C_RequestMemoryWrite+0x128>)
 80054b4:	68f8      	ldr	r0, [r7, #12]
 80054b6:	f000 f9bb 	bl	8005830 <I2C_WaitOnMasterAddressFlagUntilTimeout>
 80054ba:	4603      	mov	r3, r0
 80054bc:	2b00      	cmp	r3, #0
 80054be:	d001      	beq.n	80054c4 <I2C_RequestMemoryWrite+0x84>
  {
    return HAL_ERROR;
 80054c0:	2301      	movs	r3, #1
 80054c2:	e04c      	b.n	800555e <I2C_RequestMemoryWrite+0x11e>
  }

  /* Clear ADDR flag */
  __HAL_I2C_CLEAR_ADDRFLAG(hi2c);
 80054c4:	2300      	movs	r3, #0
 80054c6:	617b      	str	r3, [r7, #20]
 80054c8:	68fb      	ldr	r3, [r7, #12]
 80054ca:	681b      	ldr	r3, [r3, #0]
 80054cc:	695b      	ldr	r3, [r3, #20]
 80054ce:	617b      	str	r3, [r7, #20]
 80054d0:	68fb      	ldr	r3, [r7, #12]
 80054d2:	681b      	ldr	r3, [r3, #0]
 80054d4:	699b      	ldr	r3, [r3, #24]
 80054d6:	617b      	str	r3, [r7, #20]
 80054d8:	697b      	ldr	r3, [r7, #20]

  /* Wait until TXE flag is set */
  if (I2C_WaitOnTXEFlagUntilTimeout(hi2c, Timeout, Tickstart) != HAL_OK)
 80054da:	6a7a      	ldr	r2, [r7, #36]	@ 0x24
 80054dc:	6a39      	ldr	r1, [r7, #32]
 80054de:	68f8      	ldr	r0, [r7, #12]
 80054e0:	f000 fa46 	bl	8005970 <I2C_WaitOnTXEFlagUntilTimeout>
 80054e4:	4603      	mov	r3, r0
 80054e6:	2b00      	cmp	r3, #0
 80054e8:	d00d      	beq.n	8005506 <I2C_RequestMemoryWrite+0xc6>
  {
    if (hi2c->ErrorCode == HAL_I2C_ERROR_AF)
 80054ea:	68fb      	ldr	r3, [r7, #12]
 80054ec:	6c1b      	ldr	r3, [r3, #64]	@ 0x40
 80054ee:	2b04      	cmp	r3, #4
 80054f0:	d107      	bne.n	8005502 <I2C_RequestMemoryWrite+0xc2>
    {
      /* Generate Stop */
      SET_BIT(hi2c->Instance->CR1, I2C_CR1_STOP);
 80054f2:	68fb      	ldr	r3, [r7, #12]
 80054f4:	681b      	ldr	r3, [r3, #0]
 80054f6:	681a      	ldr	r2, [r3, #0]
 80054f8:	68fb      	ldr	r3, [r7, #12]
 80054fa:	681b      	ldr	r3, [r3, #0]
 80054fc:	f442 7200 	orr.w	r2, r2, #512	@ 0x200
 8005500:	601a      	str	r2, [r3, #0]
    }
    return HAL_ERROR;
 8005502:	2301      	movs	r3, #1
 8005504:	e02b      	b.n	800555e <I2C_RequestMemoryWrite+0x11e>
  }

  /* If Memory address size is 8Bit */
  if (MemAddSize == I2C_MEMADD_SIZE_8BIT)
 8005506:	88fb      	ldrh	r3, [r7, #6]
 8005508:	2b01      	cmp	r3, #1
 800550a:	d105      	bne.n	8005518 <I2C_RequestMemoryWrite+0xd8>
  {
    /* Send Memory Address */
    hi2c->Instance->DR = I2C_MEM_ADD_LSB(MemAddress);
 800550c:	893b      	ldrh	r3, [r7, #8]
 800550e:	b2da      	uxtb	r2, r3
 8005510:	68fb      	ldr	r3, [r7, #12]
 8005512:	681b      	ldr	r3, [r3, #0]
 8005514:	611a      	str	r2, [r3, #16]
 8005516:	e021      	b.n	800555c <I2C_RequestMemoryWrite+0x11c>
  }
  /* If Memory address size is 16Bit */
  else
  {
    /* Send MSB of Memory Address */
    hi2c->Instance->DR = I2C_MEM_ADD_MSB(MemAddress);
 8005518:	893b      	ldrh	r3, [r7, #8]
 800551a:	0a1b      	lsrs	r3, r3, #8
 800551c:	b29b      	uxth	r3, r3
 800551e:	b2da      	uxtb	r2, r3
 8005520:	68fb      	ldr	r3, [r7, #12]
 8005522:	681b      	ldr	r3, [r3, #0]
 8005524:	611a      	str	r2, [r3, #16]

    /* Wait until TXE flag is set */
    if (I2C_WaitOnTXEFlagUntilTimeout(hi2c, Timeout, Tickstart) != HAL_OK)
 8005526:	6a7a      	ldr	r2, [r7, #36]	@ 0x24
 8005528:	6a39      	ldr	r1, [r7, #32]
 800552a:	68f8      	ldr	r0, [r7, #12]
 800552c:	f000 fa20 	bl	8005970 <I2C_WaitOnTXEFlagUntilTimeout>
 8005530:	4603      	mov	r3, r0
 8005532:	2b00      	cmp	r3, #0
 8005534:	d00d      	beq.n	8005552 <I2C_RequestMemoryWrite+0x112>
    {
      if (hi2c->ErrorCode == HAL_I2C_ERROR_AF)
 8005536:	68fb      	ldr	r3, [r7, #12]
 8005538:	6c1b      	ldr	r3, [r3, #64]	@ 0x40
 800553a:	2b04      	cmp	r3, #4
 800553c:	d107      	bne.n	800554e <I2C_RequestMemoryWrite+0x10e>
      {
        /* Generate Stop */
        SET_BIT(hi2c->Instance->CR1, I2C_CR1_STOP);
 800553e:	68fb      	ldr	r3, [r7, #12]
 8005540:	681b      	ldr	r3, [r3, #0]
 8005542:	681a      	ldr	r2, [r3, #0]
 8005544:	68fb      	ldr	r3, [r7, #12]
 8005546:	681b      	ldr	r3, [r3, #0]
 8005548:	f442 7200 	orr.w	r2, r2, #512	@ 0x200
 800554c:	601a      	str	r2, [r3, #0]
      }
      return HAL_ERROR;
 800554e:	2301      	movs	r3, #1
 8005550:	e005      	b.n	800555e <I2C_RequestMemoryWrite+0x11e>
    }

    /* Send LSB of Memory Address */
    hi2c->Instance->DR = I2C_MEM_ADD_LSB(MemAddress);
 8005552:	893b      	ldrh	r3, [r7, #8]
 8005554:	b2da      	uxtb	r2, r3
 8005556:	68fb      	ldr	r3, [r7, #12]
 8005558:	681b      	ldr	r3, [r3, #0]
 800555a:	611a      	str	r2, [r3, #16]
  }

  return HAL_OK;
 800555c:	2300      	movs	r3, #0
}
 800555e:	4618      	mov	r0, r3
 8005560:	3718      	adds	r7, #24
 8005562:	46bd      	mov	sp, r7
 8005564:	bd80      	pop	{r7, pc}
 8005566:	bf00      	nop
 8005568:	00010002 	.word	0x00010002

0800556c <I2C_RequestMemoryRead>:
  * @param  Timeout Timeout duration
  * @param  Tickstart Tick start value
  * @retval HAL status
  */
static HAL_StatusTypeDef I2C_RequestMemoryRead(I2C_HandleTypeDef *hi2c, uint16_t DevAddress, uint16_t MemAddress, uint16_t MemAddSize, uint32_t Timeout, uint32_t Tickstart)
{
 800556c:	b580      	push	{r7, lr}
 800556e:	b088      	sub	sp, #32
 8005570:	af02      	add	r7, sp, #8
 8005572:	60f8      	str	r0, [r7, #12]
 8005574:	4608      	mov	r0, r1
 8005576:	4611      	mov	r1, r2
 8005578:	461a      	mov	r2, r3
 800557a:	4603      	mov	r3, r0
 800557c:	817b      	strh	r3, [r7, #10]
 800557e:	460b      	mov	r3, r1
 8005580:	813b      	strh	r3, [r7, #8]
 8005582:	4613      	mov	r3, r2
 8005584:	80fb      	strh	r3, [r7, #6]
  /* Enable Acknowledge */
  SET_BIT(hi2c->Instance->CR1, I2C_CR1_ACK);
 8005586:	68fb      	ldr	r3, [r7, #12]
 8005588:	681b      	ldr	r3, [r3, #0]
 800558a:	681a      	ldr	r2, [r3, #0]
 800558c:	68fb      	ldr	r3, [r7, #12]
 800558e:	681b      	ldr	r3, [r3, #0]
 8005590:	f442 6280 	orr.w	r2, r2, #1024	@ 0x400
 8005594:	601a      	str	r2, [r3, #0]

  /* Generate Start */
  SET_BIT(hi2c->Instance->CR1, I2C_CR1_START);
 8005596:	68fb      	ldr	r3, [r7, #12]
 8005598:	681b      	ldr	r3, [r3, #0]
 800559a:	681a      	ldr	r2, [r3, #0]
 800559c:	68fb      	ldr	r3, [r7, #12]
 800559e:	681b      	ldr	r3, [r3, #0]
 80055a0:	f442 7280 	orr.w	r2, r2, #256	@ 0x100
 80055a4:	601a      	str	r2, [r3, #0]

  /* Wait until SB flag is set */
  if (I2C_WaitOnFlagUntilTimeout(hi2c, I2C_FLAG_SB, RESET, Timeout, Tickstart) != HAL_OK)
 80055a6:	6a7b      	ldr	r3, [r7, #36]	@ 0x24
 80055a8:	9300      	str	r3, [sp, #0]
 80055aa:	6a3b      	ldr	r3, [r7, #32]
 80055ac:	2200      	movs	r2, #0
 80055ae:	f04f 1101 	mov.w	r1, #65537	@ 0x10001
 80055b2:	68f8      	ldr	r0, [r7, #12]
 80055b4:	f000 f8c2 	bl	800573c <I2C_WaitOnFlagUntilTimeout>
 80055b8:	4603      	mov	r3, r0
 80055ba:	2b00      	cmp	r3, #0
 80055bc:	d00d      	beq.n	80055da <I2C_RequestMemoryRead+0x6e>
  {
    if (READ_BIT(hi2c->Instance->CR1, I2C_CR1_START) == I2C_CR1_START)
 80055be:	68fb      	ldr	r3, [r7, #12]
 80055c0:	681b      	ldr	r3, [r3, #0]
 80055c2:	681b      	ldr	r3, [r3, #0]
 80055c4:	f403 7380 	and.w	r3, r3, #256	@ 0x100
 80055c8:	f5b3 7f80 	cmp.w	r3, #256	@ 0x100
 80055cc:	d103      	bne.n	80055d6 <I2C_RequestMemoryRead+0x6a>
    {
      hi2c->ErrorCode = HAL_I2C_WRONG_START;
 80055ce:	68fb      	ldr	r3, [r7, #12]
 80055d0:	f44f 7200 	mov.w	r2, #512	@ 0x200
 80055d4:	641a      	str	r2, [r3, #64]	@ 0x40
    }
    return HAL_TIMEOUT;
 80055d6:	2303      	movs	r3, #3
 80055d8:	e0aa      	b.n	8005730 <I2C_RequestMemoryRead+0x1c4>
  }

  /* Send slave address */
  hi2c->Instance->DR = I2C_7BIT_ADD_WRITE(DevAddress);
 80055da:	897b      	ldrh	r3, [r7, #10]
 80055dc:	b2db      	uxtb	r3, r3
 80055de:	461a      	mov	r2, r3
 80055e0:	68fb      	ldr	r3, [r7, #12]
 80055e2:	681b      	ldr	r3, [r3, #0]
 80055e4:	f002 02fe 	and.w	r2, r2, #254	@ 0xfe
 80055e8:	611a      	str	r2, [r3, #16]

  /* Wait until ADDR flag is set */
  if (I2C_WaitOnMasterAddressFlagUntilTimeout(hi2c, I2C_FLAG_ADDR, Timeout, Tickstart) != HAL_OK)
 80055ea:	6a7b      	ldr	r3, [r7, #36]	@ 0x24
 80055ec:	6a3a      	ldr	r2, [r7, #32]
 80055ee:	4952      	ldr	r1, [pc, #328]	@ (8005738 <I2C_RequestMemoryRead+0x1cc>)
 80055f0:	68f8      	ldr	r0, [r7, #12]
 80055f2:	f000 f91d 	bl	8005830 <I2C_WaitOnMasterAddressFlagUntilTimeout>
 80055f6:	4603      	mov	r3, r0
 80055f8:	2b00      	cmp	r3, #0
 80055fa:	d001      	beq.n	8005600 <I2C_RequestMemoryRead+0x94>
  {
    return HAL_ERROR;
 80055fc:	2301      	movs	r3, #1
 80055fe:	e097      	b.n	8005730 <I2C_RequestMemoryRead+0x1c4>
  }

  /* Clear ADDR flag */
  __HAL_I2C_CLEAR_ADDRFLAG(hi2c);
 8005600:	2300      	movs	r3, #0
 8005602:	617b      	str	r3, [r7, #20]
 8005604:	68fb      	ldr	r3, [r7, #12]
 8005606:	681b      	ldr	r3, [r3, #0]
 8005608:	695b      	ldr	r3, [r3, #20]
 800560a:	617b      	str	r3, [r7, #20]
 800560c:	68fb      	ldr	r3, [r7, #12]
 800560e:	681b      	ldr	r3, [r3, #0]
 8005610:	699b      	ldr	r3, [r3, #24]
 8005612:	617b      	str	r3, [r7, #20]
 8005614:	697b      	ldr	r3, [r7, #20]

  /* Wait until TXE flag is set */
  if (I2C_WaitOnTXEFlagUntilTimeout(hi2c, Timeout, Tickstart) != HAL_OK)
 8005616:	6a7a      	ldr	r2, [r7, #36]	@ 0x24
 8005618:	6a39      	ldr	r1, [r7, #32]
 800561a:	68f8      	ldr	r0, [r7, #12]
 800561c:	f000 f9a8 	bl	8005970 <I2C_WaitOnTXEFlagUntilTimeout>
 8005620:	4603      	mov	r3, r0
 8005622:	2b00      	cmp	r3, #0
 8005624:	d00d      	beq.n	8005642 <I2C_RequestMemoryRead+0xd6>
  {
    if (hi2c->ErrorCode == HAL_I2C_ERROR_AF)
 8005626:	68fb      	ldr	r3, [r7, #12]
 8005628:	6c1b      	ldr	r3, [r3, #64]	@ 0x40
 800562a:	2b04      	cmp	r3, #4
 800562c:	d107      	bne.n	800563e <I2C_RequestMemoryRead+0xd2>
    {
      /* Generate Stop */
      SET_BIT(hi2c->Instance->CR1, I2C_CR1_STOP);
 800562e:	68fb      	ldr	r3, [r7, #12]
 8005630:	681b      	ldr	r3, [r3, #0]
 8005632:	681a      	ldr	r2, [r3, #0]
 8005634:	68fb      	ldr	r3, [r7, #12]
 8005636:	681b      	ldr	r3, [r3, #0]
 8005638:	f442 7200 	orr.w	r2, r2, #512	@ 0x200
 800563c:	601a      	str	r2, [r3, #0]
    }
    return HAL_ERROR;
 800563e:	2301      	movs	r3, #1
 8005640:	e076      	b.n	8005730 <I2C_RequestMemoryRead+0x1c4>
  }

  /* If Memory address size is 8Bit */
  if (MemAddSize == I2C_MEMADD_SIZE_8BIT)
 8005642:	88fb      	ldrh	r3, [r7, #6]
 8005644:	2b01      	cmp	r3, #1
 8005646:	d105      	bne.n	8005654 <I2C_RequestMemoryRead+0xe8>
  {
    /* Send Memory Address */
    hi2c->Instance->DR = I2C_MEM_ADD_LSB(MemAddress);
 8005648:	893b      	ldrh	r3, [r7, #8]
 800564a:	b2da      	uxtb	r2, r3
 800564c:	68fb      	ldr	r3, [r7, #12]
 800564e:	681b      	ldr	r3, [r3, #0]
 8005650:	611a      	str	r2, [r3, #16]
 8005652:	e021      	b.n	8005698 <I2C_RequestMemoryRead+0x12c>
  }
  /* If Memory address size is 16Bit */
  else
  {
    /* Send MSB of Memory Address */
    hi2c->Instance->DR = I2C_MEM_ADD_MSB(MemAddress);
 8005654:	893b      	ldrh	r3, [r7, #8]
 8005656:	0a1b      	lsrs	r3, r3, #8
 8005658:	b29b      	uxth	r3, r3
 800565a:	b2da      	uxtb	r2, r3
 800565c:	68fb      	ldr	r3, [r7, #12]
 800565e:	681b      	ldr	r3, [r3, #0]
 8005660:	611a      	str	r2, [r3, #16]

    /* Wait until TXE flag is set */
    if (I2C_WaitOnTXEFlagUntilTimeout(hi2c, Timeout, Tickstart) != HAL_OK)
 8005662:	6a7a      	ldr	r2, [r7, #36]	@ 0x24
 8005664:	6a39      	ldr	r1, [r7, #32]
 8005666:	68f8      	ldr	r0, [r7, #12]
 8005668:	f000 f982 	bl	8005970 <I2C_WaitOnTXEFlagUntilTimeout>
 800566c:	4603      	mov	r3, r0
 800566e:	2b00      	cmp	r3, #0
 8005670:	d00d      	beq.n	800568e <I2C_RequestMemoryRead+0x122>
    {
      if (hi2c->ErrorCode == HAL_I2C_ERROR_AF)
 8005672:	68fb      	ldr	r3, [r7, #12]
 8005674:	6c1b      	ldr	r3, [r3, #64]	@ 0x40
 8005676:	2b04      	cmp	r3, #4
 8005678:	d107      	bne.n	800568a <I2C_RequestMemoryRead+0x11e>
      {
        /* Generate Stop */
        SET_BIT(hi2c->Instance->CR1, I2C_CR1_STOP);
 800567a:	68fb      	ldr	r3, [r7, #12]
 800567c:	681b      	ldr	r3, [r3, #0]
 800567e:	681a      	ldr	r2, [r3, #0]
 8005680:	68fb      	ldr	r3, [r7, #12]
 8005682:	681b      	ldr	r3, [r3, #0]
 8005684:	f442 7200 	orr.w	r2, r2, #512	@ 0x200
 8005688:	601a      	str	r2, [r3, #0]
      }
      return HAL_ERROR;
 800568a:	2301      	movs	r3, #1
 800568c:	e050      	b.n	8005730 <I2C_RequestMemoryRead+0x1c4>
    }

    /* Send LSB of Memory Address */
    hi2c->Instance->DR = I2C_MEM_ADD_LSB(MemAddress);
 800568e:	893b      	ldrh	r3, [r7, #8]
 8005690:	b2da      	uxtb	r2, r3
 8005692:	68fb      	ldr	r3, [r7, #12]
 8005694:	681b      	ldr	r3, [r3, #0]
 8005696:	611a      	str	r2, [r3, #16]
  }

  /* Wait until TXE flag is set */
  if (I2C_WaitOnTXEFlagUntilTimeout(hi2c, Timeout, Tickstart) != HAL_OK)
 8005698:	6a7a      	ldr	r2, [r7, #36]	@ 0x24
 800569a:	6a39      	ldr	r1, [r7, #32]
 800569c:	68f8      	ldr	r0, [r7, #12]
 800569e:	f000 f967 	bl	8005970 <I2C_WaitOnTXEFlagUntilTimeout>
 80056a2:	4603      	mov	r3, r0
 80056a4:	2b00      	cmp	r3, #0
 80056a6:	d00d      	beq.n	80056c4 <I2C_RequestMemoryRead+0x158>
  {
    if (hi2c->ErrorCode == HAL_I2C_ERROR_AF)
 80056a8:	68fb      	ldr	r3, [r7, #12]
 80056aa:	6c1b      	ldr	r3, [r3, #64]	@ 0x40
 80056ac:	2b04      	cmp	r3, #4
 80056ae:	d107      	bne.n	80056c0 <I2C_RequestMemoryRead+0x154>
    {
      /* Generate Stop */
      SET_BIT(hi2c->Instance->CR1, I2C_CR1_STOP);
 80056b0:	68fb      	ldr	r3, [r7, #12]
 80056b2:	681b      	ldr	r3, [r3, #0]
 80056b4:	681a      	ldr	r2, [r3, #0]
 80056b6:	68fb      	ldr	r3, [r7, #12]
 80056b8:	681b      	ldr	r3, [r3, #0]
 80056ba:	f442 7200 	orr.w	r2, r2, #512	@ 0x200
 80056be:	601a      	str	r2, [r3, #0]
    }
    return HAL_ERROR;
 80056c0:	2301      	movs	r3, #1
 80056c2:	e035      	b.n	8005730 <I2C_RequestMemoryRead+0x1c4>
  }

  /* Generate Restart */
  SET_BIT(hi2c->Instance->CR1, I2C_CR1_START);
 80056c4:	68fb      	ldr	r3, [r7, #12]
 80056c6:	681b      	ldr	r3, [r3, #0]
 80056c8:	681a      	ldr	r2, [r3, #0]
 80056ca:	68fb      	ldr	r3, [r7, #12]
 80056cc:	681b      	ldr	r3, [r3, #0]
 80056ce:	f442 7280 	orr.w	r2, r2, #256	@ 0x100
 80056d2:	601a      	str	r2, [r3, #0]

  /* Wait until SB flag is set */
  if (I2C_WaitOnFlagUntilTimeout(hi2c, I2C_FLAG_SB, RESET, Timeout, Tickstart) != HAL_OK)
 80056d4:	6a7b      	ldr	r3, [r7, #36]	@ 0x24
 80056d6:	9300      	str	r3, [sp, #0]
 80056d8:	6a3b      	ldr	r3, [r7, #32]
 80056da:	2200      	movs	r2, #0
 80056dc:	f04f 1101 	mov.w	r1, #65537	@ 0x10001
 80056e0:	68f8      	ldr	r0, [r7, #12]
 80056e2:	f000 f82b 	bl	800573c <I2C_WaitOnFlagUntilTimeout>
 80056e6:	4603      	mov	r3, r0
 80056e8:	2b00      	cmp	r3, #0
 80056ea:	d00d      	beq.n	8005708 <I2C_RequestMemoryRead+0x19c>
  {
    if (READ_BIT(hi2c->Instance->CR1, I2C_CR1_START) == I2C_CR1_START)
 80056ec:	68fb      	ldr	r3, [r7, #12]
 80056ee:	681b      	ldr	r3, [r3, #0]
 80056f0:	681b      	ldr	r3, [r3, #0]
 80056f2:	f403 7380 	and.w	r3, r3, #256	@ 0x100
 80056f6:	f5b3 7f80 	cmp.w	r3, #256	@ 0x100
 80056fa:	d103      	bne.n	8005704 <I2C_RequestMemoryRead+0x198>
    {
      hi2c->ErrorCode = HAL_I2C_WRONG_START;
 80056fc:	68fb      	ldr	r3, [r7, #12]
 80056fe:	f44f 7200 	mov.w	r2, #512	@ 0x200
 8005702:	641a      	str	r2, [r3, #64]	@ 0x40
    }
    return HAL_TIMEOUT;
 8005704:	2303      	movs	r3, #3
 8005706:	e013      	b.n	8005730 <I2C_RequestMemoryRead+0x1c4>
  }

  /* Send slave address */
  hi2c->Instance->DR = I2C_7BIT_ADD_READ(DevAddress);
 8005708:	897b      	ldrh	r3, [r7, #10]
 800570a:	b2db      	uxtb	r3, r3
 800570c:	f043 0301 	orr.w	r3, r3, #1
 8005710:	b2da      	uxtb	r2, r3
 8005712:	68fb      	ldr	r3, [r7, #12]
 8005714:	681b      	ldr	r3, [r3, #0]
 8005716:	611a      	str	r2, [r3, #16]

  /* Wait until ADDR flag is set */
  if (I2C_WaitOnMasterAddressFlagUntilTimeout(hi2c, I2C_FLAG_ADDR, Timeout, Tickstart) != HAL_OK)
 8005718:	6a7b      	ldr	r3, [r7, #36]	@ 0x24
 800571a:	6a3a      	ldr	r2, [r7, #32]
 800571c:	4906      	ldr	r1, [pc, #24]	@ (8005738 <I2C_RequestMemoryRead+0x1cc>)
 800571e:	68f8      	ldr	r0, [r7, #12]
 8005720:	f000 f886 	bl	8005830 <I2C_WaitOnMasterAddressFlagUntilTimeout>
 8005724:	4603      	mov	r3, r0
 8005726:	2b00      	cmp	r3, #0
 8005728:	d001      	beq.n	800572e <I2C_RequestMemoryRead+0x1c2>
  {
    return HAL_ERROR;
 800572a:	2301      	movs	r3, #1
 800572c:	e000      	b.n	8005730 <I2C_RequestMemoryRead+0x1c4>
  }

  return HAL_OK;
 800572e:	2300      	movs	r3, #0
}
 8005730:	4618      	mov	r0, r3
 8005732:	3718      	adds	r7, #24
 8005734:	46bd      	mov	sp, r7
 8005736:	bd80      	pop	{r7, pc}
 8005738:	00010002 	.word	0x00010002

0800573c <I2C_WaitOnFlagUntilTimeout>:
  * @param  Timeout Timeout duration
  * @param  Tickstart Tick start value
  * @retval HAL status
  */
static HAL_StatusTypeDef I2C_WaitOnFlagUntilTimeout(I2C_HandleTypeDef *hi2c, uint32_t Flag, FlagStatus Status, uint32_t Timeout, uint32_t Tickstart)
{
 800573c:	b580      	push	{r7, lr}
 800573e:	b084      	sub	sp, #16
 8005740:	af00      	add	r7, sp, #0
 8005742:	60f8      	str	r0, [r7, #12]
 8005744:	60b9      	str	r1, [r7, #8]
 8005746:	603b      	str	r3, [r7, #0]
 8005748:	4613      	mov	r3, r2
 800574a:	71fb      	strb	r3, [r7, #7]
  /* Wait until flag is set */
  while (__HAL_I2C_GET_FLAG(hi2c, Flag) == Status)
 800574c:	e048      	b.n	80057e0 <I2C_WaitOnFlagUntilTimeout+0xa4>
  {
    /* Check for the Timeout */
    if (Timeout != HAL_MAX_DELAY)
 800574e:	683b      	ldr	r3, [r7, #0]
 8005750:	f1b3 3fff 	cmp.w	r3, #4294967295
 8005754:	d044      	beq.n	80057e0 <I2C_WaitOnFlagUntilTimeout+0xa4>
    {
      if (((HAL_GetTick() - Tickstart) > Timeout) || (Timeout == 0U))
 8005756:	f7fe ff27 	bl	80045a8 <HAL_GetTick>
 800575a:	4602      	mov	r2, r0
 800575c:	69bb      	ldr	r3, [r7, #24]
 800575e:	1ad3      	subs	r3, r2, r3
 8005760:	683a      	ldr	r2, [r7, #0]
 8005762:	429a      	cmp	r2, r3
 8005764:	d302      	bcc.n	800576c <I2C_WaitOnFlagUntilTimeout+0x30>
 8005766:	683b      	ldr	r3, [r7, #0]
 8005768:	2b00      	cmp	r3, #0
 800576a:	d139      	bne.n	80057e0 <I2C_WaitOnFlagUntilTimeout+0xa4>
      {
        if ((__HAL_I2C_GET_FLAG(hi2c, Flag) == Status))
 800576c:	68bb      	ldr	r3, [r7, #8]
 800576e:	0c1b      	lsrs	r3, r3, #16
 8005770:	b2db      	uxtb	r3, r3
 8005772:	2b01      	cmp	r3, #1
 8005774:	d10d      	bne.n	8005792 <I2C_WaitOnFlagUntilTimeout+0x56>
 8005776:	68fb      	ldr	r3, [r7, #12]
 8005778:	681b      	ldr	r3, [r3, #0]
 800577a:	695b      	ldr	r3, [r3, #20]
 800577c:	43da      	mvns	r2, r3
 800577e:	68bb      	ldr	r3, [r7, #8]
 8005780:	4013      	ands	r3, r2
 8005782:	b29b      	uxth	r3, r3
 8005784:	2b00      	cmp	r3, #0
 8005786:	bf0c      	ite	eq
 8005788:	2301      	moveq	r3, #1
 800578a:	2300      	movne	r3, #0
 800578c:	b2db      	uxtb	r3, r3
 800578e:	461a      	mov	r2, r3
 8005790:	e00c      	b.n	80057ac <I2C_WaitOnFlagUntilTimeout+0x70>
 8005792:	68fb      	ldr	r3, [r7, #12]
 8005794:	681b      	ldr	r3, [r3, #0]
 8005796:	699b      	ldr	r3, [r3, #24]
 8005798:	43da      	mvns	r2, r3
 800579a:	68bb      	ldr	r3, [r7, #8]
 800579c:	4013      	ands	r3, r2
 800579e:	b29b      	uxth	r3, r3
 80057a0:	2b00      	cmp	r3, #0
 80057a2:	bf0c      	ite	eq
 80057a4:	2301      	moveq	r3, #1
 80057a6:	2300      	movne	r3, #0
 80057a8:	b2db      	uxtb	r3, r3
 80057aa:	461a      	mov	r2, r3
 80057ac:	79fb      	ldrb	r3, [r7, #7]
 80057ae:	429a      	cmp	r2, r3
 80057b0:	d116      	bne.n	80057e0 <I2C_WaitOnFlagUntilTimeout+0xa4>
        {
          hi2c->PreviousState     = I2C_STATE_NONE;
 80057b2:	68fb      	ldr	r3, [r7, #12]
 80057b4:	2200      	movs	r2, #0
 80057b6:	631a      	str	r2, [r3, #48]	@ 0x30
          hi2c->State             = HAL_I2C_STATE_READY;
 80057b8:	68fb      	ldr	r3, [r7, #12]
 80057ba:	2220      	movs	r2, #32
 80057bc:	f883 203d 	strb.w	r2, [r3, #61]	@ 0x3d
          hi2c->Mode              = HAL_I2C_MODE_NONE;
 80057c0:	68fb      	ldr	r3, [r7, #12]
 80057c2:	2200      	movs	r2, #0
 80057c4:	f883 203e 	strb.w	r2, [r3, #62]	@ 0x3e
          hi2c->ErrorCode         |= HAL_I2C_ERROR_TIMEOUT;
 80057c8:	68fb      	ldr	r3, [r7, #12]
 80057ca:	6c1b      	ldr	r3, [r3, #64]	@ 0x40
 80057cc:	f043 0220 	orr.w	r2, r3, #32
 80057d0:	68fb      	ldr	r3, [r7, #12]
 80057d2:	641a      	str	r2, [r3, #64]	@ 0x40

          /* Process Unlocked */
          __HAL_UNLOCK(hi2c);
 80057d4:	68fb      	ldr	r3, [r7, #12]
 80057d6:	2200      	movs	r2, #0
 80057d8:	f883 203c 	strb.w	r2, [r3, #60]	@ 0x3c

          return HAL_ERROR;
 80057dc:	2301      	movs	r3, #1
 80057de:	e023      	b.n	8005828 <I2C_WaitOnFlagUntilTimeout+0xec>
  while (__HAL_I2C_GET_FLAG(hi2c, Flag) == Status)
 80057e0:	68bb      	ldr	r3, [r7, #8]
 80057e2:	0c1b      	lsrs	r3, r3, #16
 80057e4:	b2db      	uxtb	r3, r3
 80057e6:	2b01      	cmp	r3, #1
 80057e8:	d10d      	bne.n	8005806 <I2C_WaitOnFlagUntilTimeout+0xca>
 80057ea:	68fb      	ldr	r3, [r7, #12]
 80057ec:	681b      	ldr	r3, [r3, #0]
 80057ee:	695b      	ldr	r3, [r3, #20]
 80057f0:	43da      	mvns	r2, r3
 80057f2:	68bb      	ldr	r3, [r7, #8]
 80057f4:	4013      	ands	r3, r2
 80057f6:	b29b      	uxth	r3, r3
 80057f8:	2b00      	cmp	r3, #0
 80057fa:	bf0c      	ite	eq
 80057fc:	2301      	moveq	r3, #1
 80057fe:	2300      	movne	r3, #0
 8005800:	b2db      	uxtb	r3, r3
 8005802:	461a      	mov	r2, r3
 8005804:	e00c      	b.n	8005820 <I2C_WaitOnFlagUntilTimeout+0xe4>
 8005806:	68fb      	ldr	r3, [r7, #12]
 8005808:	681b      	ldr	r3, [r3, #0]
 800580a:	699b      	ldr	r3, [r3, #24]
 800580c:	43da      	mvns	r2, r3
 800580e:	68bb      	ldr	r3, [r7, #8]
 8005810:	4013      	ands	r3, r2
 8005812:	b29b      	uxth	r3, r3
 8005814:	2b00      	cmp	r3, #0
 8005816:	bf0c      	ite	eq
 8005818:	2301      	moveq	r3, #1
 800581a:	2300      	movne	r3, #0
 800581c:	b2db      	uxtb	r3, r3
 800581e:	461a      	mov	r2, r3
 8005820:	79fb      	ldrb	r3, [r7, #7]
 8005822:	429a      	cmp	r2, r3
 8005824:	d093      	beq.n	800574e <I2C_WaitOnFlagUntilTimeout+0x12>
        }
      }
    }
  }
  return HAL_OK;
 8005826:	2300      	movs	r3, #0
}
 8005828:	4618      	mov	r0, r3
 800582a:	3710      	adds	r7, #16
 800582c:	46bd      	mov	sp, r7
 800582e:	bd80      	pop	{r7, pc}

08005830 <I2C_WaitOnMasterAddressFlagUntilTimeout>:
  * @param  Timeout Timeout duration
  * @param  Tickstart Tick start value
  * @retval HAL status
  */
static HAL_StatusTypeDef I2C_WaitOnMasterAddressFlagUntilTimeout(I2C_HandleTypeDef *hi2c, uint32_t Flag, uint32_t Timeout, uint32_t Tickstart)
{
 8005830:	b580      	push	{r7, lr}
 8005832:	b084      	sub	sp, #16
 8005834:	af00      	add	r7, sp, #0
 8005836:	60f8      	str	r0, [r7, #12]
 8005838:	60b9      	str	r1, [r7, #8]
 800583a:	607a      	str	r2, [r7, #4]
 800583c:	603b      	str	r3, [r7, #0]
  while (__HAL_I2C_GET_FLAG(hi2c, Flag) == RESET)
 800583e:	e071      	b.n	8005924 <I2C_WaitOnMasterAddressFlagUntilTimeout+0xf4>
  {
    if (__HAL_I2C_GET_FLAG(hi2c, I2C_FLAG_AF) == SET)
 8005840:	68fb      	ldr	r3, [r7, #12]
 8005842:	681b      	ldr	r3, [r3, #0]
 8005844:	695b      	ldr	r3, [r3, #20]
 8005846:	f403 6380 	and.w	r3, r3, #1024	@ 0x400
 800584a:	f5b3 6f80 	cmp.w	r3, #1024	@ 0x400
 800584e:	d123      	bne.n	8005898 <I2C_WaitOnMasterAddressFlagUntilTimeout+0x68>
    {
      /* Generate Stop */
      SET_BIT(hi2c->Instance->CR1, I2C_CR1_STOP);
 8005850:	68fb      	ldr	r3, [r7, #12]
 8005852:	681b      	ldr	r3, [r3, #0]
 8005854:	681a      	ldr	r2, [r3, #0]
 8005856:	68fb      	ldr	r3, [r7, #12]
 8005858:	681b      	ldr	r3, [r3, #0]
 800585a:	f442 7200 	orr.w	r2, r2, #512	@ 0x200
 800585e:	601a      	str	r2, [r3, #0]

      /* Clear AF Flag */
      __HAL_I2C_CLEAR_FLAG(hi2c, I2C_FLAG_AF);
 8005860:	68fb      	ldr	r3, [r7, #12]
 8005862:	681b      	ldr	r3, [r3, #0]
 8005864:	f46f 6280 	mvn.w	r2, #1024	@ 0x400
 8005868:	615a      	str	r2, [r3, #20]

      hi2c->PreviousState       = I2C_STATE_NONE;
 800586a:	68fb      	ldr	r3, [r7, #12]
 800586c:	2200      	movs	r2, #0
 800586e:	631a      	str	r2, [r3, #48]	@ 0x30
      hi2c->State               = HAL_I2C_STATE_READY;
 8005870:	68fb      	ldr	r3, [r7, #12]
 8005872:	2220      	movs	r2, #32
 8005874:	f883 203d 	strb.w	r2, [r3, #61]	@ 0x3d
      hi2c->Mode                = HAL_I2C_MODE_NONE;
 8005878:	68fb      	ldr	r3, [r7, #12]
 800587a:	2200      	movs	r2, #0
 800587c:	f883 203e 	strb.w	r2, [r3, #62]	@ 0x3e
      hi2c->ErrorCode           |= HAL_I2C_ERROR_AF;
 8005880:	68fb      	ldr	r3, [r7, #12]
 8005882:	6c1b      	ldr	r3, [r3, #64]	@ 0x40
 8005884:	f043 0204 	orr.w	r2, r3, #4
 8005888:	68fb      	ldr	r3, [r7, #12]
 800588a:	641a      	str	r2, [r3, #64]	@ 0x40

      /* Process Unlocked */
      __HAL_UNLOCK(hi2c);
 800588c:	68fb      	ldr	r3, [r7, #12]
 800588e:	2200      	movs	r2, #0
 8005890:	f883 203c 	strb.w	r2, [r3, #60]	@ 0x3c

      return HAL_ERROR;
 8005894:	2301      	movs	r3, #1
 8005896:	e067      	b.n	8005968 <I2C_WaitOnMasterAddressFlagUntilTimeout+0x138>
    }

    /* Check for the Timeout */
    if (Timeout != HAL_MAX_DELAY)
 8005898:	687b      	ldr	r3, [r7, #4]
 800589a:	f1b3 3fff 	cmp.w	r3, #4294967295
 800589e:	d041      	beq.n	8005924 <I2C_WaitOnMasterAddressFlagUntilTimeout+0xf4>
    {
      if (((HAL_GetTick() - Tickstart) > Timeout) || (Timeout == 0U))
 80058a0:	f7fe fe82 	bl	80045a8 <HAL_GetTick>
 80058a4:	4602      	mov	r2, r0
 80058a6:	683b      	ldr	r3, [r7, #0]
 80058a8:	1ad3      	subs	r3, r2, r3
 80058aa:	687a      	ldr	r2, [r7, #4]
 80058ac:	429a      	cmp	r2, r3
 80058ae:	d302      	bcc.n	80058b6 <I2C_WaitOnMasterAddressFlagUntilTimeout+0x86>
 80058b0:	687b      	ldr	r3, [r7, #4]
 80058b2:	2b00      	cmp	r3, #0
 80058b4:	d136      	bne.n	8005924 <I2C_WaitOnMasterAddressFlagUntilTimeout+0xf4>
      {
        if ((__HAL_I2C_GET_FLAG(hi2c, Flag) == RESET))
 80058b6:	68bb      	ldr	r3, [r7, #8]
 80058b8:	0c1b      	lsrs	r3, r3, #16
 80058ba:	b2db      	uxtb	r3, r3
 80058bc:	2b01      	cmp	r3, #1
 80058be:	d10c      	bne.n	80058da <I2C_WaitOnMasterAddressFlagUntilTimeout+0xaa>
 80058c0:	68fb      	ldr	r3, [r7, #12]
 80058c2:	681b      	ldr	r3, [r3, #0]
 80058c4:	695b      	ldr	r3, [r3, #20]
 80058c6:	43da      	mvns	r2, r3
 80058c8:	68bb      	ldr	r3, [r7, #8]
 80058ca:	4013      	ands	r3, r2
 80058cc:	b29b      	uxth	r3, r3
 80058ce:	2b00      	cmp	r3, #0
 80058d0:	bf14      	ite	ne
 80058d2:	2301      	movne	r3, #1
 80058d4:	2300      	moveq	r3, #0
 80058d6:	b2db      	uxtb	r3, r3
 80058d8:	e00b      	b.n	80058f2 <I2C_WaitOnMasterAddressFlagUntilTimeout+0xc2>
 80058da:	68fb      	ldr	r3, [r7, #12]
 80058dc:	681b      	ldr	r3, [r3, #0]
 80058de:	699b      	ldr	r3, [r3, #24]
 80058e0:	43da      	mvns	r2, r3
 80058e2:	68bb      	ldr	r3, [r7, #8]
 80058e4:	4013      	ands	r3, r2
 80058e6:	b29b      	uxth	r3, r3
 80058e8:	2b00      	cmp	r3, #0
 80058ea:	bf14      	ite	ne
 80058ec:	2301      	movne	r3, #1
 80058ee:	2300      	moveq	r3, #0
 80058f0:	b2db      	uxtb	r3, r3
 80058f2:	2b00      	cmp	r3, #0
 80058f4:	d016      	beq.n	8005924 <I2C_WaitOnMasterAddressFlagUntilTimeout+0xf4>
        {
          hi2c->PreviousState       = I2C_STATE_NONE;
 80058f6:	68fb      	ldr	r3, [r7, #12]
 80058f8:	2200      	movs	r2, #0
 80058fa:	631a      	str	r2, [r3, #48]	@ 0x30
          hi2c->State               = HAL_I2C_STATE_READY;
 80058fc:	68fb      	ldr	r3, [r7, #12]
 80058fe:	2220      	movs	r2, #32
 8005900:	f883 203d 	strb.w	r2, [r3, #61]	@ 0x3d
          hi2c->Mode                = HAL_I2C_MODE_NONE;
 8005904:	68fb      	ldr	r3, [r7, #12]
 8005906:	2200      	movs	r2, #0
 8005908:	f883 203e 	strb.w	r2, [r3, #62]	@ 0x3e
          hi2c->ErrorCode           |= HAL_I2C_ERROR_TIMEOUT;
 800590c:	68fb      	ldr	r3, [r7, #12]
 800590e:	6c1b      	ldr	r3, [r3, #64]	@ 0x40
 8005910:	f043 0220 	orr.w	r2, r3, #32
 8005914:	68fb      	ldr	r3, [r7, #12]
 8005916:	641a      	str	r2, [r3, #64]	@ 0x40

          /* Process Unlocked */
          __HAL_UNLOCK(hi2c);
 8005918:	68fb      	ldr	r3, [r7, #12]
 800591a:	2200      	movs	r2, #0
 800591c:	f883 203c 	strb.w	r2, [r3, #60]	@ 0x3c

          return HAL_ERROR;
 8005920:	2301      	movs	r3, #1
 8005922:	e021      	b.n	8005968 <I2C_WaitOnMasterAddressFlagUntilTimeout+0x138>
  while (__HAL_I2C_GET_FLAG(hi2c, Flag) == RESET)
 8005924:	68bb      	ldr	r3, [r7, #8]
 8005926:	0c1b      	lsrs	r3, r3, #16
 8005928:	b2db      	uxtb	r3, r3
 800592a:	2b01      	cmp	r3, #1
 800592c:	d10c      	bne.n	8005948 <I2C_WaitOnMasterAddressFlagUntilTimeout+0x118>
 800592e:	68fb      	ldr	r3, [r7, #12]
 8005930:	681b      	ldr	r3, [r3, #0]
 8005932:	695b      	ldr	r3, [r3, #20]
 8005934:	43da      	mvns	r2, r3
 8005936:	68bb      	ldr	r3, [r7, #8]
 8005938:	4013      	ands	r3, r2
 800593a:	b29b      	uxth	r3, r3
 800593c:	2b00      	cmp	r3, #0
 800593e:	bf14      	ite	ne
 8005940:	2301      	movne	r3, #1
 8005942:	2300      	moveq	r3, #0
 8005944:	b2db      	uxtb	r3, r3
 8005946:	e00b      	b.n	8005960 <I2C_WaitOnMasterAddressFlagUntilTimeout+0x130>
 8005948:	68fb      	ldr	r3, [r7, #12]
 800594a:	681b      	ldr	r3, [r3, #0]
 800594c:	699b      	ldr	r3, [r3, #24]
 800594e:	43da      	mvns	r2, r3
 8005950:	68bb      	ldr	r3, [r7, #8]
 8005952:	4013      	ands	r3, r2
 8005954:	b29b      	uxth	r3, r3
 8005956:	2b00      	cmp	r3, #0
 8005958:	bf14      	ite	ne
 800595a:	2301      	movne	r3, #1
 800595c:	2300      	moveq	r3, #0
 800595e:	b2db      	uxtb	r3, r3
 8005960:	2b00      	cmp	r3, #0
 8005962:	f47f af6d 	bne.w	8005840 <I2C_WaitOnMasterAddressFlagUntilTimeout+0x10>
        }
      }
    }
  }
  return HAL_OK;
 8005966:	2300      	movs	r3, #0
}
 8005968:	4618      	mov	r0, r3
 800596a:	3710      	adds	r7, #16
 800596c:	46bd      	mov	sp, r7
 800596e:	bd80      	pop	{r7, pc}

08005970 <I2C_WaitOnTXEFlagUntilTimeout>:
  * @param  Timeout Timeout duration
  * @param  Tickstart Tick start value
  * @retval HAL status
  */
static HAL_StatusTypeDef I2C_WaitOnTXEFlagUntilTimeout(I2C_HandleTypeDef *hi2c, uint32_t Timeout, uint32_t Tickstart)
{
 8005970:	b580      	push	{r7, lr}
 8005972:	b084      	sub	sp, #16
 8005974:	af00      	add	r7, sp, #0
 8005976:	60f8      	str	r0, [r7, #12]
 8005978:	60b9      	str	r1, [r7, #8]
 800597a:	607a      	str	r2, [r7, #4]
  while (__HAL_I2C_GET_FLAG(hi2c, I2C_FLAG_TXE) == RESET)
 800597c:	e034      	b.n	80059e8 <I2C_WaitOnTXEFlagUntilTimeout+0x78>
  {
    /* Check if a NACK is detected */
    if (I2C_IsAcknowledgeFailed(hi2c) != HAL_OK)
 800597e:	68f8      	ldr	r0, [r7, #12]
 8005980:	f000 f8e3 	bl	8005b4a <I2C_IsAcknowledgeFailed>
 8005984:	4603      	mov	r3, r0
 8005986:	2b00      	cmp	r3, #0
 8005988:	d001      	beq.n	800598e <I2C_WaitOnTXEFlagUntilTimeout+0x1e>
    {
      return HAL_ERROR;
 800598a:	2301      	movs	r3, #1
 800598c:	e034      	b.n	80059f8 <I2C_WaitOnTXEFlagUntilTimeout+0x88>
    }

    /* Check for the Timeout */
    if (Timeout != HAL_MAX_DELAY)
 800598e:	68bb      	ldr	r3, [r7, #8]
 8005990:	f1b3 3fff 	cmp.w	r3, #4294967295
 8005994:	d028      	beq.n	80059e8 <I2C_WaitOnTXEFlagUntilTimeout+0x78>
    {
      if (((HAL_GetTick() - Tickstart) > Timeout) || (Timeout == 0U))
 8005996:	f7fe fe07 	bl	80045a8 <HAL_GetTick>
 800599a:	4602      	mov	r2, r0
 800599c:	687b      	ldr	r3, [r7, #4]
 800599e:	1ad3      	subs	r3, r2, r3
 80059a0:	68ba      	ldr	r2, [r7, #8]
 80059a2:	429a      	cmp	r2, r3
 80059a4:	d302      	bcc.n	80059ac <I2C_WaitOnTXEFlagUntilTimeout+0x3c>
 80059a6:	68bb      	ldr	r3, [r7, #8]
 80059a8:	2b00      	cmp	r3, #0
 80059aa:	d11d      	bne.n	80059e8 <I2C_WaitOnTXEFlagUntilTimeout+0x78>
      {
        if ((__HAL_I2C_GET_FLAG(hi2c, I2C_FLAG_TXE) == RESET))
 80059ac:	68fb      	ldr	r3, [r7, #12]
 80059ae:	681b      	ldr	r3, [r3, #0]
 80059b0:	695b      	ldr	r3, [r3, #20]
 80059b2:	f003 0380 	and.w	r3, r3, #128	@ 0x80
 80059b6:	2b80      	cmp	r3, #128	@ 0x80
 80059b8:	d016      	beq.n	80059e8 <I2C_WaitOnTXEFlagUntilTimeout+0x78>
        {
          hi2c->PreviousState       = I2C_STATE_NONE;
 80059ba:	68fb      	ldr	r3, [r7, #12]
 80059bc:	2200      	movs	r2, #0
 80059be:	631a      	str	r2, [r3, #48]	@ 0x30
          hi2c->State               = HAL_I2C_STATE_READY;
 80059c0:	68fb      	ldr	r3, [r7, #12]
 80059c2:	2220      	movs	r2, #32
 80059c4:	f883 203d 	strb.w	r2, [r3, #61]	@ 0x3d
          hi2c->Mode                = HAL_I2C_MODE_NONE;
 80059c8:	68fb      	ldr	r3, [r7, #12]
 80059ca:	2200      	movs	r2, #0
 80059cc:	f883 203e 	strb.w	r2, [r3, #62]	@ 0x3e
          hi2c->ErrorCode           |= HAL_I2C_ERROR_TIMEOUT;
 80059d0:	68fb      	ldr	r3, [r7, #12]
 80059d2:	6c1b      	ldr	r3, [r3, #64]	@ 0x40
 80059d4:	f043 0220 	orr.w	r2, r3, #32
 80059d8:	68fb      	ldr	r3, [r7, #12]
 80059da:	641a      	str	r2, [r3, #64]	@ 0x40

          /* Process Unlocked */
          __HAL_UNLOCK(hi2c);
 80059dc:	68fb      	ldr	r3, [r7, #12]
 80059de:	2200      	movs	r2, #0
 80059e0:	f883 203c 	strb.w	r2, [r3, #60]	@ 0x3c

          return HAL_ERROR;
 80059e4:	2301      	movs	r3, #1
 80059e6:	e007      	b.n	80059f8 <I2C_WaitOnTXEFlagUntilTimeout+0x88>
  while (__HAL_I2C_GET_FLAG(hi2c, I2C_FLAG_TXE) == RESET)
 80059e8:	68fb      	ldr	r3, [r7, #12]
 80059ea:	681b      	ldr	r3, [r3, #0]
 80059ec:	695b      	ldr	r3, [r3, #20]
 80059ee:	f003 0380 	and.w	r3, r3, #128	@ 0x80
 80059f2:	2b80      	cmp	r3, #128	@ 0x80
 80059f4:	d1c3      	bne.n	800597e <I2C_WaitOnTXEFlagUntilTimeout+0xe>
        }
      }
    }
  }
  return HAL_OK;
 80059f6:	2300      	movs	r3, #0
}
 80059f8:	4618      	mov	r0, r3
 80059fa:	3710      	adds	r7, #16
 80059fc:	46bd      	mov	sp, r7
 80059fe:	bd80      	pop	{r7, pc}

08005a00 <I2C_WaitOnBTFFlagUntilTimeout>:
  * @param  Timeout Timeout duration
  * @param  Tickstart Tick start value
  * @retval HAL status
  */
static HAL_StatusTypeDef I2C_WaitOnBTFFlagUntilTimeout(I2C_HandleTypeDef *hi2c, uint32_t Timeout, uint32_t Tickstart)
{
 8005a00:	b580      	push	{r7, lr}
 8005a02:	b084      	sub	sp, #16
 8005a04:	af00      	add	r7, sp, #0
 8005a06:	60f8      	str	r0, [r7, #12]
 8005a08:	60b9      	str	r1, [r7, #8]
 8005a0a:	607a      	str	r2, [r7, #4]
  while (__HAL_I2C_GET_FLAG(hi2c, I2C_FLAG_BTF) == RESET)
 8005a0c:	e034      	b.n	8005a78 <I2C_WaitOnBTFFlagUntilTimeout+0x78>
  {
    /* Check if a NACK is detected */
    if (I2C_IsAcknowledgeFailed(hi2c) != HAL_OK)
 8005a0e:	68f8      	ldr	r0, [r7, #12]
 8005a10:	f000 f89b 	bl	8005b4a <I2C_IsAcknowledgeFailed>
 8005a14:	4603      	mov	r3, r0
 8005a16:	2b00      	cmp	r3, #0
 8005a18:	d001      	beq.n	8005a1e <I2C_WaitOnBTFFlagUntilTimeout+0x1e>
    {
      return HAL_ERROR;
 8005a1a:	2301      	movs	r3, #1
 8005a1c:	e034      	b.n	8005a88 <I2C_WaitOnBTFFlagUntilTimeout+0x88>
    }

    /* Check for the Timeout */
    if (Timeout != HAL_MAX_DELAY)
 8005a1e:	68bb      	ldr	r3, [r7, #8]
 8005a20:	f1b3 3fff 	cmp.w	r3, #4294967295
 8005a24:	d028      	beq.n	8005a78 <I2C_WaitOnBTFFlagUntilTimeout+0x78>
    {
      if (((HAL_GetTick() - Tickstart) > Timeout) || (Timeout == 0U))
 8005a26:	f7fe fdbf 	bl	80045a8 <HAL_GetTick>
 8005a2a:	4602      	mov	r2, r0
 8005a2c:	687b      	ldr	r3, [r7, #4]
 8005a2e:	1ad3      	subs	r3, r2, r3
 8005a30:	68ba      	ldr	r2, [r7, #8]
 8005a32:	429a      	cmp	r2, r3
 8005a34:	d302      	bcc.n	8005a3c <I2C_WaitOnBTFFlagUntilTimeout+0x3c>
 8005a36:	68bb      	ldr	r3, [r7, #8]
 8005a38:	2b00      	cmp	r3, #0
 8005a3a:	d11d      	bne.n	8005a78 <I2C_WaitOnBTFFlagUntilTimeout+0x78>
      {
        if ((__HAL_I2C_GET_FLAG(hi2c, I2C_FLAG_BTF) == RESET))
 8005a3c:	68fb      	ldr	r3, [r7, #12]
 8005a3e:	681b      	ldr	r3, [r3, #0]
 8005a40:	695b      	ldr	r3, [r3, #20]
 8005a42:	f003 0304 	and.w	r3, r3, #4
 8005a46:	2b04      	cmp	r3, #4
 8005a48:	d016      	beq.n	8005a78 <I2C_WaitOnBTFFlagUntilTimeout+0x78>
        {
          hi2c->PreviousState       = I2C_STATE_NONE;
 8005a4a:	68fb      	ldr	r3, [r7, #12]
 8005a4c:	2200      	movs	r2, #0
 8005a4e:	631a      	str	r2, [r3, #48]	@ 0x30
          hi2c->State               = HAL_I2C_STATE_READY;
 8005a50:	68fb      	ldr	r3, [r7, #12]
 8005a52:	2220      	movs	r2, #32
 8005a54:	f883 203d 	strb.w	r2, [r3, #61]	@ 0x3d
          hi2c->Mode                = HAL_I2C_MODE_NONE;
 8005a58:	68fb      	ldr	r3, [r7, #12]
 8005a5a:	2200      	movs	r2, #0
 8005a5c:	f883 203e 	strb.w	r2, [r3, #62]	@ 0x3e
          hi2c->ErrorCode           |= HAL_I2C_ERROR_TIMEOUT;
 8005a60:	68fb      	ldr	r3, [r7, #12]
 8005a62:	6c1b      	ldr	r3, [r3, #64]	@ 0x40
 8005a64:	f043 0220 	orr.w	r2, r3, #32
 8005a68:	68fb      	ldr	r3, [r7, #12]
 8005a6a:	641a      	str	r2, [r3, #64]	@ 0x40

          /* Process Unlocked */
          __HAL_UNLOCK(hi2c);
 8005a6c:	68fb      	ldr	r3, [r7, #12]
 8005a6e:	2200      	movs	r2, #0
 8005a70:	f883 203c 	strb.w	r2, [r3, #60]	@ 0x3c

          return HAL_ERROR;
 8005a74:	2301      	movs	r3, #1
 8005a76:	e007      	b.n	8005a88 <I2C_WaitOnBTFFlagUntilTimeout+0x88>
  while (__HAL_I2C_GET_FLAG(hi2c, I2C_FLAG_BTF) == RESET)
 8005a78:	68fb      	ldr	r3, [r7, #12]
 8005a7a:	681b      	ldr	r3, [r3, #0]
 8005a7c:	695b      	ldr	r3, [r3, #20]
 8005a7e:	f003 0304 	and.w	r3, r3, #4
 8005a82:	2b04      	cmp	r3, #4
 8005a84:	d1c3      	bne.n	8005a0e <I2C_WaitOnBTFFlagUntilTimeout+0xe>
        }
      }
    }
  }
  return HAL_OK;
 8005a86:	2300      	movs	r3, #0
}
 8005a88:	4618      	mov	r0, r3
 8005a8a:	3710      	adds	r7, #16
 8005a8c:	46bd      	mov	sp, r7
 8005a8e:	bd80      	pop	{r7, pc}

08005a90 <I2C_WaitOnRXNEFlagUntilTimeout>:
  * @param  Timeout Timeout duration
  * @param  Tickstart Tick start value
  * @retval HAL status
  */
static HAL_StatusTypeDef I2C_WaitOnRXNEFlagUntilTimeout(I2C_HandleTypeDef *hi2c, uint32_t Timeout, uint32_t Tickstart)
{
 8005a90:	b580      	push	{r7, lr}
 8005a92:	b084      	sub	sp, #16
 8005a94:	af00      	add	r7, sp, #0
 8005a96:	60f8      	str	r0, [r7, #12]
 8005a98:	60b9      	str	r1, [r7, #8]
 8005a9a:	607a      	str	r2, [r7, #4]

  while (__HAL_I2C_GET_FLAG(hi2c, I2C_FLAG_RXNE) == RESET)
 8005a9c:	e049      	b.n	8005b32 <I2C_WaitOnRXNEFlagUntilTimeout+0xa2>
  {
    /* Check if a STOPF is detected */
    if (__HAL_I2C_GET_FLAG(hi2c, I2C_FLAG_STOPF) == SET)
 8005a9e:	68fb      	ldr	r3, [r7, #12]
 8005aa0:	681b      	ldr	r3, [r3, #0]
 8005aa2:	695b      	ldr	r3, [r3, #20]
 8005aa4:	f003 0310 	and.w	r3, r3, #16
 8005aa8:	2b10      	cmp	r3, #16
 8005aaa:	d119      	bne.n	8005ae0 <I2C_WaitOnRXNEFlagUntilTimeout+0x50>
    {
      /* Clear STOP Flag */
      __HAL_I2C_CLEAR_FLAG(hi2c, I2C_FLAG_STOPF);
 8005aac:	68fb      	ldr	r3, [r7, #12]
 8005aae:	681b      	ldr	r3, [r3, #0]
 8005ab0:	f06f 0210 	mvn.w	r2, #16
 8005ab4:	615a      	str	r2, [r3, #20]

      hi2c->PreviousState       = I2C_STATE_NONE;
 8005ab6:	68fb      	ldr	r3, [r7, #12]
 8005ab8:	2200      	movs	r2, #0
 8005aba:	631a      	str	r2, [r3, #48]	@ 0x30
      hi2c->State               = HAL_I2C_STATE_READY;
 8005abc:	68fb      	ldr	r3, [r7, #12]
 8005abe:	2220      	movs	r2, #32
 8005ac0:	f883 203d 	strb.w	r2, [r3, #61]	@ 0x3d
      hi2c->Mode                = HAL_I2C_MODE_NONE;
 8005ac4:	68fb      	ldr	r3, [r7, #12]
 8005ac6:	2200      	movs	r2, #0
 8005ac8:	f883 203e 	strb.w	r2, [r3, #62]	@ 0x3e
      hi2c->ErrorCode           |= HAL_I2C_ERROR_NONE;
 8005acc:	68fb      	ldr	r3, [r7, #12]
 8005ace:	6c1a      	ldr	r2, [r3, #64]	@ 0x40
 8005ad0:	68fb      	ldr	r3, [r7, #12]
 8005ad2:	641a      	str	r2, [r3, #64]	@ 0x40

      /* Process Unlocked */
      __HAL_UNLOCK(hi2c);
 8005ad4:	68fb      	ldr	r3, [r7, #12]
 8005ad6:	2200      	movs	r2, #0
 8005ad8:	f883 203c 	strb.w	r2, [r3, #60]	@ 0x3c

      return HAL_ERROR;
 8005adc:	2301      	movs	r3, #1
 8005ade:	e030      	b.n	8005b42 <I2C_WaitOnRXNEFlagUntilTimeout+0xb2>
    }

    /* Check for the Timeout */
    if (((HAL_GetTick() - Tickstart) > Timeout) || (Timeout == 0U))
 8005ae0:	f7fe fd62 	bl	80045a8 <HAL_GetTick>
 8005ae4:	4602      	mov	r2, r0
 8005ae6:	687b      	ldr	r3, [r7, #4]
 8005ae8:	1ad3      	subs	r3, r2, r3
 8005aea:	68ba      	ldr	r2, [r7, #8]
 8005aec:	429a      	cmp	r2, r3
 8005aee:	d302      	bcc.n	8005af6 <I2C_WaitOnRXNEFlagUntilTimeout+0x66>
 8005af0:	68bb      	ldr	r3, [r7, #8]
 8005af2:	2b00      	cmp	r3, #0
 8005af4:	d11d      	bne.n	8005b32 <I2C_WaitOnRXNEFlagUntilTimeout+0xa2>
    {
      if ((__HAL_I2C_GET_FLAG(hi2c, I2C_FLAG_RXNE) == RESET))
 8005af6:	68fb      	ldr	r3, [r7, #12]
 8005af8:	681b      	ldr	r3, [r3, #0]
 8005afa:	695b      	ldr	r3, [r3, #20]
 8005afc:	f003 0340 	and.w	r3, r3, #64	@ 0x40
 8005b00:	2b40      	cmp	r3, #64	@ 0x40
 8005b02:	d016      	beq.n	8005b32 <I2C_WaitOnRXNEFlagUntilTimeout+0xa2>
      {
        hi2c->PreviousState       = I2C_STATE_NONE;
 8005b04:	68fb      	ldr	r3, [r7, #12]
 8005b06:	2200      	movs	r2, #0
 8005b08:	631a      	str	r2, [r3, #48]	@ 0x30
        hi2c->State               = HAL_I2C_STATE_READY;
 8005b0a:	68fb      	ldr	r3, [r7, #12]
 8005b0c:	2220      	movs	r2, #32
 8005b0e:	f883 203d 	strb.w	r2, [r3, #61]	@ 0x3d
        hi2c->Mode                = HAL_I2C_MODE_NONE;
 8005b12:	68fb      	ldr	r3, [r7, #12]
 8005b14:	2200      	movs	r2, #0
 8005b16:	f883 203e 	strb.w	r2, [r3, #62]	@ 0x3e
        hi2c->ErrorCode           |= HAL_I2C_ERROR_TIMEOUT;
 8005b1a:	68fb      	ldr	r3, [r7, #12]
 8005b1c:	6c1b      	ldr	r3, [r3, #64]	@ 0x40
 8005b1e:	f043 0220 	orr.w	r2, r3, #32
 8005b22:	68fb      	ldr	r3, [r7, #12]
 8005b24:	641a      	str	r2, [r3, #64]	@ 0x40

        /* Process Unlocked */
        __HAL_UNLOCK(hi2c);
 8005b26:	68fb      	ldr	r3, [r7, #12]
 8005b28:	2200      	movs	r2, #0
 8005b2a:	f883 203c 	strb.w	r2, [r3, #60]	@ 0x3c

        return HAL_ERROR;
 8005b2e:	2301      	movs	r3, #1
 8005b30:	e007      	b.n	8005b42 <I2C_WaitOnRXNEFlagUntilTimeout+0xb2>
  while (__HAL_I2C_GET_FLAG(hi2c, I2C_FLAG_RXNE) == RESET)
 8005b32:	68fb      	ldr	r3, [r7, #12]
 8005b34:	681b      	ldr	r3, [r3, #0]
 8005b36:	695b      	ldr	r3, [r3, #20]
 8005b38:	f003 0340 	and.w	r3, r3, #64	@ 0x40
 8005b3c:	2b40      	cmp	r3, #64	@ 0x40
 8005b3e:	d1ae      	bne.n	8005a9e <I2C_WaitOnRXNEFlagUntilTimeout+0xe>
      }
    }
  }
  return HAL_OK;
 8005b40:	2300      	movs	r3, #0
}
 8005b42:	4618      	mov	r0, r3
 8005b44:	3710      	adds	r7, #16
 8005b46:	46bd      	mov	sp, r7
 8005b48:	bd80      	pop	{r7, pc}

08005b4a <I2C_IsAcknowledgeFailed>:
  * @param  hi2c Pointer to a I2C_HandleTypeDef structure that contains
  *                the configuration information for the specified I2C.
  * @retval HAL status
  */
static HAL_StatusTypeDef I2C_IsAcknowledgeFailed(I2C_HandleTypeDef *hi2c)
{
 8005b4a:	b480      	push	{r7}
 8005b4c:	b083      	sub	sp, #12
 8005b4e:	af00      	add	r7, sp, #0
 8005b50:	6078      	str	r0, [r7, #4]
  if (__HAL_I2C_GET_FLAG(hi2c, I2C_FLAG_AF) == SET)
 8005b52:	687b      	ldr	r3, [r7, #4]
 8005b54:	681b      	ldr	r3, [r3, #0]
 8005b56:	695b      	ldr	r3, [r3, #20]
 8005b58:	f403 6380 	and.w	r3, r3, #1024	@ 0x400
 8005b5c:	f5b3 6f80 	cmp.w	r3, #1024	@ 0x400
 8005b60:	d11b      	bne.n	8005b9a <I2C_IsAcknowledgeFailed+0x50>
  {
    /* Clear NACKF Flag */
    __HAL_I2C_CLEAR_FLAG(hi2c, I2C_FLAG_AF);
 8005b62:	687b      	ldr	r3, [r7, #4]
 8005b64:	681b      	ldr	r3, [r3, #0]
 8005b66:	f46f 6280 	mvn.w	r2, #1024	@ 0x400
 8005b6a:	615a      	str	r2, [r3, #20]

    hi2c->PreviousState       = I2C_STATE_NONE;
 8005b6c:	687b      	ldr	r3, [r7, #4]
 8005b6e:	2200      	movs	r2, #0
 8005b70:	631a      	str	r2, [r3, #48]	@ 0x30
    hi2c->State               = HAL_I2C_STATE_READY;
 8005b72:	687b      	ldr	r3, [r7, #4]
 8005b74:	2220      	movs	r2, #32
 8005b76:	f883 203d 	strb.w	r2, [r3, #61]	@ 0x3d
    hi2c->Mode                = HAL_I2C_MODE_NONE;
 8005b7a:	687b      	ldr	r3, [r7, #4]
 8005b7c:	2200      	movs	r2, #0
 8005b7e:	f883 203e 	strb.w	r2, [r3, #62]	@ 0x3e
    hi2c->ErrorCode           |= HAL_I2C_ERROR_AF;
 8005b82:	687b      	ldr	r3, [r7, #4]
 8005b84:	6c1b      	ldr	r3, [r3, #64]	@ 0x40
 8005b86:	f043 0204 	orr.w	r2, r3, #4
 8005b8a:	687b      	ldr	r3, [r7, #4]
 8005b8c:	641a      	str	r2, [r3, #64]	@ 0x40

    /* Process Unlocked */
    __HAL_UNLOCK(hi2c);
 8005b8e:	687b      	ldr	r3, [r7, #4]
 8005b90:	2200      	movs	r2, #0
 8005b92:	f883 203c 	strb.w	r2, [r3, #60]	@ 0x3c

    return HAL_ERROR;
 8005b96:	2301      	movs	r3, #1
 8005b98:	e000      	b.n	8005b9c <I2C_IsAcknowledgeFailed+0x52>
  }
  return HAL_OK;
 8005b9a:	2300      	movs	r3, #0
}
 8005b9c:	4618      	mov	r0, r3
 8005b9e:	370c      	adds	r7, #12
 8005ba0:	46bd      	mov	sp, r7
 8005ba2:	f85d 7b04 	ldr.w	r7, [sp], #4
 8005ba6:	4770      	bx	lr

08005ba8 <HAL_I2CEx_ConfigAnalogFilter>:
  *                the configuration information for the specified I2Cx peripheral.
  * @param  AnalogFilter new state of the Analog filter.
  * @retval HAL status
  */
HAL_StatusTypeDef HAL_I2CEx_ConfigAnalogFilter(I2C_HandleTypeDef *hi2c, uint32_t AnalogFilter)
{
 8005ba8:	b480      	push	{r7}
 8005baa:	b083      	sub	sp, #12
 8005bac:	af00      	add	r7, sp, #0
 8005bae:	6078      	str	r0, [r7, #4]
 8005bb0:	6039      	str	r1, [r7, #0]
  /* Check the parameters */
  assert_param(IS_I2C_ALL_INSTANCE(hi2c->Instance));
  assert_param(IS_I2C_ANALOG_FILTER(AnalogFilter));

  if (hi2c->State == HAL_I2C_STATE_READY)
 8005bb2:	687b      	ldr	r3, [r7, #4]
 8005bb4:	f893 303d 	ldrb.w	r3, [r3, #61]	@ 0x3d
 8005bb8:	b2db      	uxtb	r3, r3
 8005bba:	2b20      	cmp	r3, #32
 8005bbc:	d129      	bne.n	8005c12 <HAL_I2CEx_ConfigAnalogFilter+0x6a>
  {
    hi2c->State = HAL_I2C_STATE_BUSY;
 8005bbe:	687b      	ldr	r3, [r7, #4]
 8005bc0:	2224      	movs	r2, #36	@ 0x24
 8005bc2:	f883 203d 	strb.w	r2, [r3, #61]	@ 0x3d

    /* Disable the selected I2C peripheral */
    __HAL_I2C_DISABLE(hi2c);
 8005bc6:	687b      	ldr	r3, [r7, #4]
 8005bc8:	681b      	ldr	r3, [r3, #0]
 8005bca:	681a      	ldr	r2, [r3, #0]
 8005bcc:	687b      	ldr	r3, [r7, #4]
 8005bce:	681b      	ldr	r3, [r3, #0]
 8005bd0:	f022 0201 	bic.w	r2, r2, #1
 8005bd4:	601a      	str	r2, [r3, #0]

    /* Reset I2Cx ANOFF bit */
    hi2c->Instance->FLTR &= ~(I2C_FLTR_ANOFF);
 8005bd6:	687b      	ldr	r3, [r7, #4]
 8005bd8:	681b      	ldr	r3, [r3, #0]
 8005bda:	6a5a      	ldr	r2, [r3, #36]	@ 0x24
 8005bdc:	687b      	ldr	r3, [r7, #4]
 8005bde:	681b      	ldr	r3, [r3, #0]
 8005be0:	f022 0210 	bic.w	r2, r2, #16
 8005be4:	625a      	str	r2, [r3, #36]	@ 0x24

    /* Disable the analog filter */
    hi2c->Instance->FLTR |= AnalogFilter;
 8005be6:	687b      	ldr	r3, [r7, #4]
 8005be8:	681b      	ldr	r3, [r3, #0]
 8005bea:	6a59      	ldr	r1, [r3, #36]	@ 0x24
 8005bec:	687b      	ldr	r3, [r7, #4]
 8005bee:	681b      	ldr	r3, [r3, #0]
 8005bf0:	683a      	ldr	r2, [r7, #0]
 8005bf2:	430a      	orrs	r2, r1
 8005bf4:	625a      	str	r2, [r3, #36]	@ 0x24

    __HAL_I2C_ENABLE(hi2c);
 8005bf6:	687b      	ldr	r3, [r7, #4]
 8005bf8:	681b      	ldr	r3, [r3, #0]
 8005bfa:	681a      	ldr	r2, [r3, #0]
 8005bfc:	687b      	ldr	r3, [r7, #4]
 8005bfe:	681b      	ldr	r3, [r3, #0]
 8005c00:	f042 0201 	orr.w	r2, r2, #1
 8005c04:	601a      	str	r2, [r3, #0]

    hi2c->State = HAL_I2C_STATE_READY;
 8005c06:	687b      	ldr	r3, [r7, #4]
 8005c08:	2220      	movs	r2, #32
 8005c0a:	f883 203d 	strb.w	r2, [r3, #61]	@ 0x3d

    return HAL_OK;
 8005c0e:	2300      	movs	r3, #0
 8005c10:	e000      	b.n	8005c14 <HAL_I2CEx_ConfigAnalogFilter+0x6c>
  }
  else
  {
    return HAL_BUSY;
 8005c12:	2302      	movs	r3, #2
  }
}
 8005c14:	4618      	mov	r0, r3
 8005c16:	370c      	adds	r7, #12
 8005c18:	46bd      	mov	sp, r7
 8005c1a:	f85d 7b04 	ldr.w	r7, [sp], #4
 8005c1e:	4770      	bx	lr

08005c20 <HAL_I2CEx_ConfigDigitalFilter>:
  *                the configuration information for the specified I2Cx peripheral.
  * @param  DigitalFilter Coefficient of digital noise filter between 0x00 and 0x0F.
  * @retval HAL status
  */
HAL_StatusTypeDef HAL_I2CEx_ConfigDigitalFilter(I2C_HandleTypeDef *hi2c, uint32_t DigitalFilter)
{
 8005c20:	b480      	push	{r7}
 8005c22:	b085      	sub	sp, #20
 8005c24:	af00      	add	r7, sp, #0
 8005c26:	6078      	str	r0, [r7, #4]
 8005c28:	6039      	str	r1, [r7, #0]
  uint16_t tmpreg = 0;
 8005c2a:	2300      	movs	r3, #0
 8005c2c:	81fb      	strh	r3, [r7, #14]

  /* Check the parameters */
  assert_param(IS_I2C_ALL_INSTANCE(hi2c->Instance));
  assert_param(IS_I2C_DIGITAL_FILTER(DigitalFilter));

  if (hi2c->State == HAL_I2C_STATE_READY)
 8005c2e:	687b      	ldr	r3, [r7, #4]
 8005c30:	f893 303d 	ldrb.w	r3, [r3, #61]	@ 0x3d
 8005c34:	b2db      	uxtb	r3, r3
 8005c36:	2b20      	cmp	r3, #32
 8005c38:	d12a      	bne.n	8005c90 <HAL_I2CEx_ConfigDigitalFilter+0x70>
  {
    hi2c->State = HAL_I2C_STATE_BUSY;
 8005c3a:	687b      	ldr	r3, [r7, #4]
 8005c3c:	2224      	movs	r2, #36	@ 0x24
 8005c3e:	f883 203d 	strb.w	r2, [r3, #61]	@ 0x3d

    /* Disable the selected I2C peripheral */
    __HAL_I2C_DISABLE(hi2c);
 8005c42:	687b      	ldr	r3, [r7, #4]
 8005c44:	681b      	ldr	r3, [r3, #0]
 8005c46:	681a      	ldr	r2, [r3, #0]
 8005c48:	687b      	ldr	r3, [r7, #4]
 8005c4a:	681b      	ldr	r3, [r3, #0]
 8005c4c:	f022 0201 	bic.w	r2, r2, #1
 8005c50:	601a      	str	r2, [r3, #0]

    /* Get the old register value */
    tmpreg = hi2c->Instance->FLTR;
 8005c52:	687b      	ldr	r3, [r7, #4]
 8005c54:	681b      	ldr	r3, [r3, #0]
 8005c56:	6a5b      	ldr	r3, [r3, #36]	@ 0x24
 8005c58:	81fb      	strh	r3, [r7, #14]

    /* Reset I2Cx DNF bit [3:0] */
    tmpreg &= ~(I2C_FLTR_DNF);
 8005c5a:	89fb      	ldrh	r3, [r7, #14]
 8005c5c:	f023 030f 	bic.w	r3, r3, #15
 8005c60:	81fb      	strh	r3, [r7, #14]

    /* Set I2Cx DNF coefficient */
    tmpreg |= DigitalFilter;
 8005c62:	683b      	ldr	r3, [r7, #0]
 8005c64:	b29a      	uxth	r2, r3
 8005c66:	89fb      	ldrh	r3, [r7, #14]
 8005c68:	4313      	orrs	r3, r2
 8005c6a:	81fb      	strh	r3, [r7, #14]

    /* Store the new register value */
    hi2c->Instance->FLTR = tmpreg;
 8005c6c:	687b      	ldr	r3, [r7, #4]
 8005c6e:	681b      	ldr	r3, [r3, #0]
 8005c70:	89fa      	ldrh	r2, [r7, #14]
 8005c72:	625a      	str	r2, [r3, #36]	@ 0x24

    __HAL_I2C_ENABLE(hi2c);
 8005c74:	687b      	ldr	r3, [r7, #4]
 8005c76:	681b      	ldr	r3, [r3, #0]
 8005c78:	681a      	ldr	r2, [r3, #0]
 8005c7a:	687b      	ldr	r3, [r7, #4]
 8005c7c:	681b      	ldr	r3, [r3, #0]
 8005c7e:	f042 0201 	orr.w	r2, r2, #1
 8005c82:	601a      	str	r2, [r3, #0]

    hi2c->State = HAL_I2C_STATE_READY;
 8005c84:	687b      	ldr	r3, [r7, #4]
 8005c86:	2220      	movs	r2, #32
 8005c88:	f883 203d 	strb.w	r2, [r3, #61]	@ 0x3d

    return HAL_OK;
 8005c8c:	2300      	movs	r3, #0
 8005c8e:	e000      	b.n	8005c92 <HAL_I2CEx_ConfigDigitalFilter+0x72>
  }
  else
  {
    return HAL_BUSY;
 8005c90:	2302      	movs	r3, #2
  }
}
 8005c92:	4618      	mov	r0, r3
 8005c94:	3714      	adds	r7, #20
 8005c96:	46bd      	mov	sp, r7
 8005c98:	f85d 7b04 	ldr.w	r7, [sp], #4
 8005c9c:	4770      	bx	lr
	...

08005ca0 <HAL_PWREx_EnableOverDrive>:
  *         During the Over-drive switch activation, no peripheral clocks should be enabled.   
  *         The peripheral clocks must be enabled once the Over-drive mode is activated.   
  * @retval HAL status
  */
HAL_StatusTypeDef HAL_PWREx_EnableOverDrive(void)
{
 8005ca0:	b580      	push	{r7, lr}
 8005ca2:	b082      	sub	sp, #8
 8005ca4:	af00      	add	r7, sp, #0
  uint32_t tickstart = 0U;
 8005ca6:	2300      	movs	r3, #0
 8005ca8:	607b      	str	r3, [r7, #4]

  __HAL_RCC_PWR_CLK_ENABLE();
 8005caa:	2300      	movs	r3, #0
 8005cac:	603b      	str	r3, [r7, #0]
 8005cae:	4b20      	ldr	r3, [pc, #128]	@ (8005d30 <HAL_PWREx_EnableOverDrive+0x90>)
 8005cb0:	6c1b      	ldr	r3, [r3, #64]	@ 0x40
 8005cb2:	4a1f      	ldr	r2, [pc, #124]	@ (8005d30 <HAL_PWREx_EnableOverDrive+0x90>)
 8005cb4:	f043 5380 	orr.w	r3, r3, #268435456	@ 0x10000000
 8005cb8:	6413      	str	r3, [r2, #64]	@ 0x40
 8005cba:	4b1d      	ldr	r3, [pc, #116]	@ (8005d30 <HAL_PWREx_EnableOverDrive+0x90>)
 8005cbc:	6c1b      	ldr	r3, [r3, #64]	@ 0x40
 8005cbe:	f003 5380 	and.w	r3, r3, #268435456	@ 0x10000000
 8005cc2:	603b      	str	r3, [r7, #0]
 8005cc4:	683b      	ldr	r3, [r7, #0]
  
  /* Enable the Over-drive to extend the clock frequency to 180 Mhz */
  __HAL_PWR_OVERDRIVE_ENABLE();
 8005cc6:	4b1b      	ldr	r3, [pc, #108]	@ (8005d34 <HAL_PWREx_EnableOverDrive+0x94>)
 8005cc8:	2201      	movs	r2, #1
 8005cca:	601a      	str	r2, [r3, #0]

  /* Get tick */
  tickstart = HAL_GetTick();
 8005ccc:	f7fe fc6c 	bl	80045a8 <HAL_GetTick>
 8005cd0:	6078      	str	r0, [r7, #4]

  while(!__HAL_PWR_GET_FLAG(PWR_FLAG_ODRDY))
 8005cd2:	e009      	b.n	8005ce8 <HAL_PWREx_EnableOverDrive+0x48>
  {
    if((HAL_GetTick() - tickstart) > PWR_OVERDRIVE_TIMEOUT_VALUE)
 8005cd4:	f7fe fc68 	bl	80045a8 <HAL_GetTick>
 8005cd8:	4602      	mov	r2, r0
 8005cda:	687b      	ldr	r3, [r7, #4]
 8005cdc:	1ad3      	subs	r3, r2, r3
 8005cde:	f5b3 7f7a 	cmp.w	r3, #1000	@ 0x3e8
 8005ce2:	d901      	bls.n	8005ce8 <HAL_PWREx_EnableOverDrive+0x48>
    {
      return HAL_TIMEOUT;
 8005ce4:	2303      	movs	r3, #3
 8005ce6:	e01f      	b.n	8005d28 <HAL_PWREx_EnableOverDrive+0x88>
  while(!__HAL_PWR_GET_FLAG(PWR_FLAG_ODRDY))
 8005ce8:	4b13      	ldr	r3, [pc, #76]	@ (8005d38 <HAL_PWREx_EnableOverDrive+0x98>)
 8005cea:	685b      	ldr	r3, [r3, #4]
 8005cec:	f403 3380 	and.w	r3, r3, #65536	@ 0x10000
 8005cf0:	f5b3 3f80 	cmp.w	r3, #65536	@ 0x10000
 8005cf4:	d1ee      	bne.n	8005cd4 <HAL_PWREx_EnableOverDrive+0x34>
    }
  }
  
  /* Enable the Over-drive switch */
  __HAL_PWR_OVERDRIVESWITCHING_ENABLE();
 8005cf6:	4b11      	ldr	r3, [pc, #68]	@ (8005d3c <HAL_PWREx_EnableOverDrive+0x9c>)
 8005cf8:	2201      	movs	r2, #1
 8005cfa:	601a      	str	r2, [r3, #0]

  /* Get tick */
  tickstart = HAL_GetTick();
 8005cfc:	f7fe fc54 	bl	80045a8 <HAL_GetTick>
 8005d00:	6078      	str	r0, [r7, #4]

  while(!__HAL_PWR_GET_FLAG(PWR_FLAG_ODSWRDY))
 8005d02:	e009      	b.n	8005d18 <HAL_PWREx_EnableOverDrive+0x78>
  {
    if((HAL_GetTick() - tickstart ) > PWR_OVERDRIVE_TIMEOUT_VALUE)
 8005d04:	f7fe fc50 	bl	80045a8 <HAL_GetTick>
 8005d08:	4602      	mov	r2, r0
 8005d0a:	687b      	ldr	r3, [r7, #4]
 8005d0c:	1ad3      	subs	r3, r2, r3
 8005d0e:	f5b3 7f7a 	cmp.w	r3, #1000	@ 0x3e8
 8005d12:	d901      	bls.n	8005d18 <HAL_PWREx_EnableOverDrive+0x78>
    {
      return HAL_TIMEOUT;
 8005d14:	2303      	movs	r3, #3
 8005d16:	e007      	b.n	8005d28 <HAL_PWREx_EnableOverDrive+0x88>
  while(!__HAL_PWR_GET_FLAG(PWR_FLAG_ODSWRDY))
 8005d18:	4b07      	ldr	r3, [pc, #28]	@ (8005d38 <HAL_PWREx_EnableOverDrive+0x98>)
 8005d1a:	685b      	ldr	r3, [r3, #4]
 8005d1c:	f403 3300 	and.w	r3, r3, #131072	@ 0x20000
 8005d20:	f5b3 3f00 	cmp.w	r3, #131072	@ 0x20000
 8005d24:	d1ee      	bne.n	8005d04 <HAL_PWREx_EnableOverDrive+0x64>
    }
  } 
  return HAL_OK;
 8005d26:	2300      	movs	r3, #0
}
 8005d28:	4618      	mov	r0, r3
 8005d2a:	3708      	adds	r7, #8
 8005d2c:	46bd      	mov	sp, r7
 8005d2e:	bd80      	pop	{r7, pc}
 8005d30:	40023800 	.word	0x40023800
 8005d34:	420e0040 	.word	0x420e0040
 8005d38:	40007000 	.word	0x40007000
 8005d3c:	420e0044 	.word	0x420e0044

08005d40 <HAL_RCC_OscConfig>:
  *         supported by this API. User should request a transition to HSE Off
  *         first and then HSE On or HSE Bypass.
  * @retval HAL status
  */
__weak HAL_StatusTypeDef HAL_RCC_OscConfig(RCC_OscInitTypeDef  *RCC_OscInitStruct)
{
 8005d40:	b580      	push	{r7, lr}
 8005d42:	b086      	sub	sp, #24
 8005d44:	af00      	add	r7, sp, #0
 8005d46:	6078      	str	r0, [r7, #4]
  uint32_t tickstart;
  uint32_t pll_config;
  /* Check Null pointer */
  if (RCC_OscInitStruct == NULL)
 8005d48:	687b      	ldr	r3, [r7, #4]
 8005d4a:	2b00      	cmp	r3, #0
 8005d4c:	d101      	bne.n	8005d52 <HAL_RCC_OscConfig+0x12>
  {
    return HAL_ERROR;
 8005d4e:	2301      	movs	r3, #1
 8005d50:	e267      	b.n	8006222 <HAL_RCC_OscConfig+0x4e2>
  }

  /* Check the parameters */
  assert_param(IS_RCC_OSCILLATORTYPE(RCC_OscInitStruct->OscillatorType));
  /*------------------------------- HSE Configuration ------------------------*/
  if (((RCC_OscInitStruct->OscillatorType) & RCC_OSCILLATORTYPE_HSE) == RCC_OSCILLATORTYPE_HSE)
 8005d52:	687b      	ldr	r3, [r7, #4]
 8005d54:	681b      	ldr	r3, [r3, #0]
 8005d56:	f003 0301 	and.w	r3, r3, #1
 8005d5a:	2b00      	cmp	r3, #0
 8005d5c:	d075      	beq.n	8005e4a <HAL_RCC_OscConfig+0x10a>
  {
    /* Check the parameters */
    assert_param(IS_RCC_HSE(RCC_OscInitStruct->HSEState));
    /* When the HSE is used as system clock or clock source for PLL in these cases HSE will not disabled */
    if ((__HAL_RCC_GET_SYSCLK_SOURCE() == RCC_CFGR_SWS_HSE) || \
 8005d5e:	4b88      	ldr	r3, [pc, #544]	@ (8005f80 <HAL_RCC_OscConfig+0x240>)
 8005d60:	689b      	ldr	r3, [r3, #8]
 8005d62:	f003 030c 	and.w	r3, r3, #12
 8005d66:	2b04      	cmp	r3, #4
 8005d68:	d00c      	beq.n	8005d84 <HAL_RCC_OscConfig+0x44>
        ((__HAL_RCC_GET_SYSCLK_SOURCE() == RCC_CFGR_SWS_PLL) && ((RCC->PLLCFGR & RCC_PLLCFGR_PLLSRC) == RCC_PLLCFGR_PLLSRC_HSE)))
 8005d6a:	4b85      	ldr	r3, [pc, #532]	@ (8005f80 <HAL_RCC_OscConfig+0x240>)
 8005d6c:	689b      	ldr	r3, [r3, #8]
 8005d6e:	f003 030c 	and.w	r3, r3, #12
    if ((__HAL_RCC_GET_SYSCLK_SOURCE() == RCC_CFGR_SWS_HSE) || \
 8005d72:	2b08      	cmp	r3, #8
 8005d74:	d112      	bne.n	8005d9c <HAL_RCC_OscConfig+0x5c>
        ((__HAL_RCC_GET_SYSCLK_SOURCE() == RCC_CFGR_SWS_PLL) && ((RCC->PLLCFGR & RCC_PLLCFGR_PLLSRC) == RCC_PLLCFGR_PLLSRC_HSE)))
 8005d76:	4b82      	ldr	r3, [pc, #520]	@ (8005f80 <HAL_RCC_OscConfig+0x240>)
 8005d78:	685b      	ldr	r3, [r3, #4]
 8005d7a:	f403 0380 	and.w	r3, r3, #4194304	@ 0x400000
 8005d7e:	f5b3 0f80 	cmp.w	r3, #4194304	@ 0x400000
 8005d82:	d10b      	bne.n	8005d9c <HAL_RCC_OscConfig+0x5c>
    {
      if ((__HAL_RCC_GET_FLAG(RCC_FLAG_HSERDY) != RESET) && (RCC_OscInitStruct->HSEState == RCC_HSE_OFF))
 8005d84:	4b7e      	ldr	r3, [pc, #504]	@ (8005f80 <HAL_RCC_OscConfig+0x240>)
 8005d86:	681b      	ldr	r3, [r3, #0]
 8005d88:	f403 3300 	and.w	r3, r3, #131072	@ 0x20000
 8005d8c:	2b00      	cmp	r3, #0
 8005d8e:	d05b      	beq.n	8005e48 <HAL_RCC_OscConfig+0x108>
 8005d90:	687b      	ldr	r3, [r7, #4]
 8005d92:	685b      	ldr	r3, [r3, #4]
 8005d94:	2b00      	cmp	r3, #0
 8005d96:	d157      	bne.n	8005e48 <HAL_RCC_OscConfig+0x108>
      {
        return HAL_ERROR;
 8005d98:	2301      	movs	r3, #1
 8005d9a:	e242      	b.n	8006222 <HAL_RCC_OscConfig+0x4e2>
      }
    }
    else
    {
      /* Set the new HSE configuration ---------------------------------------*/
      __HAL_RCC_HSE_CONFIG(RCC_OscInitStruct->HSEState);
 8005d9c:	687b      	ldr	r3, [r7, #4]
 8005d9e:	685b      	ldr	r3, [r3, #4]
 8005da0:	f5b3 3f80 	cmp.w	r3, #65536	@ 0x10000
 8005da4:	d106      	bne.n	8005db4 <HAL_RCC_OscConfig+0x74>
 8005da6:	4b76      	ldr	r3, [pc, #472]	@ (8005f80 <HAL_RCC_OscConfig+0x240>)
 8005da8:	681b      	ldr	r3, [r3, #0]
 8005daa:	4a75      	ldr	r2, [pc, #468]	@ (8005f80 <HAL_RCC_OscConfig+0x240>)
 8005dac:	f443 3380 	orr.w	r3, r3, #65536	@ 0x10000
 8005db0:	6013      	str	r3, [r2, #0]
 8005db2:	e01d      	b.n	8005df0 <HAL_RCC_OscConfig+0xb0>
 8005db4:	687b      	ldr	r3, [r7, #4]
 8005db6:	685b      	ldr	r3, [r3, #4]
 8005db8:	f5b3 2fa0 	cmp.w	r3, #327680	@ 0x50000
 8005dbc:	d10c      	bne.n	8005dd8 <HAL_RCC_OscConfig+0x98>
 8005dbe:	4b70      	ldr	r3, [pc, #448]	@ (8005f80 <HAL_RCC_OscConfig+0x240>)
 8005dc0:	681b      	ldr	r3, [r3, #0]
 8005dc2:	4a6f      	ldr	r2, [pc, #444]	@ (8005f80 <HAL_RCC_OscConfig+0x240>)
 8005dc4:	f443 2380 	orr.w	r3, r3, #262144	@ 0x40000
 8005dc8:	6013      	str	r3, [r2, #0]
 8005dca:	4b6d      	ldr	r3, [pc, #436]	@ (8005f80 <HAL_RCC_OscConfig+0x240>)
 8005dcc:	681b      	ldr	r3, [r3, #0]
 8005dce:	4a6c      	ldr	r2, [pc, #432]	@ (8005f80 <HAL_RCC_OscConfig+0x240>)
 8005dd0:	f443 3380 	orr.w	r3, r3, #65536	@ 0x10000
 8005dd4:	6013      	str	r3, [r2, #0]
 8005dd6:	e00b      	b.n	8005df0 <HAL_RCC_OscConfig+0xb0>
 8005dd8:	4b69      	ldr	r3, [pc, #420]	@ (8005f80 <HAL_RCC_OscConfig+0x240>)
 8005dda:	681b      	ldr	r3, [r3, #0]
 8005ddc:	4a68      	ldr	r2, [pc, #416]	@ (8005f80 <HAL_RCC_OscConfig+0x240>)
 8005dde:	f423 3380 	bic.w	r3, r3, #65536	@ 0x10000
 8005de2:	6013      	str	r3, [r2, #0]
 8005de4:	4b66      	ldr	r3, [pc, #408]	@ (8005f80 <HAL_RCC_OscConfig+0x240>)
 8005de6:	681b      	ldr	r3, [r3, #0]
 8005de8:	4a65      	ldr	r2, [pc, #404]	@ (8005f80 <HAL_RCC_OscConfig+0x240>)
 8005dea:	f423 2380 	bic.w	r3, r3, #262144	@ 0x40000
 8005dee:	6013      	str	r3, [r2, #0]

      /* Check the HSE State */
      if ((RCC_OscInitStruct->HSEState) != RCC_HSE_OFF)
 8005df0:	687b      	ldr	r3, [r7, #4]
 8005df2:	685b      	ldr	r3, [r3, #4]
 8005df4:	2b00      	cmp	r3, #0
 8005df6:	d013      	beq.n	8005e20 <HAL_RCC_OscConfig+0xe0>
      {
        /* Get Start Tick */
        tickstart = HAL_GetTick();
 8005df8:	f7fe fbd6 	bl	80045a8 <HAL_GetTick>
 8005dfc:	6138      	str	r0, [r7, #16]

        /* Wait till HSE is ready */
        while (__HAL_RCC_GET_FLAG(RCC_FLAG_HSERDY) == RESET)
 8005dfe:	e008      	b.n	8005e12 <HAL_RCC_OscConfig+0xd2>
        {
          if ((HAL_GetTick() - tickstart) > HSE_TIMEOUT_VALUE)
 8005e00:	f7fe fbd2 	bl	80045a8 <HAL_GetTick>
 8005e04:	4602      	mov	r2, r0
 8005e06:	693b      	ldr	r3, [r7, #16]
 8005e08:	1ad3      	subs	r3, r2, r3
 8005e0a:	2b64      	cmp	r3, #100	@ 0x64
 8005e0c:	d901      	bls.n	8005e12 <HAL_RCC_OscConfig+0xd2>
          {
            return HAL_TIMEOUT;
 8005e0e:	2303      	movs	r3, #3
 8005e10:	e207      	b.n	8006222 <HAL_RCC_OscConfig+0x4e2>
        while (__HAL_RCC_GET_FLAG(RCC_FLAG_HSERDY) == RESET)
 8005e12:	4b5b      	ldr	r3, [pc, #364]	@ (8005f80 <HAL_RCC_OscConfig+0x240>)
 8005e14:	681b      	ldr	r3, [r3, #0]
 8005e16:	f403 3300 	and.w	r3, r3, #131072	@ 0x20000
 8005e1a:	2b00      	cmp	r3, #0
 8005e1c:	d0f0      	beq.n	8005e00 <HAL_RCC_OscConfig+0xc0>
 8005e1e:	e014      	b.n	8005e4a <HAL_RCC_OscConfig+0x10a>
        }
      }
      else
      {
        /* Get Start Tick */
        tickstart = HAL_GetTick();
 8005e20:	f7fe fbc2 	bl	80045a8 <HAL_GetTick>
 8005e24:	6138      	str	r0, [r7, #16]

        /* Wait till HSE is bypassed or disabled */
        while (__HAL_RCC_GET_FLAG(RCC_FLAG_HSERDY) != RESET)
 8005e26:	e008      	b.n	8005e3a <HAL_RCC_OscConfig+0xfa>
        {
          if ((HAL_GetTick() - tickstart) > HSE_TIMEOUT_VALUE)
 8005e28:	f7fe fbbe 	bl	80045a8 <HAL_GetTick>
 8005e2c:	4602      	mov	r2, r0
 8005e2e:	693b      	ldr	r3, [r7, #16]
 8005e30:	1ad3      	subs	r3, r2, r3
 8005e32:	2b64      	cmp	r3, #100	@ 0x64
 8005e34:	d901      	bls.n	8005e3a <HAL_RCC_OscConfig+0xfa>
          {
            return HAL_TIMEOUT;
 8005e36:	2303      	movs	r3, #3
 8005e38:	e1f3      	b.n	8006222 <HAL_RCC_OscConfig+0x4e2>
        while (__HAL_RCC_GET_FLAG(RCC_FLAG_HSERDY) != RESET)
 8005e3a:	4b51      	ldr	r3, [pc, #324]	@ (8005f80 <HAL_RCC_OscConfig+0x240>)
 8005e3c:	681b      	ldr	r3, [r3, #0]
 8005e3e:	f403 3300 	and.w	r3, r3, #131072	@ 0x20000
 8005e42:	2b00      	cmp	r3, #0
 8005e44:	d1f0      	bne.n	8005e28 <HAL_RCC_OscConfig+0xe8>
 8005e46:	e000      	b.n	8005e4a <HAL_RCC_OscConfig+0x10a>
      if ((__HAL_RCC_GET_FLAG(RCC_FLAG_HSERDY) != RESET) && (RCC_OscInitStruct->HSEState == RCC_HSE_OFF))
 8005e48:	bf00      	nop
        }
      }
    }
  }
  /*----------------------------- HSI Configuration --------------------------*/
  if (((RCC_OscInitStruct->OscillatorType) & RCC_OSCILLATORTYPE_HSI) == RCC_OSCILLATORTYPE_HSI)
 8005e4a:	687b      	ldr	r3, [r7, #4]
 8005e4c:	681b      	ldr	r3, [r3, #0]
 8005e4e:	f003 0302 	and.w	r3, r3, #2
 8005e52:	2b00      	cmp	r3, #0
 8005e54:	d063      	beq.n	8005f1e <HAL_RCC_OscConfig+0x1de>
    /* Check the parameters */
    assert_param(IS_RCC_HSI(RCC_OscInitStruct->HSIState));
    assert_param(IS_RCC_CALIBRATION_VALUE(RCC_OscInitStruct->HSICalibrationValue));

    /* Check if HSI is used as system clock or as PLL source when PLL is selected as system clock */
    if ((__HAL_RCC_GET_SYSCLK_SOURCE() == RCC_CFGR_SWS_HSI) || \
 8005e56:	4b4a      	ldr	r3, [pc, #296]	@ (8005f80 <HAL_RCC_OscConfig+0x240>)
 8005e58:	689b      	ldr	r3, [r3, #8]
 8005e5a:	f003 030c 	and.w	r3, r3, #12
 8005e5e:	2b00      	cmp	r3, #0
 8005e60:	d00b      	beq.n	8005e7a <HAL_RCC_OscConfig+0x13a>
        ((__HAL_RCC_GET_SYSCLK_SOURCE() == RCC_CFGR_SWS_PLL) && ((RCC->PLLCFGR & RCC_PLLCFGR_PLLSRC) == RCC_PLLCFGR_PLLSRC_HSI)))
 8005e62:	4b47      	ldr	r3, [pc, #284]	@ (8005f80 <HAL_RCC_OscConfig+0x240>)
 8005e64:	689b      	ldr	r3, [r3, #8]
 8005e66:	f003 030c 	and.w	r3, r3, #12
    if ((__HAL_RCC_GET_SYSCLK_SOURCE() == RCC_CFGR_SWS_HSI) || \
 8005e6a:	2b08      	cmp	r3, #8
 8005e6c:	d11c      	bne.n	8005ea8 <HAL_RCC_OscConfig+0x168>
        ((__HAL_RCC_GET_SYSCLK_SOURCE() == RCC_CFGR_SWS_PLL) && ((RCC->PLLCFGR & RCC_PLLCFGR_PLLSRC) == RCC_PLLCFGR_PLLSRC_HSI)))
 8005e6e:	4b44      	ldr	r3, [pc, #272]	@ (8005f80 <HAL_RCC_OscConfig+0x240>)
 8005e70:	685b      	ldr	r3, [r3, #4]
 8005e72:	f403 0380 	and.w	r3, r3, #4194304	@ 0x400000
 8005e76:	2b00      	cmp	r3, #0
 8005e78:	d116      	bne.n	8005ea8 <HAL_RCC_OscConfig+0x168>
    {
      /* When HSI is used as system clock it will not disabled */
      if ((__HAL_RCC_GET_FLAG(RCC_FLAG_HSIRDY) != RESET) && (RCC_OscInitStruct->HSIState != RCC_HSI_ON))
 8005e7a:	4b41      	ldr	r3, [pc, #260]	@ (8005f80 <HAL_RCC_OscConfig+0x240>)
 8005e7c:	681b      	ldr	r3, [r3, #0]
 8005e7e:	f003 0302 	and.w	r3, r3, #2
 8005e82:	2b00      	cmp	r3, #0
 8005e84:	d005      	beq.n	8005e92 <HAL_RCC_OscConfig+0x152>
 8005e86:	687b      	ldr	r3, [r7, #4]
 8005e88:	68db      	ldr	r3, [r3, #12]
 8005e8a:	2b01      	cmp	r3, #1
 8005e8c:	d001      	beq.n	8005e92 <HAL_RCC_OscConfig+0x152>
      {
        return HAL_ERROR;
 8005e8e:	2301      	movs	r3, #1
 8005e90:	e1c7      	b.n	8006222 <HAL_RCC_OscConfig+0x4e2>
      }
      /* Otherwise, just the calibration is allowed */
      else
      {
        /* Adjusts the Internal High Speed oscillator (HSI) calibration value.*/
        __HAL_RCC_HSI_CALIBRATIONVALUE_ADJUST(RCC_OscInitStruct->HSICalibrationValue);
 8005e92:	4b3b      	ldr	r3, [pc, #236]	@ (8005f80 <HAL_RCC_OscConfig+0x240>)
 8005e94:	681b      	ldr	r3, [r3, #0]
 8005e96:	f023 02f8 	bic.w	r2, r3, #248	@ 0xf8
 8005e9a:	687b      	ldr	r3, [r7, #4]
 8005e9c:	691b      	ldr	r3, [r3, #16]
 8005e9e:	00db      	lsls	r3, r3, #3
 8005ea0:	4937      	ldr	r1, [pc, #220]	@ (8005f80 <HAL_RCC_OscConfig+0x240>)
 8005ea2:	4313      	orrs	r3, r2
 8005ea4:	600b      	str	r3, [r1, #0]
      if ((__HAL_RCC_GET_FLAG(RCC_FLAG_HSIRDY) != RESET) && (RCC_OscInitStruct->HSIState != RCC_HSI_ON))
 8005ea6:	e03a      	b.n	8005f1e <HAL_RCC_OscConfig+0x1de>
      }
    }
    else
    {
      /* Check the HSI State */
      if ((RCC_OscInitStruct->HSIState) != RCC_HSI_OFF)
 8005ea8:	687b      	ldr	r3, [r7, #4]
 8005eaa:	68db      	ldr	r3, [r3, #12]
 8005eac:	2b00      	cmp	r3, #0
 8005eae:	d020      	beq.n	8005ef2 <HAL_RCC_OscConfig+0x1b2>
      {
        /* Enable the Internal High Speed oscillator (HSI). */
        __HAL_RCC_HSI_ENABLE();
 8005eb0:	4b34      	ldr	r3, [pc, #208]	@ (8005f84 <HAL_RCC_OscConfig+0x244>)
 8005eb2:	2201      	movs	r2, #1
 8005eb4:	601a      	str	r2, [r3, #0]

        /* Get Start Tick*/
        tickstart = HAL_GetTick();
 8005eb6:	f7fe fb77 	bl	80045a8 <HAL_GetTick>
 8005eba:	6138      	str	r0, [r7, #16]

        /* Wait till HSI is ready */
        while (__HAL_RCC_GET_FLAG(RCC_FLAG_HSIRDY) == RESET)
 8005ebc:	e008      	b.n	8005ed0 <HAL_RCC_OscConfig+0x190>
        {
          if ((HAL_GetTick() - tickstart) > HSI_TIMEOUT_VALUE)
 8005ebe:	f7fe fb73 	bl	80045a8 <HAL_GetTick>
 8005ec2:	4602      	mov	r2, r0
 8005ec4:	693b      	ldr	r3, [r7, #16]
 8005ec6:	1ad3      	subs	r3, r2, r3
 8005ec8:	2b02      	cmp	r3, #2
 8005eca:	d901      	bls.n	8005ed0 <HAL_RCC_OscConfig+0x190>
          {
            return HAL_TIMEOUT;
 8005ecc:	2303      	movs	r3, #3
 8005ece:	e1a8      	b.n	8006222 <HAL_RCC_OscConfig+0x4e2>
        while (__HAL_RCC_GET_FLAG(RCC_FLAG_HSIRDY) == RESET)
 8005ed0:	4b2b      	ldr	r3, [pc, #172]	@ (8005f80 <HAL_RCC_OscConfig+0x240>)
 8005ed2:	681b      	ldr	r3, [r3, #0]
 8005ed4:	f003 0302 	and.w	r3, r3, #2
 8005ed8:	2b00      	cmp	r3, #0
 8005eda:	d0f0      	beq.n	8005ebe <HAL_RCC_OscConfig+0x17e>
          }
        }

        /* Adjusts the Internal High Speed oscillator (HSI) calibration value. */
        __HAL_RCC_HSI_CALIBRATIONVALUE_ADJUST(RCC_OscInitStruct->HSICalibrationValue);
 8005edc:	4b28      	ldr	r3, [pc, #160]	@ (8005f80 <HAL_RCC_OscConfig+0x240>)
 8005ede:	681b      	ldr	r3, [r3, #0]
 8005ee0:	f023 02f8 	bic.w	r2, r3, #248	@ 0xf8
 8005ee4:	687b      	ldr	r3, [r7, #4]
 8005ee6:	691b      	ldr	r3, [r3, #16]
 8005ee8:	00db      	lsls	r3, r3, #3
 8005eea:	4925      	ldr	r1, [pc, #148]	@ (8005f80 <HAL_RCC_OscConfig+0x240>)
 8005eec:	4313      	orrs	r3, r2
 8005eee:	600b      	str	r3, [r1, #0]
 8005ef0:	e015      	b.n	8005f1e <HAL_RCC_OscConfig+0x1de>
      }
      else
      {
        /* Disable the Internal High Speed oscillator (HSI). */
        __HAL_RCC_HSI_DISABLE();
 8005ef2:	4b24      	ldr	r3, [pc, #144]	@ (8005f84 <HAL_RCC_OscConfig+0x244>)
 8005ef4:	2200      	movs	r2, #0
 8005ef6:	601a      	str	r2, [r3, #0]

        /* Get Start Tick*/
        tickstart = HAL_GetTick();
 8005ef8:	f7fe fb56 	bl	80045a8 <HAL_GetTick>
 8005efc:	6138      	str	r0, [r7, #16]

        /* Wait till HSI is ready */
        while (__HAL_RCC_GET_FLAG(RCC_FLAG_HSIRDY) != RESET)
 8005efe:	e008      	b.n	8005f12 <HAL_RCC_OscConfig+0x1d2>
        {
          if ((HAL_GetTick() - tickstart) > HSI_TIMEOUT_VALUE)
 8005f00:	f7fe fb52 	bl	80045a8 <HAL_GetTick>
 8005f04:	4602      	mov	r2, r0
 8005f06:	693b      	ldr	r3, [r7, #16]
 8005f08:	1ad3      	subs	r3, r2, r3
 8005f0a:	2b02      	cmp	r3, #2
 8005f0c:	d901      	bls.n	8005f12 <HAL_RCC_OscConfig+0x1d2>
          {
            return HAL_TIMEOUT;
 8005f0e:	2303      	movs	r3, #3
 8005f10:	e187      	b.n	8006222 <HAL_RCC_OscConfig+0x4e2>
        while (__HAL_RCC_GET_FLAG(RCC_FLAG_HSIRDY) != RESET)
 8005f12:	4b1b      	ldr	r3, [pc, #108]	@ (8005f80 <HAL_RCC_OscConfig+0x240>)
 8005f14:	681b      	ldr	r3, [r3, #0]
 8005f16:	f003 0302 	and.w	r3, r3, #2
 8005f1a:	2b00      	cmp	r3, #0
 8005f1c:	d1f0      	bne.n	8005f00 <HAL_RCC_OscConfig+0x1c0>
        }
      }
    }
  }
  /*------------------------------ LSI Configuration -------------------------*/
  if (((RCC_OscInitStruct->OscillatorType) & RCC_OSCILLATORTYPE_LSI) == RCC_OSCILLATORTYPE_LSI)
 8005f1e:	687b      	ldr	r3, [r7, #4]
 8005f20:	681b      	ldr	r3, [r3, #0]
 8005f22:	f003 0308 	and.w	r3, r3, #8
 8005f26:	2b00      	cmp	r3, #0
 8005f28:	d036      	beq.n	8005f98 <HAL_RCC_OscConfig+0x258>
  {
    /* Check the parameters */
    assert_param(IS_RCC_LSI(RCC_OscInitStruct->LSIState));

    /* Check the LSI State */
    if ((RCC_OscInitStruct->LSIState) != RCC_LSI_OFF)
 8005f2a:	687b      	ldr	r3, [r7, #4]
 8005f2c:	695b      	ldr	r3, [r3, #20]
 8005f2e:	2b00      	cmp	r3, #0
 8005f30:	d016      	beq.n	8005f60 <HAL_RCC_OscConfig+0x220>
    {
      /* Enable the Internal Low Speed oscillator (LSI). */
      __HAL_RCC_LSI_ENABLE();
 8005f32:	4b15      	ldr	r3, [pc, #84]	@ (8005f88 <HAL_RCC_OscConfig+0x248>)
 8005f34:	2201      	movs	r2, #1
 8005f36:	601a      	str	r2, [r3, #0]

      /* Get Start Tick*/
      tickstart = HAL_GetTick();
 8005f38:	f7fe fb36 	bl	80045a8 <HAL_GetTick>
 8005f3c:	6138      	str	r0, [r7, #16]

      /* Wait till LSI is ready */
      while (__HAL_RCC_GET_FLAG(RCC_FLAG_LSIRDY) == RESET)
 8005f3e:	e008      	b.n	8005f52 <HAL_RCC_OscConfig+0x212>
      {
        if ((HAL_GetTick() - tickstart) > LSI_TIMEOUT_VALUE)
 8005f40:	f7fe fb32 	bl	80045a8 <HAL_GetTick>
 8005f44:	4602      	mov	r2, r0
 8005f46:	693b      	ldr	r3, [r7, #16]
 8005f48:	1ad3      	subs	r3, r2, r3
 8005f4a:	2b02      	cmp	r3, #2
 8005f4c:	d901      	bls.n	8005f52 <HAL_RCC_OscConfig+0x212>
        {
          return HAL_TIMEOUT;
 8005f4e:	2303      	movs	r3, #3
 8005f50:	e167      	b.n	8006222 <HAL_RCC_OscConfig+0x4e2>
      while (__HAL_RCC_GET_FLAG(RCC_FLAG_LSIRDY) == RESET)
 8005f52:	4b0b      	ldr	r3, [pc, #44]	@ (8005f80 <HAL_RCC_OscConfig+0x240>)
 8005f54:	6f5b      	ldr	r3, [r3, #116]	@ 0x74
 8005f56:	f003 0302 	and.w	r3, r3, #2
 8005f5a:	2b00      	cmp	r3, #0
 8005f5c:	d0f0      	beq.n	8005f40 <HAL_RCC_OscConfig+0x200>
 8005f5e:	e01b      	b.n	8005f98 <HAL_RCC_OscConfig+0x258>
      }
    }
    else
    {
      /* Disable the Internal Low Speed oscillator (LSI). */
      __HAL_RCC_LSI_DISABLE();
 8005f60:	4b09      	ldr	r3, [pc, #36]	@ (8005f88 <HAL_RCC_OscConfig+0x248>)
 8005f62:	2200      	movs	r2, #0
 8005f64:	601a      	str	r2, [r3, #0]

      /* Get Start Tick */
      tickstart = HAL_GetTick();
 8005f66:	f7fe fb1f 	bl	80045a8 <HAL_GetTick>
 8005f6a:	6138      	str	r0, [r7, #16]

      /* Wait till LSI is ready */
      while (__HAL_RCC_GET_FLAG(RCC_FLAG_LSIRDY) != RESET)
 8005f6c:	e00e      	b.n	8005f8c <HAL_RCC_OscConfig+0x24c>
      {
        if ((HAL_GetTick() - tickstart) > LSI_TIMEOUT_VALUE)
 8005f6e:	f7fe fb1b 	bl	80045a8 <HAL_GetTick>
 8005f72:	4602      	mov	r2, r0
 8005f74:	693b      	ldr	r3, [r7, #16]
 8005f76:	1ad3      	subs	r3, r2, r3
 8005f78:	2b02      	cmp	r3, #2
 8005f7a:	d907      	bls.n	8005f8c <HAL_RCC_OscConfig+0x24c>
        {
          return HAL_TIMEOUT;
 8005f7c:	2303      	movs	r3, #3
 8005f7e:	e150      	b.n	8006222 <HAL_RCC_OscConfig+0x4e2>
 8005f80:	40023800 	.word	0x40023800
 8005f84:	42470000 	.word	0x42470000
 8005f88:	42470e80 	.word	0x42470e80
      while (__HAL_RCC_GET_FLAG(RCC_FLAG_LSIRDY) != RESET)
 8005f8c:	4b88      	ldr	r3, [pc, #544]	@ (80061b0 <HAL_RCC_OscConfig+0x470>)
 8005f8e:	6f5b      	ldr	r3, [r3, #116]	@ 0x74
 8005f90:	f003 0302 	and.w	r3, r3, #2
 8005f94:	2b00      	cmp	r3, #0
 8005f96:	d1ea      	bne.n	8005f6e <HAL_RCC_OscConfig+0x22e>
        }
      }
    }
  }
  /*------------------------------ LSE Configuration -------------------------*/
  if (((RCC_OscInitStruct->OscillatorType) & RCC_OSCILLATORTYPE_LSE) == RCC_OSCILLATORTYPE_LSE)
 8005f98:	687b      	ldr	r3, [r7, #4]
 8005f9a:	681b      	ldr	r3, [r3, #0]
 8005f9c:	f003 0304 	and.w	r3, r3, #4
 8005fa0:	2b00      	cmp	r3, #0
 8005fa2:	f000 8097 	beq.w	80060d4 <HAL_RCC_OscConfig+0x394>
  {
    FlagStatus       pwrclkchanged = RESET;
 8005fa6:	2300      	movs	r3, #0
 8005fa8:	75fb      	strb	r3, [r7, #23]
    /* Check the parameters */
    assert_param(IS_RCC_LSE(RCC_OscInitStruct->LSEState));

    /* Update LSE configuration in Backup Domain control register    */
    /* Requires to enable write access to Backup Domain of necessary */
    if (__HAL_RCC_PWR_IS_CLK_DISABLED())
 8005faa:	4b81      	ldr	r3, [pc, #516]	@ (80061b0 <HAL_RCC_OscConfig+0x470>)
 8005fac:	6c1b      	ldr	r3, [r3, #64]	@ 0x40
 8005fae:	f003 5380 	and.w	r3, r3, #268435456	@ 0x10000000
 8005fb2:	2b00      	cmp	r3, #0
 8005fb4:	d10f      	bne.n	8005fd6 <HAL_RCC_OscConfig+0x296>
    {
      __HAL_RCC_PWR_CLK_ENABLE();
 8005fb6:	2300      	movs	r3, #0
 8005fb8:	60bb      	str	r3, [r7, #8]
 8005fba:	4b7d      	ldr	r3, [pc, #500]	@ (80061b0 <HAL_RCC_OscConfig+0x470>)
 8005fbc:	6c1b      	ldr	r3, [r3, #64]	@ 0x40
 8005fbe:	4a7c      	ldr	r2, [pc, #496]	@ (80061b0 <HAL_RCC_OscConfig+0x470>)
 8005fc0:	f043 5380 	orr.w	r3, r3, #268435456	@ 0x10000000
 8005fc4:	6413      	str	r3, [r2, #64]	@ 0x40
 8005fc6:	4b7a      	ldr	r3, [pc, #488]	@ (80061b0 <HAL_RCC_OscConfig+0x470>)
 8005fc8:	6c1b      	ldr	r3, [r3, #64]	@ 0x40
 8005fca:	f003 5380 	and.w	r3, r3, #268435456	@ 0x10000000
 8005fce:	60bb      	str	r3, [r7, #8]
 8005fd0:	68bb      	ldr	r3, [r7, #8]
      pwrclkchanged = SET;
 8005fd2:	2301      	movs	r3, #1
 8005fd4:	75fb      	strb	r3, [r7, #23]
    }

    if (HAL_IS_BIT_CLR(PWR->CR, PWR_CR_DBP))
 8005fd6:	4b77      	ldr	r3, [pc, #476]	@ (80061b4 <HAL_RCC_OscConfig+0x474>)
 8005fd8:	681b      	ldr	r3, [r3, #0]
 8005fda:	f403 7380 	and.w	r3, r3, #256	@ 0x100
 8005fde:	2b00      	cmp	r3, #0
 8005fe0:	d118      	bne.n	8006014 <HAL_RCC_OscConfig+0x2d4>
    {
      /* Enable write access to Backup domain */
      SET_BIT(PWR->CR, PWR_CR_DBP);
 8005fe2:	4b74      	ldr	r3, [pc, #464]	@ (80061b4 <HAL_RCC_OscConfig+0x474>)
 8005fe4:	681b      	ldr	r3, [r3, #0]
 8005fe6:	4a73      	ldr	r2, [pc, #460]	@ (80061b4 <HAL_RCC_OscConfig+0x474>)
 8005fe8:	f443 7380 	orr.w	r3, r3, #256	@ 0x100
 8005fec:	6013      	str	r3, [r2, #0]

      /* Wait for Backup domain Write protection disable */
      tickstart = HAL_GetTick();
 8005fee:	f7fe fadb 	bl	80045a8 <HAL_GetTick>
 8005ff2:	6138      	str	r0, [r7, #16]

      while (HAL_IS_BIT_CLR(PWR->CR, PWR_CR_DBP))
 8005ff4:	e008      	b.n	8006008 <HAL_RCC_OscConfig+0x2c8>
      {
        if ((HAL_GetTick() - tickstart) > RCC_DBP_TIMEOUT_VALUE)
 8005ff6:	f7fe fad7 	bl	80045a8 <HAL_GetTick>
 8005ffa:	4602      	mov	r2, r0
 8005ffc:	693b      	ldr	r3, [r7, #16]
 8005ffe:	1ad3      	subs	r3, r2, r3
 8006000:	2b02      	cmp	r3, #2
 8006002:	d901      	bls.n	8006008 <HAL_RCC_OscConfig+0x2c8>
        {
          return HAL_TIMEOUT;
 8006004:	2303      	movs	r3, #3
 8006006:	e10c      	b.n	8006222 <HAL_RCC_OscConfig+0x4e2>
      while (HAL_IS_BIT_CLR(PWR->CR, PWR_CR_DBP))
 8006008:	4b6a      	ldr	r3, [pc, #424]	@ (80061b4 <HAL_RCC_OscConfig+0x474>)
 800600a:	681b      	ldr	r3, [r3, #0]
 800600c:	f403 7380 	and.w	r3, r3, #256	@ 0x100
 8006010:	2b00      	cmp	r3, #0
 8006012:	d0f0      	beq.n	8005ff6 <HAL_RCC_OscConfig+0x2b6>
        }
      }
    }

    /* Set the new LSE configuration -----------------------------------------*/
    __HAL_RCC_LSE_CONFIG(RCC_OscInitStruct->LSEState);
 8006014:	687b      	ldr	r3, [r7, #4]
 8006016:	689b      	ldr	r3, [r3, #8]
 8006018:	2b01      	cmp	r3, #1
 800601a:	d106      	bne.n	800602a <HAL_RCC_OscConfig+0x2ea>
 800601c:	4b64      	ldr	r3, [pc, #400]	@ (80061b0 <HAL_RCC_OscConfig+0x470>)
 800601e:	6f1b      	ldr	r3, [r3, #112]	@ 0x70
 8006020:	4a63      	ldr	r2, [pc, #396]	@ (80061b0 <HAL_RCC_OscConfig+0x470>)
 8006022:	f043 0301 	orr.w	r3, r3, #1
 8006026:	6713      	str	r3, [r2, #112]	@ 0x70
 8006028:	e01c      	b.n	8006064 <HAL_RCC_OscConfig+0x324>
 800602a:	687b      	ldr	r3, [r7, #4]
 800602c:	689b      	ldr	r3, [r3, #8]
 800602e:	2b05      	cmp	r3, #5
 8006030:	d10c      	bne.n	800604c <HAL_RCC_OscConfig+0x30c>
 8006032:	4b5f      	ldr	r3, [pc, #380]	@ (80061b0 <HAL_RCC_OscConfig+0x470>)
 8006034:	6f1b      	ldr	r3, [r3, #112]	@ 0x70
 8006036:	4a5e      	ldr	r2, [pc, #376]	@ (80061b0 <HAL_RCC_OscConfig+0x470>)
 8006038:	f043 0304 	orr.w	r3, r3, #4
 800603c:	6713      	str	r3, [r2, #112]	@ 0x70
 800603e:	4b5c      	ldr	r3, [pc, #368]	@ (80061b0 <HAL_RCC_OscConfig+0x470>)
 8006040:	6f1b      	ldr	r3, [r3, #112]	@ 0x70
 8006042:	4a5b      	ldr	r2, [pc, #364]	@ (80061b0 <HAL_RCC_OscConfig+0x470>)
 8006044:	f043 0301 	orr.w	r3, r3, #1
 8006048:	6713      	str	r3, [r2, #112]	@ 0x70
 800604a:	e00b      	b.n	8006064 <HAL_RCC_OscConfig+0x324>
 800604c:	4b58      	ldr	r3, [pc, #352]	@ (80061b0 <HAL_RCC_OscConfig+0x470>)
 800604e:	6f1b      	ldr	r3, [r3, #112]	@ 0x70
 8006050:	4a57      	ldr	r2, [pc, #348]	@ (80061b0 <HAL_RCC_OscConfig+0x470>)
 8006052:	f023 0301 	bic.w	r3, r3, #1
 8006056:	6713      	str	r3, [r2, #112]	@ 0x70
 8006058:	4b55      	ldr	r3, [pc, #340]	@ (80061b0 <HAL_RCC_OscConfig+0x470>)
 800605a:	6f1b      	ldr	r3, [r3, #112]	@ 0x70
 800605c:	4a54      	ldr	r2, [pc, #336]	@ (80061b0 <HAL_RCC_OscConfig+0x470>)
 800605e:	f023 0304 	bic.w	r3, r3, #4
 8006062:	6713      	str	r3, [r2, #112]	@ 0x70
    /* Check the LSE State */
    if ((RCC_OscInitStruct->LSEState) != RCC_LSE_OFF)
 8006064:	687b      	ldr	r3, [r7, #4]
 8006066:	689b      	ldr	r3, [r3, #8]
 8006068:	2b00      	cmp	r3, #0
 800606a:	d015      	beq.n	8006098 <HAL_RCC_OscConfig+0x358>
    {
      /* Get Start Tick*/
      tickstart = HAL_GetTick();
 800606c:	f7fe fa9c 	bl	80045a8 <HAL_GetTick>
 8006070:	6138      	str	r0, [r7, #16]

      /* Wait till LSE is ready */
      while (__HAL_RCC_GET_FLAG(RCC_FLAG_LSERDY) == RESET)
 8006072:	e00a      	b.n	800608a <HAL_RCC_OscConfig+0x34a>
      {
        if ((HAL_GetTick() - tickstart) > RCC_LSE_TIMEOUT_VALUE)
 8006074:	f7fe fa98 	bl	80045a8 <HAL_GetTick>
 8006078:	4602      	mov	r2, r0
 800607a:	693b      	ldr	r3, [r7, #16]
 800607c:	1ad3      	subs	r3, r2, r3
 800607e:	f241 3288 	movw	r2, #5000	@ 0x1388
 8006082:	4293      	cmp	r3, r2
 8006084:	d901      	bls.n	800608a <HAL_RCC_OscConfig+0x34a>
        {
          return HAL_TIMEOUT;
 8006086:	2303      	movs	r3, #3
 8006088:	e0cb      	b.n	8006222 <HAL_RCC_OscConfig+0x4e2>
      while (__HAL_RCC_GET_FLAG(RCC_FLAG_LSERDY) == RESET)
 800608a:	4b49      	ldr	r3, [pc, #292]	@ (80061b0 <HAL_RCC_OscConfig+0x470>)
 800608c:	6f1b      	ldr	r3, [r3, #112]	@ 0x70
 800608e:	f003 0302 	and.w	r3, r3, #2
 8006092:	2b00      	cmp	r3, #0
 8006094:	d0ee      	beq.n	8006074 <HAL_RCC_OscConfig+0x334>
 8006096:	e014      	b.n	80060c2 <HAL_RCC_OscConfig+0x382>
      }
    }
    else
    {
      /* Get Start Tick */
      tickstart = HAL_GetTick();
 8006098:	f7fe fa86 	bl	80045a8 <HAL_GetTick>
 800609c:	6138      	str	r0, [r7, #16]

      /* Wait till LSE is ready */
      while (__HAL_RCC_GET_FLAG(RCC_FLAG_LSERDY) != RESET)
 800609e:	e00a      	b.n	80060b6 <HAL_RCC_OscConfig+0x376>
      {
        if ((HAL_GetTick() - tickstart) > RCC_LSE_TIMEOUT_VALUE)
 80060a0:	f7fe fa82 	bl	80045a8 <HAL_GetTick>
 80060a4:	4602      	mov	r2, r0
 80060a6:	693b      	ldr	r3, [r7, #16]
 80060a8:	1ad3      	subs	r3, r2, r3
 80060aa:	f241 3288 	movw	r2, #5000	@ 0x1388
 80060ae:	4293      	cmp	r3, r2
 80060b0:	d901      	bls.n	80060b6 <HAL_RCC_OscConfig+0x376>
        {
          return HAL_TIMEOUT;
 80060b2:	2303      	movs	r3, #3
 80060b4:	e0b5      	b.n	8006222 <HAL_RCC_OscConfig+0x4e2>
      while (__HAL_RCC_GET_FLAG(RCC_FLAG_LSERDY) != RESET)
 80060b6:	4b3e      	ldr	r3, [pc, #248]	@ (80061b0 <HAL_RCC_OscConfig+0x470>)
 80060b8:	6f1b      	ldr	r3, [r3, #112]	@ 0x70
 80060ba:	f003 0302 	and.w	r3, r3, #2
 80060be:	2b00      	cmp	r3, #0
 80060c0:	d1ee      	bne.n	80060a0 <HAL_RCC_OscConfig+0x360>
        }
      }
    }

    /* Restore clock configuration if changed */
    if (pwrclkchanged == SET)
 80060c2:	7dfb      	ldrb	r3, [r7, #23]
 80060c4:	2b01      	cmp	r3, #1
 80060c6:	d105      	bne.n	80060d4 <HAL_RCC_OscConfig+0x394>
    {
      __HAL_RCC_PWR_CLK_DISABLE();
 80060c8:	4b39      	ldr	r3, [pc, #228]	@ (80061b0 <HAL_RCC_OscConfig+0x470>)
 80060ca:	6c1b      	ldr	r3, [r3, #64]	@ 0x40
 80060cc:	4a38      	ldr	r2, [pc, #224]	@ (80061b0 <HAL_RCC_OscConfig+0x470>)
 80060ce:	f023 5380 	bic.w	r3, r3, #268435456	@ 0x10000000
 80060d2:	6413      	str	r3, [r2, #64]	@ 0x40
    }
  }
  /*-------------------------------- PLL Configuration -----------------------*/
  /* Check the parameters */
  assert_param(IS_RCC_PLL(RCC_OscInitStruct->PLL.PLLState));
  if ((RCC_OscInitStruct->PLL.PLLState) != RCC_PLL_NONE)
 80060d4:	687b      	ldr	r3, [r7, #4]
 80060d6:	699b      	ldr	r3, [r3, #24]
 80060d8:	2b00      	cmp	r3, #0
 80060da:	f000 80a1 	beq.w	8006220 <HAL_RCC_OscConfig+0x4e0>
  {
    /* Check if the PLL is used as system clock or not */
    if (__HAL_RCC_GET_SYSCLK_SOURCE() != RCC_CFGR_SWS_PLL)
 80060de:	4b34      	ldr	r3, [pc, #208]	@ (80061b0 <HAL_RCC_OscConfig+0x470>)
 80060e0:	689b      	ldr	r3, [r3, #8]
 80060e2:	f003 030c 	and.w	r3, r3, #12
 80060e6:	2b08      	cmp	r3, #8
 80060e8:	d05c      	beq.n	80061a4 <HAL_RCC_OscConfig+0x464>
    {
      if ((RCC_OscInitStruct->PLL.PLLState) == RCC_PLL_ON)
 80060ea:	687b      	ldr	r3, [r7, #4]
 80060ec:	699b      	ldr	r3, [r3, #24]
 80060ee:	2b02      	cmp	r3, #2
 80060f0:	d141      	bne.n	8006176 <HAL_RCC_OscConfig+0x436>
        assert_param(IS_RCC_PLLN_VALUE(RCC_OscInitStruct->PLL.PLLN));
        assert_param(IS_RCC_PLLP_VALUE(RCC_OscInitStruct->PLL.PLLP));
        assert_param(IS_RCC_PLLQ_VALUE(RCC_OscInitStruct->PLL.PLLQ));

        /* Disable the main PLL. */
        __HAL_RCC_PLL_DISABLE();
 80060f2:	4b31      	ldr	r3, [pc, #196]	@ (80061b8 <HAL_RCC_OscConfig+0x478>)
 80060f4:	2200      	movs	r2, #0
 80060f6:	601a      	str	r2, [r3, #0]

        /* Get Start Tick */
        tickstart = HAL_GetTick();
 80060f8:	f7fe fa56 	bl	80045a8 <HAL_GetTick>
 80060fc:	6138      	str	r0, [r7, #16]

        /* Wait till PLL is disabled */
        while (__HAL_RCC_GET_FLAG(RCC_FLAG_PLLRDY) != RESET)
 80060fe:	e008      	b.n	8006112 <HAL_RCC_OscConfig+0x3d2>
        {
          if ((HAL_GetTick() - tickstart) > PLL_TIMEOUT_VALUE)
 8006100:	f7fe fa52 	bl	80045a8 <HAL_GetTick>
 8006104:	4602      	mov	r2, r0
 8006106:	693b      	ldr	r3, [r7, #16]
 8006108:	1ad3      	subs	r3, r2, r3
 800610a:	2b02      	cmp	r3, #2
 800610c:	d901      	bls.n	8006112 <HAL_RCC_OscConfig+0x3d2>
          {
            return HAL_TIMEOUT;
 800610e:	2303      	movs	r3, #3
 8006110:	e087      	b.n	8006222 <HAL_RCC_OscConfig+0x4e2>
        while (__HAL_RCC_GET_FLAG(RCC_FLAG_PLLRDY) != RESET)
 8006112:	4b27      	ldr	r3, [pc, #156]	@ (80061b0 <HAL_RCC_OscConfig+0x470>)
 8006114:	681b      	ldr	r3, [r3, #0]
 8006116:	f003 7300 	and.w	r3, r3, #33554432	@ 0x2000000
 800611a:	2b00      	cmp	r3, #0
 800611c:	d1f0      	bne.n	8006100 <HAL_RCC_OscConfig+0x3c0>
          }
        }

        /* Configure the main PLL clock source, multiplication and division factors. */
        WRITE_REG(RCC->PLLCFGR, (RCC_OscInitStruct->PLL.PLLSource                                            | \
 800611e:	687b      	ldr	r3, [r7, #4]
 8006120:	69da      	ldr	r2, [r3, #28]
 8006122:	687b      	ldr	r3, [r7, #4]
 8006124:	6a1b      	ldr	r3, [r3, #32]
 8006126:	431a      	orrs	r2, r3
 8006128:	687b      	ldr	r3, [r7, #4]
 800612a:	6a5b      	ldr	r3, [r3, #36]	@ 0x24
 800612c:	019b      	lsls	r3, r3, #6
 800612e:	431a      	orrs	r2, r3
 8006130:	687b      	ldr	r3, [r7, #4]
 8006132:	6a9b      	ldr	r3, [r3, #40]	@ 0x28
 8006134:	085b      	lsrs	r3, r3, #1
 8006136:	3b01      	subs	r3, #1
 8006138:	041b      	lsls	r3, r3, #16
 800613a:	431a      	orrs	r2, r3
 800613c:	687b      	ldr	r3, [r7, #4]
 800613e:	6adb      	ldr	r3, [r3, #44]	@ 0x2c
 8006140:	061b      	lsls	r3, r3, #24
 8006142:	491b      	ldr	r1, [pc, #108]	@ (80061b0 <HAL_RCC_OscConfig+0x470>)
 8006144:	4313      	orrs	r3, r2
 8006146:	604b      	str	r3, [r1, #4]
                                 RCC_OscInitStruct->PLL.PLLM                                                 | \
                                 (RCC_OscInitStruct->PLL.PLLN << RCC_PLLCFGR_PLLN_Pos)             | \
                                 (((RCC_OscInitStruct->PLL.PLLP >> 1U) - 1U) << RCC_PLLCFGR_PLLP_Pos) | \
                                 (RCC_OscInitStruct->PLL.PLLQ << RCC_PLLCFGR_PLLQ_Pos)));
        /* Enable the main PLL. */
        __HAL_RCC_PLL_ENABLE();
 8006148:	4b1b      	ldr	r3, [pc, #108]	@ (80061b8 <HAL_RCC_OscConfig+0x478>)
 800614a:	2201      	movs	r2, #1
 800614c:	601a      	str	r2, [r3, #0]

        /* Get Start Tick */
        tickstart = HAL_GetTick();
 800614e:	f7fe fa2b 	bl	80045a8 <HAL_GetTick>
 8006152:	6138      	str	r0, [r7, #16]

        /* Wait till PLL is ready */
        while (__HAL_RCC_GET_FLAG(RCC_FLAG_PLLRDY) == RESET)
 8006154:	e008      	b.n	8006168 <HAL_RCC_OscConfig+0x428>
        {
          if ((HAL_GetTick() - tickstart) > PLL_TIMEOUT_VALUE)
 8006156:	f7fe fa27 	bl	80045a8 <HAL_GetTick>
 800615a:	4602      	mov	r2, r0
 800615c:	693b      	ldr	r3, [r7, #16]
 800615e:	1ad3      	subs	r3, r2, r3
 8006160:	2b02      	cmp	r3, #2
 8006162:	d901      	bls.n	8006168 <HAL_RCC_OscConfig+0x428>
          {
            return HAL_TIMEOUT;
 8006164:	2303      	movs	r3, #3
 8006166:	e05c      	b.n	8006222 <HAL_RCC_OscConfig+0x4e2>
        while (__HAL_RCC_GET_FLAG(RCC_FLAG_PLLRDY) == RESET)
 8006168:	4b11      	ldr	r3, [pc, #68]	@ (80061b0 <HAL_RCC_OscConfig+0x470>)
 800616a:	681b      	ldr	r3, [r3, #0]
 800616c:	f003 7300 	and.w	r3, r3, #33554432	@ 0x2000000
 8006170:	2b00      	cmp	r3, #0
 8006172:	d0f0      	beq.n	8006156 <HAL_RCC_OscConfig+0x416>
 8006174:	e054      	b.n	8006220 <HAL_RCC_OscConfig+0x4e0>
        }
      }
      else
      {
        /* Disable the main PLL. */
        __HAL_RCC_PLL_DISABLE();
 8006176:	4b10      	ldr	r3, [pc, #64]	@ (80061b8 <HAL_RCC_OscConfig+0x478>)
 8006178:	2200      	movs	r2, #0
 800617a:	601a      	str	r2, [r3, #0]

        /* Get Start Tick */
        tickstart = HAL_GetTick();
 800617c:	f7fe fa14 	bl	80045a8 <HAL_GetTick>
 8006180:	6138      	str	r0, [r7, #16]

        /* Wait till PLL is disabled */
        while (__HAL_RCC_GET_FLAG(RCC_FLAG_PLLRDY) != RESET)
 8006182:	e008      	b.n	8006196 <HAL_RCC_OscConfig+0x456>
        {
          if ((HAL_GetTick() - tickstart) > PLL_TIMEOUT_VALUE)
 8006184:	f7fe fa10 	bl	80045a8 <HAL_GetTick>
 8006188:	4602      	mov	r2, r0
 800618a:	693b      	ldr	r3, [r7, #16]
 800618c:	1ad3      	subs	r3, r2, r3
 800618e:	2b02      	cmp	r3, #2
 8006190:	d901      	bls.n	8006196 <HAL_RCC_OscConfig+0x456>
          {
            return HAL_TIMEOUT;
 8006192:	2303      	movs	r3, #3
 8006194:	e045      	b.n	8006222 <HAL_RCC_OscConfig+0x4e2>
        while (__HAL_RCC_GET_FLAG(RCC_FLAG_PLLRDY) != RESET)
 8006196:	4b06      	ldr	r3, [pc, #24]	@ (80061b0 <HAL_RCC_OscConfig+0x470>)
 8006198:	681b      	ldr	r3, [r3, #0]
 800619a:	f003 7300 	and.w	r3, r3, #33554432	@ 0x2000000
 800619e:	2b00      	cmp	r3, #0
 80061a0:	d1f0      	bne.n	8006184 <HAL_RCC_OscConfig+0x444>
 80061a2:	e03d      	b.n	8006220 <HAL_RCC_OscConfig+0x4e0>
      }
    }
    else
    {
      /* Check if there is a request to disable the PLL used as System clock source */
      if ((RCC_OscInitStruct->PLL.PLLState) == RCC_PLL_OFF)
 80061a4:	687b      	ldr	r3, [r7, #4]
 80061a6:	699b      	ldr	r3, [r3, #24]
 80061a8:	2b01      	cmp	r3, #1
 80061aa:	d107      	bne.n	80061bc <HAL_RCC_OscConfig+0x47c>
      {
        return HAL_ERROR;
 80061ac:	2301      	movs	r3, #1
 80061ae:	e038      	b.n	8006222 <HAL_RCC_OscConfig+0x4e2>
 80061b0:	40023800 	.word	0x40023800
 80061b4:	40007000 	.word	0x40007000
 80061b8:	42470060 	.word	0x42470060
      }
      else
      {
        /* Do not return HAL_ERROR if request repeats the current configuration */
        pll_config = RCC->PLLCFGR;
 80061bc:	4b1b      	ldr	r3, [pc, #108]	@ (800622c <HAL_RCC_OscConfig+0x4ec>)
 80061be:	685b      	ldr	r3, [r3, #4]
 80061c0:	60fb      	str	r3, [r7, #12]
            (READ_BIT(pll_config, RCC_PLLCFGR_PLLN) != (RCC_OscInitStruct->PLL.PLLN) << RCC_PLLCFGR_PLLN_Pos) ||
            (READ_BIT(pll_config, RCC_PLLCFGR_PLLP) != (((RCC_OscInitStruct->PLL.PLLP >> 1U) - 1U)) << RCC_PLLCFGR_PLLP_Pos) ||
            (READ_BIT(pll_config, RCC_PLLCFGR_PLLQ) != (RCC_OscInitStruct->PLL.PLLQ << RCC_PLLCFGR_PLLQ_Pos)) ||
            (READ_BIT(pll_config, RCC_PLLCFGR_PLLR) != (RCC_OscInitStruct->PLL.PLLR << RCC_PLLCFGR_PLLR_Pos)))
#else
        if (((RCC_OscInitStruct->PLL.PLLState) == RCC_PLL_OFF) ||
 80061c2:	687b      	ldr	r3, [r7, #4]
 80061c4:	699b      	ldr	r3, [r3, #24]
 80061c6:	2b01      	cmp	r3, #1
 80061c8:	d028      	beq.n	800621c <HAL_RCC_OscConfig+0x4dc>
            (READ_BIT(pll_config, RCC_PLLCFGR_PLLSRC) != RCC_OscInitStruct->PLL.PLLSource) ||
 80061ca:	68fb      	ldr	r3, [r7, #12]
 80061cc:	f403 0280 	and.w	r2, r3, #4194304	@ 0x400000
 80061d0:	687b      	ldr	r3, [r7, #4]
 80061d2:	69db      	ldr	r3, [r3, #28]
        if (((RCC_OscInitStruct->PLL.PLLState) == RCC_PLL_OFF) ||
 80061d4:	429a      	cmp	r2, r3
 80061d6:	d121      	bne.n	800621c <HAL_RCC_OscConfig+0x4dc>
            (READ_BIT(pll_config, RCC_PLLCFGR_PLLM) != (RCC_OscInitStruct->PLL.PLLM) << RCC_PLLCFGR_PLLM_Pos) ||
 80061d8:	68fb      	ldr	r3, [r7, #12]
 80061da:	f003 023f 	and.w	r2, r3, #63	@ 0x3f
 80061de:	687b      	ldr	r3, [r7, #4]
 80061e0:	6a1b      	ldr	r3, [r3, #32]
            (READ_BIT(pll_config, RCC_PLLCFGR_PLLSRC) != RCC_OscInitStruct->PLL.PLLSource) ||
 80061e2:	429a      	cmp	r2, r3
 80061e4:	d11a      	bne.n	800621c <HAL_RCC_OscConfig+0x4dc>
            (READ_BIT(pll_config, RCC_PLLCFGR_PLLN) != (RCC_OscInitStruct->PLL.PLLN) << RCC_PLLCFGR_PLLN_Pos) ||
 80061e6:	68fa      	ldr	r2, [r7, #12]
 80061e8:	f647 73c0 	movw	r3, #32704	@ 0x7fc0
 80061ec:	4013      	ands	r3, r2
 80061ee:	687a      	ldr	r2, [r7, #4]
 80061f0:	6a52      	ldr	r2, [r2, #36]	@ 0x24
 80061f2:	0192      	lsls	r2, r2, #6
            (READ_BIT(pll_config, RCC_PLLCFGR_PLLM) != (RCC_OscInitStruct->PLL.PLLM) << RCC_PLLCFGR_PLLM_Pos) ||
 80061f4:	4293      	cmp	r3, r2
 80061f6:	d111      	bne.n	800621c <HAL_RCC_OscConfig+0x4dc>
            (READ_BIT(pll_config, RCC_PLLCFGR_PLLP) != (((RCC_OscInitStruct->PLL.PLLP >> 1U) - 1U)) << RCC_PLLCFGR_PLLP_Pos) ||
 80061f8:	68fb      	ldr	r3, [r7, #12]
 80061fa:	f403 3240 	and.w	r2, r3, #196608	@ 0x30000
 80061fe:	687b      	ldr	r3, [r7, #4]
 8006200:	6a9b      	ldr	r3, [r3, #40]	@ 0x28
 8006202:	085b      	lsrs	r3, r3, #1
 8006204:	3b01      	subs	r3, #1
 8006206:	041b      	lsls	r3, r3, #16
            (READ_BIT(pll_config, RCC_PLLCFGR_PLLN) != (RCC_OscInitStruct->PLL.PLLN) << RCC_PLLCFGR_PLLN_Pos) ||
 8006208:	429a      	cmp	r2, r3
 800620a:	d107      	bne.n	800621c <HAL_RCC_OscConfig+0x4dc>
            (READ_BIT(pll_config, RCC_PLLCFGR_PLLQ) != (RCC_OscInitStruct->PLL.PLLQ << RCC_PLLCFGR_PLLQ_Pos)))
 800620c:	68fb      	ldr	r3, [r7, #12]
 800620e:	f003 6270 	and.w	r2, r3, #251658240	@ 0xf000000
 8006212:	687b      	ldr	r3, [r7, #4]
 8006214:	6adb      	ldr	r3, [r3, #44]	@ 0x2c
 8006216:	061b      	lsls	r3, r3, #24
            (READ_BIT(pll_config, RCC_PLLCFGR_PLLP) != (((RCC_OscInitStruct->PLL.PLLP >> 1U) - 1U)) << RCC_PLLCFGR_PLLP_Pos) ||
 8006218:	429a      	cmp	r2, r3
 800621a:	d001      	beq.n	8006220 <HAL_RCC_OscConfig+0x4e0>
#endif /* RCC_PLLCFGR_PLLR */
        {
          return HAL_ERROR;
 800621c:	2301      	movs	r3, #1
 800621e:	e000      	b.n	8006222 <HAL_RCC_OscConfig+0x4e2>
        }
      }
    }
  }
  return HAL_OK;
 8006220:	2300      	movs	r3, #0
}
 8006222:	4618      	mov	r0, r3
 8006224:	3718      	adds	r7, #24
 8006226:	46bd      	mov	sp, r7
 8006228:	bd80      	pop	{r7, pc}
 800622a:	bf00      	nop
 800622c:	40023800 	.word	0x40023800

08006230 <HAL_RCC_ClockConfig>:
  *         HPRE[3:0] bits to ensure that HCLK not exceed the maximum allowed frequency
  *         (for more details refer to section above "Initialization/de-initialization functions")
  * @retval None
  */
HAL_StatusTypeDef HAL_RCC_ClockConfig(RCC_ClkInitTypeDef  *RCC_ClkInitStruct, uint32_t FLatency)
{
 8006230:	b580      	push	{r7, lr}
 8006232:	b084      	sub	sp, #16
 8006234:	af00      	add	r7, sp, #0
 8006236:	6078      	str	r0, [r7, #4]
 8006238:	6039      	str	r1, [r7, #0]
  uint32_t tickstart;

  /* Check Null pointer */
  if (RCC_ClkInitStruct == NULL)
 800623a:	687b      	ldr	r3, [r7, #4]
 800623c:	2b00      	cmp	r3, #0
 800623e:	d101      	bne.n	8006244 <HAL_RCC_ClockConfig+0x14>
  {
    return HAL_ERROR;
 8006240:	2301      	movs	r3, #1
 8006242:	e0cc      	b.n	80063de <HAL_RCC_ClockConfig+0x1ae>
  /* To correctly read data from FLASH memory, the number of wait states (LATENCY)
    must be correctly programmed according to the frequency of the CPU clock
    (HCLK) and the supply voltage of the device. */

  /* Increasing the number of wait states because of higher CPU frequency */
  if (FLatency > __HAL_FLASH_GET_LATENCY())
 8006244:	4b68      	ldr	r3, [pc, #416]	@ (80063e8 <HAL_RCC_ClockConfig+0x1b8>)
 8006246:	681b      	ldr	r3, [r3, #0]
 8006248:	f003 030f 	and.w	r3, r3, #15
 800624c:	683a      	ldr	r2, [r7, #0]
 800624e:	429a      	cmp	r2, r3
 8006250:	d90c      	bls.n	800626c <HAL_RCC_ClockConfig+0x3c>
  {
    /* Program the new number of wait states to the LATENCY bits in the FLASH_ACR register */
    __HAL_FLASH_SET_LATENCY(FLatency);
 8006252:	4b65      	ldr	r3, [pc, #404]	@ (80063e8 <HAL_RCC_ClockConfig+0x1b8>)
 8006254:	683a      	ldr	r2, [r7, #0]
 8006256:	b2d2      	uxtb	r2, r2
 8006258:	701a      	strb	r2, [r3, #0]

    /* Check that the new number of wait states is taken into account to access the Flash
    memory by reading the FLASH_ACR register */
    if (__HAL_FLASH_GET_LATENCY() != FLatency)
 800625a:	4b63      	ldr	r3, [pc, #396]	@ (80063e8 <HAL_RCC_ClockConfig+0x1b8>)
 800625c:	681b      	ldr	r3, [r3, #0]
 800625e:	f003 030f 	and.w	r3, r3, #15
 8006262:	683a      	ldr	r2, [r7, #0]
 8006264:	429a      	cmp	r2, r3
 8006266:	d001      	beq.n	800626c <HAL_RCC_ClockConfig+0x3c>
    {
      return HAL_ERROR;
 8006268:	2301      	movs	r3, #1
 800626a:	e0b8      	b.n	80063de <HAL_RCC_ClockConfig+0x1ae>
    }
  }

  /*-------------------------- HCLK Configuration --------------------------*/
  if (((RCC_ClkInitStruct->ClockType) & RCC_CLOCKTYPE_HCLK) == RCC_CLOCKTYPE_HCLK)
 800626c:	687b      	ldr	r3, [r7, #4]
 800626e:	681b      	ldr	r3, [r3, #0]
 8006270:	f003 0302 	and.w	r3, r3, #2
 8006274:	2b00      	cmp	r3, #0
 8006276:	d020      	beq.n	80062ba <HAL_RCC_ClockConfig+0x8a>
  {
    /* Set the highest APBx dividers in order to ensure that we do not go through
       a non-spec phase whatever we decrease or increase HCLK. */
    if (((RCC_ClkInitStruct->ClockType) & RCC_CLOCKTYPE_PCLK1) == RCC_CLOCKTYPE_PCLK1)
 8006278:	687b      	ldr	r3, [r7, #4]
 800627a:	681b      	ldr	r3, [r3, #0]
 800627c:	f003 0304 	and.w	r3, r3, #4
 8006280:	2b00      	cmp	r3, #0
 8006282:	d005      	beq.n	8006290 <HAL_RCC_ClockConfig+0x60>
    {
      MODIFY_REG(RCC->CFGR, RCC_CFGR_PPRE1, RCC_HCLK_DIV16);
 8006284:	4b59      	ldr	r3, [pc, #356]	@ (80063ec <HAL_RCC_ClockConfig+0x1bc>)
 8006286:	689b      	ldr	r3, [r3, #8]
 8006288:	4a58      	ldr	r2, [pc, #352]	@ (80063ec <HAL_RCC_ClockConfig+0x1bc>)
 800628a:	f443 53e0 	orr.w	r3, r3, #7168	@ 0x1c00
 800628e:	6093      	str	r3, [r2, #8]
    }

    if (((RCC_ClkInitStruct->ClockType) & RCC_CLOCKTYPE_PCLK2) == RCC_CLOCKTYPE_PCLK2)
 8006290:	687b      	ldr	r3, [r7, #4]
 8006292:	681b      	ldr	r3, [r3, #0]
 8006294:	f003 0308 	and.w	r3, r3, #8
 8006298:	2b00      	cmp	r3, #0
 800629a:	d005      	beq.n	80062a8 <HAL_RCC_ClockConfig+0x78>
    {
      MODIFY_REG(RCC->CFGR, RCC_CFGR_PPRE2, (RCC_HCLK_DIV16 << 3));
 800629c:	4b53      	ldr	r3, [pc, #332]	@ (80063ec <HAL_RCC_ClockConfig+0x1bc>)
 800629e:	689b      	ldr	r3, [r3, #8]
 80062a0:	4a52      	ldr	r2, [pc, #328]	@ (80063ec <HAL_RCC_ClockConfig+0x1bc>)
 80062a2:	f443 4360 	orr.w	r3, r3, #57344	@ 0xe000
 80062a6:	6093      	str	r3, [r2, #8]
    }

    assert_param(IS_RCC_HCLK(RCC_ClkInitStruct->AHBCLKDivider));
    MODIFY_REG(RCC->CFGR, RCC_CFGR_HPRE, RCC_ClkInitStruct->AHBCLKDivider);
 80062a8:	4b50      	ldr	r3, [pc, #320]	@ (80063ec <HAL_RCC_ClockConfig+0x1bc>)
 80062aa:	689b      	ldr	r3, [r3, #8]
 80062ac:	f023 02f0 	bic.w	r2, r3, #240	@ 0xf0
 80062b0:	687b      	ldr	r3, [r7, #4]
 80062b2:	689b      	ldr	r3, [r3, #8]
 80062b4:	494d      	ldr	r1, [pc, #308]	@ (80063ec <HAL_RCC_ClockConfig+0x1bc>)
 80062b6:	4313      	orrs	r3, r2
 80062b8:	608b      	str	r3, [r1, #8]
  }

  /*------------------------- SYSCLK Configuration ---------------------------*/
  if (((RCC_ClkInitStruct->ClockType) & RCC_CLOCKTYPE_SYSCLK) == RCC_CLOCKTYPE_SYSCLK)
 80062ba:	687b      	ldr	r3, [r7, #4]
 80062bc:	681b      	ldr	r3, [r3, #0]
 80062be:	f003 0301 	and.w	r3, r3, #1
 80062c2:	2b00      	cmp	r3, #0
 80062c4:	d044      	beq.n	8006350 <HAL_RCC_ClockConfig+0x120>
  {
    assert_param(IS_RCC_SYSCLKSOURCE(RCC_ClkInitStruct->SYSCLKSource));

    /* HSE is selected as System Clock Source */
    if (RCC_ClkInitStruct->SYSCLKSource == RCC_SYSCLKSOURCE_HSE)
 80062c6:	687b      	ldr	r3, [r7, #4]
 80062c8:	685b      	ldr	r3, [r3, #4]
 80062ca:	2b01      	cmp	r3, #1
 80062cc:	d107      	bne.n	80062de <HAL_RCC_ClockConfig+0xae>
    {
      /* Check the HSE ready flag */
      if (__HAL_RCC_GET_FLAG(RCC_FLAG_HSERDY) == RESET)
 80062ce:	4b47      	ldr	r3, [pc, #284]	@ (80063ec <HAL_RCC_ClockConfig+0x1bc>)
 80062d0:	681b      	ldr	r3, [r3, #0]
 80062d2:	f403 3300 	and.w	r3, r3, #131072	@ 0x20000
 80062d6:	2b00      	cmp	r3, #0
 80062d8:	d119      	bne.n	800630e <HAL_RCC_ClockConfig+0xde>
      {
        return HAL_ERROR;
 80062da:	2301      	movs	r3, #1
 80062dc:	e07f      	b.n	80063de <HAL_RCC_ClockConfig+0x1ae>
      }
    }
    /* PLL is selected as System Clock Source */
    else if ((RCC_ClkInitStruct->SYSCLKSource == RCC_SYSCLKSOURCE_PLLCLK)   ||
 80062de:	687b      	ldr	r3, [r7, #4]
 80062e0:	685b      	ldr	r3, [r3, #4]
 80062e2:	2b02      	cmp	r3, #2
 80062e4:	d003      	beq.n	80062ee <HAL_RCC_ClockConfig+0xbe>
             (RCC_ClkInitStruct->SYSCLKSource == RCC_SYSCLKSOURCE_PLLRCLK))
 80062e6:	687b      	ldr	r3, [r7, #4]
 80062e8:	685b      	ldr	r3, [r3, #4]
    else if ((RCC_ClkInitStruct->SYSCLKSource == RCC_SYSCLKSOURCE_PLLCLK)   ||
 80062ea:	2b03      	cmp	r3, #3
 80062ec:	d107      	bne.n	80062fe <HAL_RCC_ClockConfig+0xce>
    {
      /* Check the PLL ready flag */
      if (__HAL_RCC_GET_FLAG(RCC_FLAG_PLLRDY) == RESET)
 80062ee:	4b3f      	ldr	r3, [pc, #252]	@ (80063ec <HAL_RCC_ClockConfig+0x1bc>)
 80062f0:	681b      	ldr	r3, [r3, #0]
 80062f2:	f003 7300 	and.w	r3, r3, #33554432	@ 0x2000000
 80062f6:	2b00      	cmp	r3, #0
 80062f8:	d109      	bne.n	800630e <HAL_RCC_ClockConfig+0xde>
      {
        return HAL_ERROR;
 80062fa:	2301      	movs	r3, #1
 80062fc:	e06f      	b.n	80063de <HAL_RCC_ClockConfig+0x1ae>
    }
    /* HSI is selected as System Clock Source */
    else
    {
      /* Check the HSI ready flag */
      if (__HAL_RCC_GET_FLAG(RCC_FLAG_HSIRDY) == RESET)
 80062fe:	4b3b      	ldr	r3, [pc, #236]	@ (80063ec <HAL_RCC_ClockConfig+0x1bc>)
 8006300:	681b      	ldr	r3, [r3, #0]
 8006302:	f003 0302 	and.w	r3, r3, #2
 8006306:	2b00      	cmp	r3, #0
 8006308:	d101      	bne.n	800630e <HAL_RCC_ClockConfig+0xde>
      {
        return HAL_ERROR;
 800630a:	2301      	movs	r3, #1
 800630c:	e067      	b.n	80063de <HAL_RCC_ClockConfig+0x1ae>
      }
    }

    __HAL_RCC_SYSCLK_CONFIG(RCC_ClkInitStruct->SYSCLKSource);
 800630e:	4b37      	ldr	r3, [pc, #220]	@ (80063ec <HAL_RCC_ClockConfig+0x1bc>)
 8006310:	689b      	ldr	r3, [r3, #8]
 8006312:	f023 0203 	bic.w	r2, r3, #3
 8006316:	687b      	ldr	r3, [r7, #4]
 8006318:	685b      	ldr	r3, [r3, #4]
 800631a:	4934      	ldr	r1, [pc, #208]	@ (80063ec <HAL_RCC_ClockConfig+0x1bc>)
 800631c:	4313      	orrs	r3, r2
 800631e:	608b      	str	r3, [r1, #8]

    /* Get Start Tick */
    tickstart = HAL_GetTick();
 8006320:	f7fe f942 	bl	80045a8 <HAL_GetTick>
 8006324:	60f8      	str	r0, [r7, #12]

    while (__HAL_RCC_GET_SYSCLK_SOURCE() != (RCC_ClkInitStruct->SYSCLKSource << RCC_CFGR_SWS_Pos))
 8006326:	e00a      	b.n	800633e <HAL_RCC_ClockConfig+0x10e>
    {
      if ((HAL_GetTick() - tickstart) > CLOCKSWITCH_TIMEOUT_VALUE)
 8006328:	f7fe f93e 	bl	80045a8 <HAL_GetTick>
 800632c:	4602      	mov	r2, r0
 800632e:	68fb      	ldr	r3, [r7, #12]
 8006330:	1ad3      	subs	r3, r2, r3
 8006332:	f241 3288 	movw	r2, #5000	@ 0x1388
 8006336:	4293      	cmp	r3, r2
 8006338:	d901      	bls.n	800633e <HAL_RCC_ClockConfig+0x10e>
      {
        return HAL_TIMEOUT;
 800633a:	2303      	movs	r3, #3
 800633c:	e04f      	b.n	80063de <HAL_RCC_ClockConfig+0x1ae>
    while (__HAL_RCC_GET_SYSCLK_SOURCE() != (RCC_ClkInitStruct->SYSCLKSource << RCC_CFGR_SWS_Pos))
 800633e:	4b2b      	ldr	r3, [pc, #172]	@ (80063ec <HAL_RCC_ClockConfig+0x1bc>)
 8006340:	689b      	ldr	r3, [r3, #8]
 8006342:	f003 020c 	and.w	r2, r3, #12
 8006346:	687b      	ldr	r3, [r7, #4]
 8006348:	685b      	ldr	r3, [r3, #4]
 800634a:	009b      	lsls	r3, r3, #2
 800634c:	429a      	cmp	r2, r3
 800634e:	d1eb      	bne.n	8006328 <HAL_RCC_ClockConfig+0xf8>
      }
    }
  }

  /* Decreasing the number of wait states because of lower CPU frequency */
  if (FLatency < __HAL_FLASH_GET_LATENCY())
 8006350:	4b25      	ldr	r3, [pc, #148]	@ (80063e8 <HAL_RCC_ClockConfig+0x1b8>)
 8006352:	681b      	ldr	r3, [r3, #0]
 8006354:	f003 030f 	and.w	r3, r3, #15
 8006358:	683a      	ldr	r2, [r7, #0]
 800635a:	429a      	cmp	r2, r3
 800635c:	d20c      	bcs.n	8006378 <HAL_RCC_ClockConfig+0x148>
  {
    /* Program the new number of wait states to the LATENCY bits in the FLASH_ACR register */
    __HAL_FLASH_SET_LATENCY(FLatency);
 800635e:	4b22      	ldr	r3, [pc, #136]	@ (80063e8 <HAL_RCC_ClockConfig+0x1b8>)
 8006360:	683a      	ldr	r2, [r7, #0]
 8006362:	b2d2      	uxtb	r2, r2
 8006364:	701a      	strb	r2, [r3, #0]

    /* Check that the new number of wait states is taken into account to access the Flash
    memory by reading the FLASH_ACR register */
    if (__HAL_FLASH_GET_LATENCY() != FLatency)
 8006366:	4b20      	ldr	r3, [pc, #128]	@ (80063e8 <HAL_RCC_ClockConfig+0x1b8>)
 8006368:	681b      	ldr	r3, [r3, #0]
 800636a:	f003 030f 	and.w	r3, r3, #15
 800636e:	683a      	ldr	r2, [r7, #0]
 8006370:	429a      	cmp	r2, r3
 8006372:	d001      	beq.n	8006378 <HAL_RCC_ClockConfig+0x148>
    {
      return HAL_ERROR;
 8006374:	2301      	movs	r3, #1
 8006376:	e032      	b.n	80063de <HAL_RCC_ClockConfig+0x1ae>
    }
  }

  /*-------------------------- PCLK1 Configuration ---------------------------*/
  if (((RCC_ClkInitStruct->ClockType) & RCC_CLOCKTYPE_PCLK1) == RCC_CLOCKTYPE_PCLK1)
 8006378:	687b      	ldr	r3, [r7, #4]
 800637a:	681b      	ldr	r3, [r3, #0]
 800637c:	f003 0304 	and.w	r3, r3, #4
 8006380:	2b00      	cmp	r3, #0
 8006382:	d008      	beq.n	8006396 <HAL_RCC_ClockConfig+0x166>
  {
    assert_param(IS_RCC_PCLK(RCC_ClkInitStruct->APB1CLKDivider));
    MODIFY_REG(RCC->CFGR, RCC_CFGR_PPRE1, RCC_ClkInitStruct->APB1CLKDivider);
 8006384:	4b19      	ldr	r3, [pc, #100]	@ (80063ec <HAL_RCC_ClockConfig+0x1bc>)
 8006386:	689b      	ldr	r3, [r3, #8]
 8006388:	f423 52e0 	bic.w	r2, r3, #7168	@ 0x1c00
 800638c:	687b      	ldr	r3, [r7, #4]
 800638e:	68db      	ldr	r3, [r3, #12]
 8006390:	4916      	ldr	r1, [pc, #88]	@ (80063ec <HAL_RCC_ClockConfig+0x1bc>)
 8006392:	4313      	orrs	r3, r2
 8006394:	608b      	str	r3, [r1, #8]
  }

  /*-------------------------- PCLK2 Configuration ---------------------------*/
  if (((RCC_ClkInitStruct->ClockType) & RCC_CLOCKTYPE_PCLK2) == RCC_CLOCKTYPE_PCLK2)
 8006396:	687b      	ldr	r3, [r7, #4]
 8006398:	681b      	ldr	r3, [r3, #0]
 800639a:	f003 0308 	and.w	r3, r3, #8
 800639e:	2b00      	cmp	r3, #0
 80063a0:	d009      	beq.n	80063b6 <HAL_RCC_ClockConfig+0x186>
  {
    assert_param(IS_RCC_PCLK(RCC_ClkInitStruct->APB2CLKDivider));
    MODIFY_REG(RCC->CFGR, RCC_CFGR_PPRE2, ((RCC_ClkInitStruct->APB2CLKDivider) << 3U));
 80063a2:	4b12      	ldr	r3, [pc, #72]	@ (80063ec <HAL_RCC_ClockConfig+0x1bc>)
 80063a4:	689b      	ldr	r3, [r3, #8]
 80063a6:	f423 4260 	bic.w	r2, r3, #57344	@ 0xe000
 80063aa:	687b      	ldr	r3, [r7, #4]
 80063ac:	691b      	ldr	r3, [r3, #16]
 80063ae:	00db      	lsls	r3, r3, #3
 80063b0:	490e      	ldr	r1, [pc, #56]	@ (80063ec <HAL_RCC_ClockConfig+0x1bc>)
 80063b2:	4313      	orrs	r3, r2
 80063b4:	608b      	str	r3, [r1, #8]
  }

  /* Update the SystemCoreClock global variable */
  SystemCoreClock = HAL_RCC_GetSysClockFreq() >> AHBPrescTable[(RCC->CFGR & RCC_CFGR_HPRE) >> RCC_CFGR_HPRE_Pos];
 80063b6:	f000 f821 	bl	80063fc <HAL_RCC_GetSysClockFreq>
 80063ba:	4602      	mov	r2, r0
 80063bc:	4b0b      	ldr	r3, [pc, #44]	@ (80063ec <HAL_RCC_ClockConfig+0x1bc>)
 80063be:	689b      	ldr	r3, [r3, #8]
 80063c0:	091b      	lsrs	r3, r3, #4
 80063c2:	f003 030f 	and.w	r3, r3, #15
 80063c6:	490a      	ldr	r1, [pc, #40]	@ (80063f0 <HAL_RCC_ClockConfig+0x1c0>)
 80063c8:	5ccb      	ldrb	r3, [r1, r3]
 80063ca:	fa22 f303 	lsr.w	r3, r2, r3
 80063ce:	4a09      	ldr	r2, [pc, #36]	@ (80063f4 <HAL_RCC_ClockConfig+0x1c4>)
 80063d0:	6013      	str	r3, [r2, #0]

  /* Configure the source of time base considering new system clocks settings */
  HAL_InitTick(uwTickPrio);
 80063d2:	4b09      	ldr	r3, [pc, #36]	@ (80063f8 <HAL_RCC_ClockConfig+0x1c8>)
 80063d4:	681b      	ldr	r3, [r3, #0]
 80063d6:	4618      	mov	r0, r3
 80063d8:	f7fe f8a2 	bl	8004520 <HAL_InitTick>

  return HAL_OK;
 80063dc:	2300      	movs	r3, #0
}
 80063de:	4618      	mov	r0, r3
 80063e0:	3710      	adds	r7, #16
 80063e2:	46bd      	mov	sp, r7
 80063e4:	bd80      	pop	{r7, pc}
 80063e6:	bf00      	nop
 80063e8:	40023c00 	.word	0x40023c00
 80063ec:	40023800 	.word	0x40023800
 80063f0:	08007c68 	.word	0x08007c68
 80063f4:	200005e0 	.word	0x200005e0
 80063f8:	200005e4 	.word	0x200005e4

080063fc <HAL_RCC_GetSysClockFreq>:
  *
  *
  * @retval SYSCLK frequency
  */
__weak uint32_t HAL_RCC_GetSysClockFreq(void)
{
 80063fc:	e92d 4fb0 	stmdb	sp!, {r4, r5, r7, r8, r9, sl, fp, lr}
 8006400:	b090      	sub	sp, #64	@ 0x40
 8006402:	af00      	add	r7, sp, #0
  uint32_t pllm = 0U;
 8006404:	2300      	movs	r3, #0
 8006406:	637b      	str	r3, [r7, #52]	@ 0x34
  uint32_t pllvco = 0U;
 8006408:	2300      	movs	r3, #0
 800640a:	63fb      	str	r3, [r7, #60]	@ 0x3c
  uint32_t pllp = 0U;
 800640c:	2300      	movs	r3, #0
 800640e:	633b      	str	r3, [r7, #48]	@ 0x30
  uint32_t sysclockfreq = 0U;
 8006410:	2300      	movs	r3, #0
 8006412:	63bb      	str	r3, [r7, #56]	@ 0x38

  /* Get SYSCLK source -------------------------------------------------------*/
  switch (RCC->CFGR & RCC_CFGR_SWS)
 8006414:	4b59      	ldr	r3, [pc, #356]	@ (800657c <HAL_RCC_GetSysClockFreq+0x180>)
 8006416:	689b      	ldr	r3, [r3, #8]
 8006418:	f003 030c 	and.w	r3, r3, #12
 800641c:	2b08      	cmp	r3, #8
 800641e:	d00d      	beq.n	800643c <HAL_RCC_GetSysClockFreq+0x40>
 8006420:	2b08      	cmp	r3, #8
 8006422:	f200 80a1 	bhi.w	8006568 <HAL_RCC_GetSysClockFreq+0x16c>
 8006426:	2b00      	cmp	r3, #0
 8006428:	d002      	beq.n	8006430 <HAL_RCC_GetSysClockFreq+0x34>
 800642a:	2b04      	cmp	r3, #4
 800642c:	d003      	beq.n	8006436 <HAL_RCC_GetSysClockFreq+0x3a>
 800642e:	e09b      	b.n	8006568 <HAL_RCC_GetSysClockFreq+0x16c>
  {
    case RCC_CFGR_SWS_HSI:  /* HSI used as system clock source */
    {
      sysclockfreq = HSI_VALUE;
 8006430:	4b53      	ldr	r3, [pc, #332]	@ (8006580 <HAL_RCC_GetSysClockFreq+0x184>)
 8006432:	63bb      	str	r3, [r7, #56]	@ 0x38
      break;
 8006434:	e09b      	b.n	800656e <HAL_RCC_GetSysClockFreq+0x172>
    }
    case RCC_CFGR_SWS_HSE:  /* HSE used as system clock  source */
    {
      sysclockfreq = HSE_VALUE;
 8006436:	4b53      	ldr	r3, [pc, #332]	@ (8006584 <HAL_RCC_GetSysClockFreq+0x188>)
 8006438:	63bb      	str	r3, [r7, #56]	@ 0x38
      break;
 800643a:	e098      	b.n	800656e <HAL_RCC_GetSysClockFreq+0x172>
    }
    case RCC_CFGR_SWS_PLL:  /* PLL used as system clock  source */
    {
      /* PLL_VCO = (HSE_VALUE or HSI_VALUE / PLLM) * PLLN
      SYSCLK = PLL_VCO / PLLP */
      pllm = RCC->PLLCFGR & RCC_PLLCFGR_PLLM;
 800643c:	4b4f      	ldr	r3, [pc, #316]	@ (800657c <HAL_RCC_GetSysClockFreq+0x180>)
 800643e:	685b      	ldr	r3, [r3, #4]
 8006440:	f003 033f 	and.w	r3, r3, #63	@ 0x3f
 8006444:	637b      	str	r3, [r7, #52]	@ 0x34
      if (__HAL_RCC_GET_PLL_OSCSOURCE() != RCC_PLLSOURCE_HSI)
 8006446:	4b4d      	ldr	r3, [pc, #308]	@ (800657c <HAL_RCC_GetSysClockFreq+0x180>)
 8006448:	685b      	ldr	r3, [r3, #4]
 800644a:	f403 0380 	and.w	r3, r3, #4194304	@ 0x400000
 800644e:	2b00      	cmp	r3, #0
 8006450:	d028      	beq.n	80064a4 <HAL_RCC_GetSysClockFreq+0xa8>
      {
        /* HSE used as PLL clock source */
        pllvco = (uint32_t)((((uint64_t) HSE_VALUE * ((uint64_t)((RCC->PLLCFGR & RCC_PLLCFGR_PLLN) >> RCC_PLLCFGR_PLLN_Pos)))) / (uint64_t)pllm);
 8006452:	4b4a      	ldr	r3, [pc, #296]	@ (800657c <HAL_RCC_GetSysClockFreq+0x180>)
 8006454:	685b      	ldr	r3, [r3, #4]
 8006456:	099b      	lsrs	r3, r3, #6
 8006458:	2200      	movs	r2, #0
 800645a:	623b      	str	r3, [r7, #32]
 800645c:	627a      	str	r2, [r7, #36]	@ 0x24
 800645e:	6a3b      	ldr	r3, [r7, #32]
 8006460:	f3c3 0008 	ubfx	r0, r3, #0, #9
 8006464:	2100      	movs	r1, #0
 8006466:	4b47      	ldr	r3, [pc, #284]	@ (8006584 <HAL_RCC_GetSysClockFreq+0x188>)
 8006468:	fb03 f201 	mul.w	r2, r3, r1
 800646c:	2300      	movs	r3, #0
 800646e:	fb00 f303 	mul.w	r3, r0, r3
 8006472:	4413      	add	r3, r2
 8006474:	4a43      	ldr	r2, [pc, #268]	@ (8006584 <HAL_RCC_GetSysClockFreq+0x188>)
 8006476:	fba0 1202 	umull	r1, r2, r0, r2
 800647a:	62fa      	str	r2, [r7, #44]	@ 0x2c
 800647c:	460a      	mov	r2, r1
 800647e:	62ba      	str	r2, [r7, #40]	@ 0x28
 8006480:	6afa      	ldr	r2, [r7, #44]	@ 0x2c
 8006482:	4413      	add	r3, r2
 8006484:	62fb      	str	r3, [r7, #44]	@ 0x2c
 8006486:	6b7b      	ldr	r3, [r7, #52]	@ 0x34
 8006488:	2200      	movs	r2, #0
 800648a:	61bb      	str	r3, [r7, #24]
 800648c:	61fa      	str	r2, [r7, #28]
 800648e:	e9d7 2306 	ldrd	r2, r3, [r7, #24]
 8006492:	e9d7 010a 	ldrd	r0, r1, [r7, #40]	@ 0x28
 8006496:	f7fa fbd7 	bl	8000c48 <__aeabi_uldivmod>
 800649a:	4602      	mov	r2, r0
 800649c:	460b      	mov	r3, r1
 800649e:	4613      	mov	r3, r2
 80064a0:	63fb      	str	r3, [r7, #60]	@ 0x3c
 80064a2:	e053      	b.n	800654c <HAL_RCC_GetSysClockFreq+0x150>
      }
      else
      {
        /* HSI used as PLL clock source */
        pllvco = (uint32_t)((((uint64_t) HSI_VALUE * ((uint64_t)((RCC->PLLCFGR & RCC_PLLCFGR_PLLN) >> RCC_PLLCFGR_PLLN_Pos)))) / (uint64_t)pllm);
 80064a4:	4b35      	ldr	r3, [pc, #212]	@ (800657c <HAL_RCC_GetSysClockFreq+0x180>)
 80064a6:	685b      	ldr	r3, [r3, #4]
 80064a8:	099b      	lsrs	r3, r3, #6
 80064aa:	2200      	movs	r2, #0
 80064ac:	613b      	str	r3, [r7, #16]
 80064ae:	617a      	str	r2, [r7, #20]
 80064b0:	693b      	ldr	r3, [r7, #16]
 80064b2:	f3c3 0a08 	ubfx	sl, r3, #0, #9
 80064b6:	f04f 0b00 	mov.w	fp, #0
 80064ba:	4652      	mov	r2, sl
 80064bc:	465b      	mov	r3, fp
 80064be:	f04f 0000 	mov.w	r0, #0
 80064c2:	f04f 0100 	mov.w	r1, #0
 80064c6:	0159      	lsls	r1, r3, #5
 80064c8:	ea41 61d2 	orr.w	r1, r1, r2, lsr #27
 80064cc:	0150      	lsls	r0, r2, #5
 80064ce:	4602      	mov	r2, r0
 80064d0:	460b      	mov	r3, r1
 80064d2:	ebb2 080a 	subs.w	r8, r2, sl
 80064d6:	eb63 090b 	sbc.w	r9, r3, fp
 80064da:	f04f 0200 	mov.w	r2, #0
 80064de:	f04f 0300 	mov.w	r3, #0
 80064e2:	ea4f 1389 	mov.w	r3, r9, lsl #6
 80064e6:	ea43 6398 	orr.w	r3, r3, r8, lsr #26
 80064ea:	ea4f 1288 	mov.w	r2, r8, lsl #6
 80064ee:	ebb2 0408 	subs.w	r4, r2, r8
 80064f2:	eb63 0509 	sbc.w	r5, r3, r9
 80064f6:	f04f 0200 	mov.w	r2, #0
 80064fa:	f04f 0300 	mov.w	r3, #0
 80064fe:	00eb      	lsls	r3, r5, #3
 8006500:	ea43 7354 	orr.w	r3, r3, r4, lsr #29
 8006504:	00e2      	lsls	r2, r4, #3
 8006506:	4614      	mov	r4, r2
 8006508:	461d      	mov	r5, r3
 800650a:	eb14 030a 	adds.w	r3, r4, sl
 800650e:	603b      	str	r3, [r7, #0]
 8006510:	eb45 030b 	adc.w	r3, r5, fp
 8006514:	607b      	str	r3, [r7, #4]
 8006516:	f04f 0200 	mov.w	r2, #0
 800651a:	f04f 0300 	mov.w	r3, #0
 800651e:	e9d7 4500 	ldrd	r4, r5, [r7]
 8006522:	4629      	mov	r1, r5
 8006524:	028b      	lsls	r3, r1, #10
 8006526:	4621      	mov	r1, r4
 8006528:	ea43 5391 	orr.w	r3, r3, r1, lsr #22
 800652c:	4621      	mov	r1, r4
 800652e:	028a      	lsls	r2, r1, #10
 8006530:	4610      	mov	r0, r2
 8006532:	4619      	mov	r1, r3
 8006534:	6b7b      	ldr	r3, [r7, #52]	@ 0x34
 8006536:	2200      	movs	r2, #0
 8006538:	60bb      	str	r3, [r7, #8]
 800653a:	60fa      	str	r2, [r7, #12]
 800653c:	e9d7 2302 	ldrd	r2, r3, [r7, #8]
 8006540:	f7fa fb82 	bl	8000c48 <__aeabi_uldivmod>
 8006544:	4602      	mov	r2, r0
 8006546:	460b      	mov	r3, r1
 8006548:	4613      	mov	r3, r2
 800654a:	63fb      	str	r3, [r7, #60]	@ 0x3c
      }
      pllp = ((((RCC->PLLCFGR & RCC_PLLCFGR_PLLP) >> RCC_PLLCFGR_PLLP_Pos) + 1U) * 2U);
 800654c:	4b0b      	ldr	r3, [pc, #44]	@ (800657c <HAL_RCC_GetSysClockFreq+0x180>)
 800654e:	685b      	ldr	r3, [r3, #4]
 8006550:	0c1b      	lsrs	r3, r3, #16
 8006552:	f003 0303 	and.w	r3, r3, #3
 8006556:	3301      	adds	r3, #1
 8006558:	005b      	lsls	r3, r3, #1
 800655a:	633b      	str	r3, [r7, #48]	@ 0x30

      sysclockfreq = pllvco / pllp;
 800655c:	6bfa      	ldr	r2, [r7, #60]	@ 0x3c
 800655e:	6b3b      	ldr	r3, [r7, #48]	@ 0x30
 8006560:	fbb2 f3f3 	udiv	r3, r2, r3
 8006564:	63bb      	str	r3, [r7, #56]	@ 0x38
      break;
 8006566:	e002      	b.n	800656e <HAL_RCC_GetSysClockFreq+0x172>
    }
    default:
    {
      sysclockfreq = HSI_VALUE;
 8006568:	4b05      	ldr	r3, [pc, #20]	@ (8006580 <HAL_RCC_GetSysClockFreq+0x184>)
 800656a:	63bb      	str	r3, [r7, #56]	@ 0x38
      break;
 800656c:	bf00      	nop
    }
  }
  return sysclockfreq;
 800656e:	6bbb      	ldr	r3, [r7, #56]	@ 0x38
}
 8006570:	4618      	mov	r0, r3
 8006572:	3740      	adds	r7, #64	@ 0x40
 8006574:	46bd      	mov	sp, r7
 8006576:	e8bd 8fb0 	ldmia.w	sp!, {r4, r5, r7, r8, r9, sl, fp, pc}
 800657a:	bf00      	nop
 800657c:	40023800 	.word	0x40023800
 8006580:	00f42400 	.word	0x00f42400
 8006584:	017d7840 	.word	0x017d7840

08006588 <HAL_RCC_GetHCLKFreq>:
  * @note   The SystemCoreClock CMSIS variable is used to store System Clock Frequency
  *         and updated within this function
  * @retval HCLK frequency
  */
uint32_t HAL_RCC_GetHCLKFreq(void)
{
 8006588:	b480      	push	{r7}
 800658a:	af00      	add	r7, sp, #0
  return SystemCoreClock;
 800658c:	4b03      	ldr	r3, [pc, #12]	@ (800659c <HAL_RCC_GetHCLKFreq+0x14>)
 800658e:	681b      	ldr	r3, [r3, #0]
}
 8006590:	4618      	mov	r0, r3
 8006592:	46bd      	mov	sp, r7
 8006594:	f85d 7b04 	ldr.w	r7, [sp], #4
 8006598:	4770      	bx	lr
 800659a:	bf00      	nop
 800659c:	200005e0 	.word	0x200005e0

080065a0 <HAL_RCC_GetPCLK1Freq>:
  * @note   Each time PCLK1 changes, this function must be called to update the
  *         right PCLK1 value. Otherwise, any configuration based on this function will be incorrect.
  * @retval PCLK1 frequency
  */
uint32_t HAL_RCC_GetPCLK1Freq(void)
{
 80065a0:	b580      	push	{r7, lr}
 80065a2:	af00      	add	r7, sp, #0
  /* Get HCLK source and Compute PCLK1 frequency ---------------------------*/
  return (HAL_RCC_GetHCLKFreq() >> APBPrescTable[(RCC->CFGR & RCC_CFGR_PPRE1) >> RCC_CFGR_PPRE1_Pos]);
 80065a4:	f7ff fff0 	bl	8006588 <HAL_RCC_GetHCLKFreq>
 80065a8:	4602      	mov	r2, r0
 80065aa:	4b05      	ldr	r3, [pc, #20]	@ (80065c0 <HAL_RCC_GetPCLK1Freq+0x20>)
 80065ac:	689b      	ldr	r3, [r3, #8]
 80065ae:	0a9b      	lsrs	r3, r3, #10
 80065b0:	f003 0307 	and.w	r3, r3, #7
 80065b4:	4903      	ldr	r1, [pc, #12]	@ (80065c4 <HAL_RCC_GetPCLK1Freq+0x24>)
 80065b6:	5ccb      	ldrb	r3, [r1, r3]
 80065b8:	fa22 f303 	lsr.w	r3, r2, r3
}
 80065bc:	4618      	mov	r0, r3
 80065be:	bd80      	pop	{r7, pc}
 80065c0:	40023800 	.word	0x40023800
 80065c4:	08007c78 	.word	0x08007c78

080065c8 <HAL_SPI_Init>:
  * @param  hspi pointer to a SPI_HandleTypeDef structure that contains
  *               the configuration information for SPI module.
  * @retval HAL status
  */
HAL_StatusTypeDef HAL_SPI_Init(SPI_HandleTypeDef *hspi)
{
 80065c8:	b580      	push	{r7, lr}
 80065ca:	b082      	sub	sp, #8
 80065cc:	af00      	add	r7, sp, #0
 80065ce:	6078      	str	r0, [r7, #4]
  /* Check the SPI handle allocation */
  if (hspi == NULL)
 80065d0:	687b      	ldr	r3, [r7, #4]
 80065d2:	2b00      	cmp	r3, #0
 80065d4:	d101      	bne.n	80065da <HAL_SPI_Init+0x12>
  {
    return HAL_ERROR;
 80065d6:	2301      	movs	r3, #1
 80065d8:	e07b      	b.n	80066d2 <HAL_SPI_Init+0x10a>
  assert_param(IS_SPI_DATASIZE(hspi->Init.DataSize));
  assert_param(IS_SPI_NSS(hspi->Init.NSS));
  assert_param(IS_SPI_BAUDRATE_PRESCALER(hspi->Init.BaudRatePrescaler));
  assert_param(IS_SPI_FIRST_BIT(hspi->Init.FirstBit));
  assert_param(IS_SPI_TIMODE(hspi->Init.TIMode));
  if (hspi->Init.TIMode == SPI_TIMODE_DISABLE)
 80065da:	687b      	ldr	r3, [r7, #4]
 80065dc:	6a5b      	ldr	r3, [r3, #36]	@ 0x24
 80065de:	2b00      	cmp	r3, #0
 80065e0:	d108      	bne.n	80065f4 <HAL_SPI_Init+0x2c>
  {
    assert_param(IS_SPI_CPOL(hspi->Init.CLKPolarity));
    assert_param(IS_SPI_CPHA(hspi->Init.CLKPhase));

    if (hspi->Init.Mode == SPI_MODE_MASTER)
 80065e2:	687b      	ldr	r3, [r7, #4]
 80065e4:	685b      	ldr	r3, [r3, #4]
 80065e6:	f5b3 7f82 	cmp.w	r3, #260	@ 0x104
 80065ea:	d009      	beq.n	8006600 <HAL_SPI_Init+0x38>
      assert_param(IS_SPI_BAUDRATE_PRESCALER(hspi->Init.BaudRatePrescaler));
    }
    else
    {
      /* Baudrate prescaler not use in Motoraola Slave mode. force to default value */
      hspi->Init.BaudRatePrescaler = SPI_BAUDRATEPRESCALER_2;
 80065ec:	687b      	ldr	r3, [r7, #4]
 80065ee:	2200      	movs	r2, #0
 80065f0:	61da      	str	r2, [r3, #28]
 80065f2:	e005      	b.n	8006600 <HAL_SPI_Init+0x38>
  else
  {
    assert_param(IS_SPI_BAUDRATE_PRESCALER(hspi->Init.BaudRatePrescaler));

    /* Force polarity and phase to TI protocaol requirements */
    hspi->Init.CLKPolarity = SPI_POLARITY_LOW;
 80065f4:	687b      	ldr	r3, [r7, #4]
 80065f6:	2200      	movs	r2, #0
 80065f8:	611a      	str	r2, [r3, #16]
    hspi->Init.CLKPhase    = SPI_PHASE_1EDGE;
 80065fa:	687b      	ldr	r3, [r7, #4]
 80065fc:	2200      	movs	r2, #0
 80065fe:	615a      	str	r2, [r3, #20]
  if (hspi->Init.CRCCalculation == SPI_CRCCALCULATION_ENABLE)
  {
    assert_param(IS_SPI_CRC_POLYNOMIAL(hspi->Init.CRCPolynomial));
  }
#else
  hspi->Init.CRCCalculation = SPI_CRCCALCULATION_DISABLE;
 8006600:	687b      	ldr	r3, [r7, #4]
 8006602:	2200      	movs	r2, #0
 8006604:	629a      	str	r2, [r3, #40]	@ 0x28
#endif /* USE_SPI_CRC */

  if (hspi->State == HAL_SPI_STATE_RESET)
 8006606:	687b      	ldr	r3, [r7, #4]
 8006608:	f893 3051 	ldrb.w	r3, [r3, #81]	@ 0x51
 800660c:	b2db      	uxtb	r3, r3
 800660e:	2b00      	cmp	r3, #0
 8006610:	d106      	bne.n	8006620 <HAL_SPI_Init+0x58>
  {
    /* Allocate lock resource and initialize it */
    hspi->Lock = HAL_UNLOCKED;
 8006612:	687b      	ldr	r3, [r7, #4]
 8006614:	2200      	movs	r2, #0
 8006616:	f883 2050 	strb.w	r2, [r3, #80]	@ 0x50

    /* Init the low level hardware : GPIO, CLOCK, NVIC... */
    hspi->MspInitCallback(hspi);
#else
    /* Init the low level hardware : GPIO, CLOCK, NVIC... */
    HAL_SPI_MspInit(hspi);
 800661a:	6878      	ldr	r0, [r7, #4]
 800661c:	f7fd fe3e 	bl	800429c <HAL_SPI_MspInit>
#endif /* USE_HAL_SPI_REGISTER_CALLBACKS */
  }

  hspi->State = HAL_SPI_STATE_BUSY;
 8006620:	687b      	ldr	r3, [r7, #4]
 8006622:	2202      	movs	r2, #2
 8006624:	f883 2051 	strb.w	r2, [r3, #81]	@ 0x51

  /* Disable the selected SPI peripheral */
  __HAL_SPI_DISABLE(hspi);
 8006628:	687b      	ldr	r3, [r7, #4]
 800662a:	681b      	ldr	r3, [r3, #0]
 800662c:	681a      	ldr	r2, [r3, #0]
 800662e:	687b      	ldr	r3, [r7, #4]
 8006630:	681b      	ldr	r3, [r3, #0]
 8006632:	f022 0240 	bic.w	r2, r2, #64	@ 0x40
 8006636:	601a      	str	r2, [r3, #0]

  /*----------------------- SPIx CR1 & CR2 Configuration ---------------------*/
  /* Configure : SPI Mode, Communication Mode, Data size, Clock polarity and phase, NSS management,
  Communication speed, First bit and CRC calculation state */
  WRITE_REG(hspi->Instance->CR1, ((hspi->Init.Mode & (SPI_CR1_MSTR | SPI_CR1_SSI)) |
 8006638:	687b      	ldr	r3, [r7, #4]
 800663a:	685b      	ldr	r3, [r3, #4]
 800663c:	f403 7282 	and.w	r2, r3, #260	@ 0x104
 8006640:	687b      	ldr	r3, [r7, #4]
 8006642:	689b      	ldr	r3, [r3, #8]
 8006644:	f403 4304 	and.w	r3, r3, #33792	@ 0x8400
 8006648:	431a      	orrs	r2, r3
 800664a:	687b      	ldr	r3, [r7, #4]
 800664c:	68db      	ldr	r3, [r3, #12]
 800664e:	f403 6300 	and.w	r3, r3, #2048	@ 0x800
 8006652:	431a      	orrs	r2, r3
 8006654:	687b      	ldr	r3, [r7, #4]
 8006656:	691b      	ldr	r3, [r3, #16]
 8006658:	f003 0302 	and.w	r3, r3, #2
 800665c:	431a      	orrs	r2, r3
 800665e:	687b      	ldr	r3, [r7, #4]
 8006660:	695b      	ldr	r3, [r3, #20]
 8006662:	f003 0301 	and.w	r3, r3, #1
 8006666:	431a      	orrs	r2, r3
 8006668:	687b      	ldr	r3, [r7, #4]
 800666a:	699b      	ldr	r3, [r3, #24]
 800666c:	f403 7300 	and.w	r3, r3, #512	@ 0x200
 8006670:	431a      	orrs	r2, r3
 8006672:	687b      	ldr	r3, [r7, #4]
 8006674:	69db      	ldr	r3, [r3, #28]
 8006676:	f003 0338 	and.w	r3, r3, #56	@ 0x38
 800667a:	431a      	orrs	r2, r3
 800667c:	687b      	ldr	r3, [r7, #4]
 800667e:	6a1b      	ldr	r3, [r3, #32]
 8006680:	f003 0380 	and.w	r3, r3, #128	@ 0x80
 8006684:	ea42 0103 	orr.w	r1, r2, r3
 8006688:	687b      	ldr	r3, [r7, #4]
 800668a:	6a9b      	ldr	r3, [r3, #40]	@ 0x28
 800668c:	f403 5200 	and.w	r2, r3, #8192	@ 0x2000
 8006690:	687b      	ldr	r3, [r7, #4]
 8006692:	681b      	ldr	r3, [r3, #0]
 8006694:	430a      	orrs	r2, r1
 8006696:	601a      	str	r2, [r3, #0]
                                  (hspi->Init.BaudRatePrescaler & SPI_CR1_BR_Msk) |
                                  (hspi->Init.FirstBit  & SPI_CR1_LSBFIRST) |
                                  (hspi->Init.CRCCalculation & SPI_CR1_CRCEN)));

  /* Configure : NSS management, TI Mode */
  WRITE_REG(hspi->Instance->CR2, (((hspi->Init.NSS >> 16U) & SPI_CR2_SSOE) | (hspi->Init.TIMode & SPI_CR2_FRF)));
 8006698:	687b      	ldr	r3, [r7, #4]
 800669a:	699b      	ldr	r3, [r3, #24]
 800669c:	0c1b      	lsrs	r3, r3, #16
 800669e:	f003 0104 	and.w	r1, r3, #4
 80066a2:	687b      	ldr	r3, [r7, #4]
 80066a4:	6a5b      	ldr	r3, [r3, #36]	@ 0x24
 80066a6:	f003 0210 	and.w	r2, r3, #16
 80066aa:	687b      	ldr	r3, [r7, #4]
 80066ac:	681b      	ldr	r3, [r3, #0]
 80066ae:	430a      	orrs	r2, r1
 80066b0:	605a      	str	r2, [r3, #4]
  }
#endif /* USE_SPI_CRC */

#if defined(SPI_I2SCFGR_I2SMOD)
  /* Activate the SPI mode (Make sure that I2SMOD bit in I2SCFGR register is reset) */
  CLEAR_BIT(hspi->Instance->I2SCFGR, SPI_I2SCFGR_I2SMOD);
 80066b2:	687b      	ldr	r3, [r7, #4]
 80066b4:	681b      	ldr	r3, [r3, #0]
 80066b6:	69da      	ldr	r2, [r3, #28]
 80066b8:	687b      	ldr	r3, [r7, #4]
 80066ba:	681b      	ldr	r3, [r3, #0]
 80066bc:	f422 6200 	bic.w	r2, r2, #2048	@ 0x800
 80066c0:	61da      	str	r2, [r3, #28]
#endif /* SPI_I2SCFGR_I2SMOD */

  hspi->ErrorCode = HAL_SPI_ERROR_NONE;
 80066c2:	687b      	ldr	r3, [r7, #4]
 80066c4:	2200      	movs	r2, #0
 80066c6:	655a      	str	r2, [r3, #84]	@ 0x54
  hspi->State     = HAL_SPI_STATE_READY;
 80066c8:	687b      	ldr	r3, [r7, #4]
 80066ca:	2201      	movs	r2, #1
 80066cc:	f883 2051 	strb.w	r2, [r3, #81]	@ 0x51

  return HAL_OK;
 80066d0:	2300      	movs	r3, #0
}
 80066d2:	4618      	mov	r0, r3
 80066d4:	3708      	adds	r7, #8
 80066d6:	46bd      	mov	sp, r7
 80066d8:	bd80      	pop	{r7, pc}

080066da <HAL_SPI_Transmit>:
  * @param  Size amount of data to be sent
  * @param  Timeout Timeout duration
  * @retval HAL status
  */
HAL_StatusTypeDef HAL_SPI_Transmit(SPI_HandleTypeDef *hspi, const uint8_t *pData, uint16_t Size, uint32_t Timeout)
{
 80066da:	b580      	push	{r7, lr}
 80066dc:	b088      	sub	sp, #32
 80066de:	af00      	add	r7, sp, #0
 80066e0:	60f8      	str	r0, [r7, #12]
 80066e2:	60b9      	str	r1, [r7, #8]
 80066e4:	603b      	str	r3, [r7, #0]
 80066e6:	4613      	mov	r3, r2
 80066e8:	80fb      	strh	r3, [r7, #6]

  /* Check Direction parameter */
  assert_param(IS_SPI_DIRECTION_2LINES_OR_1LINE(hspi->Init.Direction));

  /* Init tickstart for timeout management*/
  tickstart = HAL_GetTick();
 80066ea:	f7fd ff5d 	bl	80045a8 <HAL_GetTick>
 80066ee:	61f8      	str	r0, [r7, #28]
  initial_TxXferCount = Size;
 80066f0:	88fb      	ldrh	r3, [r7, #6]
 80066f2:	837b      	strh	r3, [r7, #26]

  if (hspi->State != HAL_SPI_STATE_READY)
 80066f4:	68fb      	ldr	r3, [r7, #12]
 80066f6:	f893 3051 	ldrb.w	r3, [r3, #81]	@ 0x51
 80066fa:	b2db      	uxtb	r3, r3
 80066fc:	2b01      	cmp	r3, #1
 80066fe:	d001      	beq.n	8006704 <HAL_SPI_Transmit+0x2a>
  {
    return HAL_BUSY;
 8006700:	2302      	movs	r3, #2
 8006702:	e12a      	b.n	800695a <HAL_SPI_Transmit+0x280>
  }

  if ((pData == NULL) || (Size == 0U))
 8006704:	68bb      	ldr	r3, [r7, #8]
 8006706:	2b00      	cmp	r3, #0
 8006708:	d002      	beq.n	8006710 <HAL_SPI_Transmit+0x36>
 800670a:	88fb      	ldrh	r3, [r7, #6]
 800670c:	2b00      	cmp	r3, #0
 800670e:	d101      	bne.n	8006714 <HAL_SPI_Transmit+0x3a>
  {
    return HAL_ERROR;
 8006710:	2301      	movs	r3, #1
 8006712:	e122      	b.n	800695a <HAL_SPI_Transmit+0x280>
  }

  /* Process Locked */
  __HAL_LOCK(hspi);
 8006714:	68fb      	ldr	r3, [r7, #12]
 8006716:	f893 3050 	ldrb.w	r3, [r3, #80]	@ 0x50
 800671a:	2b01      	cmp	r3, #1
 800671c:	d101      	bne.n	8006722 <HAL_SPI_Transmit+0x48>
 800671e:	2302      	movs	r3, #2
 8006720:	e11b      	b.n	800695a <HAL_SPI_Transmit+0x280>
 8006722:	68fb      	ldr	r3, [r7, #12]
 8006724:	2201      	movs	r2, #1
 8006726:	f883 2050 	strb.w	r2, [r3, #80]	@ 0x50

  /* Set the transaction information */
  hspi->State       = HAL_SPI_STATE_BUSY_TX;
 800672a:	68fb      	ldr	r3, [r7, #12]
 800672c:	2203      	movs	r2, #3
 800672e:	f883 2051 	strb.w	r2, [r3, #81]	@ 0x51
  hspi->ErrorCode   = HAL_SPI_ERROR_NONE;
 8006732:	68fb      	ldr	r3, [r7, #12]
 8006734:	2200      	movs	r2, #0
 8006736:	655a      	str	r2, [r3, #84]	@ 0x54
  hspi->pTxBuffPtr  = (const uint8_t *)pData;
 8006738:	68fb      	ldr	r3, [r7, #12]
 800673a:	68ba      	ldr	r2, [r7, #8]
 800673c:	631a      	str	r2, [r3, #48]	@ 0x30
  hspi->TxXferSize  = Size;
 800673e:	68fb      	ldr	r3, [r7, #12]
 8006740:	88fa      	ldrh	r2, [r7, #6]
 8006742:	869a      	strh	r2, [r3, #52]	@ 0x34
  hspi->TxXferCount = Size;
 8006744:	68fb      	ldr	r3, [r7, #12]
 8006746:	88fa      	ldrh	r2, [r7, #6]
 8006748:	86da      	strh	r2, [r3, #54]	@ 0x36

  /*Init field not used in handle to zero */
  hspi->pRxBuffPtr  = (uint8_t *)NULL;
 800674a:	68fb      	ldr	r3, [r7, #12]
 800674c:	2200      	movs	r2, #0
 800674e:	639a      	str	r2, [r3, #56]	@ 0x38
  hspi->RxXferSize  = 0U;
 8006750:	68fb      	ldr	r3, [r7, #12]
 8006752:	2200      	movs	r2, #0
 8006754:	879a      	strh	r2, [r3, #60]	@ 0x3c
  hspi->RxXferCount = 0U;
 8006756:	68fb      	ldr	r3, [r7, #12]
 8006758:	2200      	movs	r2, #0
 800675a:	87da      	strh	r2, [r3, #62]	@ 0x3e
  hspi->TxISR       = NULL;
 800675c:	68fb      	ldr	r3, [r7, #12]
 800675e:	2200      	movs	r2, #0
 8006760:	645a      	str	r2, [r3, #68]	@ 0x44
  hspi->RxISR       = NULL;
 8006762:	68fb      	ldr	r3, [r7, #12]
 8006764:	2200      	movs	r2, #0
 8006766:	641a      	str	r2, [r3, #64]	@ 0x40

  /* Configure communication direction : 1Line */
  if (hspi->Init.Direction == SPI_DIRECTION_1LINE)
 8006768:	68fb      	ldr	r3, [r7, #12]
 800676a:	689b      	ldr	r3, [r3, #8]
 800676c:	f5b3 4f00 	cmp.w	r3, #32768	@ 0x8000
 8006770:	d10f      	bne.n	8006792 <HAL_SPI_Transmit+0xb8>
  {
    /* Disable SPI Peripheral before set 1Line direction (BIDIOE bit) */
    __HAL_SPI_DISABLE(hspi);
 8006772:	68fb      	ldr	r3, [r7, #12]
 8006774:	681b      	ldr	r3, [r3, #0]
 8006776:	681a      	ldr	r2, [r3, #0]
 8006778:	68fb      	ldr	r3, [r7, #12]
 800677a:	681b      	ldr	r3, [r3, #0]
 800677c:	f022 0240 	bic.w	r2, r2, #64	@ 0x40
 8006780:	601a      	str	r2, [r3, #0]
    SPI_1LINE_TX(hspi);
 8006782:	68fb      	ldr	r3, [r7, #12]
 8006784:	681b      	ldr	r3, [r3, #0]
 8006786:	681a      	ldr	r2, [r3, #0]
 8006788:	68fb      	ldr	r3, [r7, #12]
 800678a:	681b      	ldr	r3, [r3, #0]
 800678c:	f442 4280 	orr.w	r2, r2, #16384	@ 0x4000
 8006790:	601a      	str	r2, [r3, #0]
    SPI_RESET_CRC(hspi);
  }
#endif /* USE_SPI_CRC */

  /* Check if the SPI is already enabled */
  if ((hspi->Instance->CR1 & SPI_CR1_SPE) != SPI_CR1_SPE)
 8006792:	68fb      	ldr	r3, [r7, #12]
 8006794:	681b      	ldr	r3, [r3, #0]
 8006796:	681b      	ldr	r3, [r3, #0]
 8006798:	f003 0340 	and.w	r3, r3, #64	@ 0x40
 800679c:	2b40      	cmp	r3, #64	@ 0x40
 800679e:	d007      	beq.n	80067b0 <HAL_SPI_Transmit+0xd6>
  {
    /* Enable SPI peripheral */
    __HAL_SPI_ENABLE(hspi);
 80067a0:	68fb      	ldr	r3, [r7, #12]
 80067a2:	681b      	ldr	r3, [r3, #0]
 80067a4:	681a      	ldr	r2, [r3, #0]
 80067a6:	68fb      	ldr	r3, [r7, #12]
 80067a8:	681b      	ldr	r3, [r3, #0]
 80067aa:	f042 0240 	orr.w	r2, r2, #64	@ 0x40
 80067ae:	601a      	str	r2, [r3, #0]
  }

  /* Transmit data in 16 Bit mode */
  if (hspi->Init.DataSize == SPI_DATASIZE_16BIT)
 80067b0:	68fb      	ldr	r3, [r7, #12]
 80067b2:	68db      	ldr	r3, [r3, #12]
 80067b4:	f5b3 6f00 	cmp.w	r3, #2048	@ 0x800
 80067b8:	d152      	bne.n	8006860 <HAL_SPI_Transmit+0x186>
  {
    if ((hspi->Init.Mode == SPI_MODE_SLAVE) || (initial_TxXferCount == 0x01U))
 80067ba:	68fb      	ldr	r3, [r7, #12]
 80067bc:	685b      	ldr	r3, [r3, #4]
 80067be:	2b00      	cmp	r3, #0
 80067c0:	d002      	beq.n	80067c8 <HAL_SPI_Transmit+0xee>
 80067c2:	8b7b      	ldrh	r3, [r7, #26]
 80067c4:	2b01      	cmp	r3, #1
 80067c6:	d145      	bne.n	8006854 <HAL_SPI_Transmit+0x17a>
    {
      hspi->Instance->DR = *((const uint16_t *)hspi->pTxBuffPtr);
 80067c8:	68fb      	ldr	r3, [r7, #12]
 80067ca:	6b1b      	ldr	r3, [r3, #48]	@ 0x30
 80067cc:	881a      	ldrh	r2, [r3, #0]
 80067ce:	68fb      	ldr	r3, [r7, #12]
 80067d0:	681b      	ldr	r3, [r3, #0]
 80067d2:	60da      	str	r2, [r3, #12]
      hspi->pTxBuffPtr += sizeof(uint16_t);
 80067d4:	68fb      	ldr	r3, [r7, #12]
 80067d6:	6b1b      	ldr	r3, [r3, #48]	@ 0x30
 80067d8:	1c9a      	adds	r2, r3, #2
 80067da:	68fb      	ldr	r3, [r7, #12]
 80067dc:	631a      	str	r2, [r3, #48]	@ 0x30
      hspi->TxXferCount--;
 80067de:	68fb      	ldr	r3, [r7, #12]
 80067e0:	8edb      	ldrh	r3, [r3, #54]	@ 0x36
 80067e2:	b29b      	uxth	r3, r3
 80067e4:	3b01      	subs	r3, #1
 80067e6:	b29a      	uxth	r2, r3
 80067e8:	68fb      	ldr	r3, [r7, #12]
 80067ea:	86da      	strh	r2, [r3, #54]	@ 0x36
    }
    /* Transmit data in 16 Bit mode */
    while (hspi->TxXferCount > 0U)
 80067ec:	e032      	b.n	8006854 <HAL_SPI_Transmit+0x17a>
    {
      /* Wait until TXE flag is set to send data */
      if (__HAL_SPI_GET_FLAG(hspi, SPI_FLAG_TXE))
 80067ee:	68fb      	ldr	r3, [r7, #12]
 80067f0:	681b      	ldr	r3, [r3, #0]
 80067f2:	689b      	ldr	r3, [r3, #8]
 80067f4:	f003 0302 	and.w	r3, r3, #2
 80067f8:	2b02      	cmp	r3, #2
 80067fa:	d112      	bne.n	8006822 <HAL_SPI_Transmit+0x148>
      {
        hspi->Instance->DR = *((const uint16_t *)hspi->pTxBuffPtr);
 80067fc:	68fb      	ldr	r3, [r7, #12]
 80067fe:	6b1b      	ldr	r3, [r3, #48]	@ 0x30
 8006800:	881a      	ldrh	r2, [r3, #0]
 8006802:	68fb      	ldr	r3, [r7, #12]
 8006804:	681b      	ldr	r3, [r3, #0]
 8006806:	60da      	str	r2, [r3, #12]
        hspi->pTxBuffPtr += sizeof(uint16_t);
 8006808:	68fb      	ldr	r3, [r7, #12]
 800680a:	6b1b      	ldr	r3, [r3, #48]	@ 0x30
 800680c:	1c9a      	adds	r2, r3, #2
 800680e:	68fb      	ldr	r3, [r7, #12]
 8006810:	631a      	str	r2, [r3, #48]	@ 0x30
        hspi->TxXferCount--;
 8006812:	68fb      	ldr	r3, [r7, #12]
 8006814:	8edb      	ldrh	r3, [r3, #54]	@ 0x36
 8006816:	b29b      	uxth	r3, r3
 8006818:	3b01      	subs	r3, #1
 800681a:	b29a      	uxth	r2, r3
 800681c:	68fb      	ldr	r3, [r7, #12]
 800681e:	86da      	strh	r2, [r3, #54]	@ 0x36
 8006820:	e018      	b.n	8006854 <HAL_SPI_Transmit+0x17a>
      }
      else
      {
        /* Timeout management */
        if ((((HAL_GetTick() - tickstart) >=  Timeout) && (Timeout != HAL_MAX_DELAY)) || (Timeout == 0U))
 8006822:	f7fd fec1 	bl	80045a8 <HAL_GetTick>
 8006826:	4602      	mov	r2, r0
 8006828:	69fb      	ldr	r3, [r7, #28]
 800682a:	1ad3      	subs	r3, r2, r3
 800682c:	683a      	ldr	r2, [r7, #0]
 800682e:	429a      	cmp	r2, r3
 8006830:	d803      	bhi.n	800683a <HAL_SPI_Transmit+0x160>
 8006832:	683b      	ldr	r3, [r7, #0]
 8006834:	f1b3 3fff 	cmp.w	r3, #4294967295
 8006838:	d102      	bne.n	8006840 <HAL_SPI_Transmit+0x166>
 800683a:	683b      	ldr	r3, [r7, #0]
 800683c:	2b00      	cmp	r3, #0
 800683e:	d109      	bne.n	8006854 <HAL_SPI_Transmit+0x17a>
        {
          hspi->State = HAL_SPI_STATE_READY;
 8006840:	68fb      	ldr	r3, [r7, #12]
 8006842:	2201      	movs	r2, #1
 8006844:	f883 2051 	strb.w	r2, [r3, #81]	@ 0x51
          __HAL_UNLOCK(hspi);
 8006848:	68fb      	ldr	r3, [r7, #12]
 800684a:	2200      	movs	r2, #0
 800684c:	f883 2050 	strb.w	r2, [r3, #80]	@ 0x50
          return HAL_TIMEOUT;
 8006850:	2303      	movs	r3, #3
 8006852:	e082      	b.n	800695a <HAL_SPI_Transmit+0x280>
    while (hspi->TxXferCount > 0U)
 8006854:	68fb      	ldr	r3, [r7, #12]
 8006856:	8edb      	ldrh	r3, [r3, #54]	@ 0x36
 8006858:	b29b      	uxth	r3, r3
 800685a:	2b00      	cmp	r3, #0
 800685c:	d1c7      	bne.n	80067ee <HAL_SPI_Transmit+0x114>
 800685e:	e053      	b.n	8006908 <HAL_SPI_Transmit+0x22e>
    }
  }
  /* Transmit data in 8 Bit mode */
  else
  {
    if ((hspi->Init.Mode == SPI_MODE_SLAVE) || (initial_TxXferCount == 0x01U))
 8006860:	68fb      	ldr	r3, [r7, #12]
 8006862:	685b      	ldr	r3, [r3, #4]
 8006864:	2b00      	cmp	r3, #0
 8006866:	d002      	beq.n	800686e <HAL_SPI_Transmit+0x194>
 8006868:	8b7b      	ldrh	r3, [r7, #26]
 800686a:	2b01      	cmp	r3, #1
 800686c:	d147      	bne.n	80068fe <HAL_SPI_Transmit+0x224>
    {
      *((__IO uint8_t *)&hspi->Instance->DR) = *((const uint8_t *)hspi->pTxBuffPtr);
 800686e:	68fb      	ldr	r3, [r7, #12]
 8006870:	6b1a      	ldr	r2, [r3, #48]	@ 0x30
 8006872:	68fb      	ldr	r3, [r7, #12]
 8006874:	681b      	ldr	r3, [r3, #0]
 8006876:	330c      	adds	r3, #12
 8006878:	7812      	ldrb	r2, [r2, #0]
 800687a:	701a      	strb	r2, [r3, #0]
      hspi->pTxBuffPtr += sizeof(uint8_t);
 800687c:	68fb      	ldr	r3, [r7, #12]
 800687e:	6b1b      	ldr	r3, [r3, #48]	@ 0x30
 8006880:	1c5a      	adds	r2, r3, #1
 8006882:	68fb      	ldr	r3, [r7, #12]
 8006884:	631a      	str	r2, [r3, #48]	@ 0x30
      hspi->TxXferCount--;
 8006886:	68fb      	ldr	r3, [r7, #12]
 8006888:	8edb      	ldrh	r3, [r3, #54]	@ 0x36
 800688a:	b29b      	uxth	r3, r3
 800688c:	3b01      	subs	r3, #1
 800688e:	b29a      	uxth	r2, r3
 8006890:	68fb      	ldr	r3, [r7, #12]
 8006892:	86da      	strh	r2, [r3, #54]	@ 0x36
    }
    while (hspi->TxXferCount > 0U)
 8006894:	e033      	b.n	80068fe <HAL_SPI_Transmit+0x224>
    {
      /* Wait until TXE flag is set to send data */
      if (__HAL_SPI_GET_FLAG(hspi, SPI_FLAG_TXE))
 8006896:	68fb      	ldr	r3, [r7, #12]
 8006898:	681b      	ldr	r3, [r3, #0]
 800689a:	689b      	ldr	r3, [r3, #8]
 800689c:	f003 0302 	and.w	r3, r3, #2
 80068a0:	2b02      	cmp	r3, #2
 80068a2:	d113      	bne.n	80068cc <HAL_SPI_Transmit+0x1f2>
      {
        *((__IO uint8_t *)&hspi->Instance->DR) = *((const uint8_t *)hspi->pTxBuffPtr);
 80068a4:	68fb      	ldr	r3, [r7, #12]
 80068a6:	6b1a      	ldr	r2, [r3, #48]	@ 0x30
 80068a8:	68fb      	ldr	r3, [r7, #12]
 80068aa:	681b      	ldr	r3, [r3, #0]
 80068ac:	330c      	adds	r3, #12
 80068ae:	7812      	ldrb	r2, [r2, #0]
 80068b0:	701a      	strb	r2, [r3, #0]
        hspi->pTxBuffPtr += sizeof(uint8_t);
 80068b2:	68fb      	ldr	r3, [r7, #12]
 80068b4:	6b1b      	ldr	r3, [r3, #48]	@ 0x30
 80068b6:	1c5a      	adds	r2, r3, #1
 80068b8:	68fb      	ldr	r3, [r7, #12]
 80068ba:	631a      	str	r2, [r3, #48]	@ 0x30
        hspi->TxXferCount--;
 80068bc:	68fb      	ldr	r3, [r7, #12]
 80068be:	8edb      	ldrh	r3, [r3, #54]	@ 0x36
 80068c0:	b29b      	uxth	r3, r3
 80068c2:	3b01      	subs	r3, #1
 80068c4:	b29a      	uxth	r2, r3
 80068c6:	68fb      	ldr	r3, [r7, #12]
 80068c8:	86da      	strh	r2, [r3, #54]	@ 0x36
 80068ca:	e018      	b.n	80068fe <HAL_SPI_Transmit+0x224>
      }
      else
      {
        /* Timeout management */
        if ((((HAL_GetTick() - tickstart) >=  Timeout) && (Timeout != HAL_MAX_DELAY)) || (Timeout == 0U))
 80068cc:	f7fd fe6c 	bl	80045a8 <HAL_GetTick>
 80068d0:	4602      	mov	r2, r0
 80068d2:	69fb      	ldr	r3, [r7, #28]
 80068d4:	1ad3      	subs	r3, r2, r3
 80068d6:	683a      	ldr	r2, [r7, #0]
 80068d8:	429a      	cmp	r2, r3
 80068da:	d803      	bhi.n	80068e4 <HAL_SPI_Transmit+0x20a>
 80068dc:	683b      	ldr	r3, [r7, #0]
 80068de:	f1b3 3fff 	cmp.w	r3, #4294967295
 80068e2:	d102      	bne.n	80068ea <HAL_SPI_Transmit+0x210>
 80068e4:	683b      	ldr	r3, [r7, #0]
 80068e6:	2b00      	cmp	r3, #0
 80068e8:	d109      	bne.n	80068fe <HAL_SPI_Transmit+0x224>
        {
          hspi->State = HAL_SPI_STATE_READY;
 80068ea:	68fb      	ldr	r3, [r7, #12]
 80068ec:	2201      	movs	r2, #1
 80068ee:	f883 2051 	strb.w	r2, [r3, #81]	@ 0x51
          __HAL_UNLOCK(hspi);
 80068f2:	68fb      	ldr	r3, [r7, #12]
 80068f4:	2200      	movs	r2, #0
 80068f6:	f883 2050 	strb.w	r2, [r3, #80]	@ 0x50
          return HAL_TIMEOUT;
 80068fa:	2303      	movs	r3, #3
 80068fc:	e02d      	b.n	800695a <HAL_SPI_Transmit+0x280>
    while (hspi->TxXferCount > 0U)
 80068fe:	68fb      	ldr	r3, [r7, #12]
 8006900:	8edb      	ldrh	r3, [r3, #54]	@ 0x36
 8006902:	b29b      	uxth	r3, r3
 8006904:	2b00      	cmp	r3, #0
 8006906:	d1c6      	bne.n	8006896 <HAL_SPI_Transmit+0x1bc>
    SET_BIT(hspi->Instance->CR1, SPI_CR1_CRCNEXT);
  }
#endif /* USE_SPI_CRC */

  /* Check the end of the transaction */
  if (SPI_EndRxTxTransaction(hspi, Timeout, tickstart) != HAL_OK)
 8006908:	69fa      	ldr	r2, [r7, #28]
 800690a:	6839      	ldr	r1, [r7, #0]
 800690c:	68f8      	ldr	r0, [r7, #12]
 800690e:	f000 fa59 	bl	8006dc4 <SPI_EndRxTxTransaction>
 8006912:	4603      	mov	r3, r0
 8006914:	2b00      	cmp	r3, #0
 8006916:	d002      	beq.n	800691e <HAL_SPI_Transmit+0x244>
  {
    hspi->ErrorCode = HAL_SPI_ERROR_FLAG;
 8006918:	68fb      	ldr	r3, [r7, #12]
 800691a:	2220      	movs	r2, #32
 800691c:	655a      	str	r2, [r3, #84]	@ 0x54
  }

  /* Clear overrun flag in 2 Lines communication mode because received is not read */
  if (hspi->Init.Direction == SPI_DIRECTION_2LINES)
 800691e:	68fb      	ldr	r3, [r7, #12]
 8006920:	689b      	ldr	r3, [r3, #8]
 8006922:	2b00      	cmp	r3, #0
 8006924:	d10a      	bne.n	800693c <HAL_SPI_Transmit+0x262>
  {
    __HAL_SPI_CLEAR_OVRFLAG(hspi);
 8006926:	2300      	movs	r3, #0
 8006928:	617b      	str	r3, [r7, #20]
 800692a:	68fb      	ldr	r3, [r7, #12]
 800692c:	681b      	ldr	r3, [r3, #0]
 800692e:	68db      	ldr	r3, [r3, #12]
 8006930:	617b      	str	r3, [r7, #20]
 8006932:	68fb      	ldr	r3, [r7, #12]
 8006934:	681b      	ldr	r3, [r3, #0]
 8006936:	689b      	ldr	r3, [r3, #8]
 8006938:	617b      	str	r3, [r7, #20]
 800693a:	697b      	ldr	r3, [r7, #20]
  }

  hspi->State = HAL_SPI_STATE_READY;
 800693c:	68fb      	ldr	r3, [r7, #12]
 800693e:	2201      	movs	r2, #1
 8006940:	f883 2051 	strb.w	r2, [r3, #81]	@ 0x51
  /* Process Unlocked */
  __HAL_UNLOCK(hspi);
 8006944:	68fb      	ldr	r3, [r7, #12]
 8006946:	2200      	movs	r2, #0
 8006948:	f883 2050 	strb.w	r2, [r3, #80]	@ 0x50

  if (hspi->ErrorCode != HAL_SPI_ERROR_NONE)
 800694c:	68fb      	ldr	r3, [r7, #12]
 800694e:	6d5b      	ldr	r3, [r3, #84]	@ 0x54
 8006950:	2b00      	cmp	r3, #0
 8006952:	d001      	beq.n	8006958 <HAL_SPI_Transmit+0x27e>
  {
    return HAL_ERROR;
 8006954:	2301      	movs	r3, #1
 8006956:	e000      	b.n	800695a <HAL_SPI_Transmit+0x280>
  }
  else
  {
    return HAL_OK;
 8006958:	2300      	movs	r3, #0
  }
}
 800695a:	4618      	mov	r0, r3
 800695c:	3720      	adds	r7, #32
 800695e:	46bd      	mov	sp, r7
 8006960:	bd80      	pop	{r7, pc}

08006962 <HAL_SPI_TransmitReceive>:
  * @param  Timeout Timeout duration
  * @retval HAL status
  */
HAL_StatusTypeDef HAL_SPI_TransmitReceive(SPI_HandleTypeDef *hspi, const uint8_t *pTxData, uint8_t *pRxData,
                                          uint16_t Size, uint32_t Timeout)
{
 8006962:	b580      	push	{r7, lr}
 8006964:	b08a      	sub	sp, #40	@ 0x28
 8006966:	af00      	add	r7, sp, #0
 8006968:	60f8      	str	r0, [r7, #12]
 800696a:	60b9      	str	r1, [r7, #8]
 800696c:	607a      	str	r2, [r7, #4]
 800696e:	807b      	strh	r3, [r7, #2]
#if (USE_SPI_CRC != 0U)
  __IO uint32_t tmpreg = 0U;
#endif /* USE_SPI_CRC */

  /* Variable used to alternate Rx and Tx during transfer */
  uint32_t             txallowed = 1U;
 8006970:	2301      	movs	r3, #1
 8006972:	627b      	str	r3, [r7, #36]	@ 0x24

  /* Check Direction parameter */
  assert_param(IS_SPI_DIRECTION_2LINES(hspi->Init.Direction));

  /* Init tickstart for timeout management*/
  tickstart = HAL_GetTick();
 8006974:	f7fd fe18 	bl	80045a8 <HAL_GetTick>
 8006978:	6238      	str	r0, [r7, #32]

  /* Init temporary variables */
  tmp_state           = hspi->State;
 800697a:	68fb      	ldr	r3, [r7, #12]
 800697c:	f893 3051 	ldrb.w	r3, [r3, #81]	@ 0x51
 8006980:	77fb      	strb	r3, [r7, #31]
  tmp_mode            = hspi->Init.Mode;
 8006982:	68fb      	ldr	r3, [r7, #12]
 8006984:	685b      	ldr	r3, [r3, #4]
 8006986:	61bb      	str	r3, [r7, #24]
  initial_TxXferCount = Size;
 8006988:	887b      	ldrh	r3, [r7, #2]
 800698a:	82fb      	strh	r3, [r7, #22]

  if (!((tmp_state == HAL_SPI_STATE_READY) || \
 800698c:	7ffb      	ldrb	r3, [r7, #31]
 800698e:	2b01      	cmp	r3, #1
 8006990:	d00c      	beq.n	80069ac <HAL_SPI_TransmitReceive+0x4a>
 8006992:	69bb      	ldr	r3, [r7, #24]
 8006994:	f5b3 7f82 	cmp.w	r3, #260	@ 0x104
 8006998:	d106      	bne.n	80069a8 <HAL_SPI_TransmitReceive+0x46>
        ((tmp_mode == SPI_MODE_MASTER) && (hspi->Init.Direction == SPI_DIRECTION_2LINES) && (tmp_state == HAL_SPI_STATE_BUSY_RX))))
 800699a:	68fb      	ldr	r3, [r7, #12]
 800699c:	689b      	ldr	r3, [r3, #8]
 800699e:	2b00      	cmp	r3, #0
 80069a0:	d102      	bne.n	80069a8 <HAL_SPI_TransmitReceive+0x46>
 80069a2:	7ffb      	ldrb	r3, [r7, #31]
 80069a4:	2b04      	cmp	r3, #4
 80069a6:	d001      	beq.n	80069ac <HAL_SPI_TransmitReceive+0x4a>
  {
    return HAL_BUSY;
 80069a8:	2302      	movs	r3, #2
 80069aa:	e17f      	b.n	8006cac <HAL_SPI_TransmitReceive+0x34a>
  }

  if ((pTxData == NULL) || (pRxData == NULL) || (Size == 0U))
 80069ac:	68bb      	ldr	r3, [r7, #8]
 80069ae:	2b00      	cmp	r3, #0
 80069b0:	d005      	beq.n	80069be <HAL_SPI_TransmitReceive+0x5c>
 80069b2:	687b      	ldr	r3, [r7, #4]
 80069b4:	2b00      	cmp	r3, #0
 80069b6:	d002      	beq.n	80069be <HAL_SPI_TransmitReceive+0x5c>
 80069b8:	887b      	ldrh	r3, [r7, #2]
 80069ba:	2b00      	cmp	r3, #0
 80069bc:	d101      	bne.n	80069c2 <HAL_SPI_TransmitReceive+0x60>
  {
    return HAL_ERROR;
 80069be:	2301      	movs	r3, #1
 80069c0:	e174      	b.n	8006cac <HAL_SPI_TransmitReceive+0x34a>
  }

  /* Process Locked */
  __HAL_LOCK(hspi);
 80069c2:	68fb      	ldr	r3, [r7, #12]
 80069c4:	f893 3050 	ldrb.w	r3, [r3, #80]	@ 0x50
 80069c8:	2b01      	cmp	r3, #1
 80069ca:	d101      	bne.n	80069d0 <HAL_SPI_TransmitReceive+0x6e>
 80069cc:	2302      	movs	r3, #2
 80069ce:	e16d      	b.n	8006cac <HAL_SPI_TransmitReceive+0x34a>
 80069d0:	68fb      	ldr	r3, [r7, #12]
 80069d2:	2201      	movs	r2, #1
 80069d4:	f883 2050 	strb.w	r2, [r3, #80]	@ 0x50

  /* Don't overwrite in case of HAL_SPI_STATE_BUSY_RX */
  if (hspi->State != HAL_SPI_STATE_BUSY_RX)
 80069d8:	68fb      	ldr	r3, [r7, #12]
 80069da:	f893 3051 	ldrb.w	r3, [r3, #81]	@ 0x51
 80069de:	b2db      	uxtb	r3, r3
 80069e0:	2b04      	cmp	r3, #4
 80069e2:	d003      	beq.n	80069ec <HAL_SPI_TransmitReceive+0x8a>
  {
    hspi->State = HAL_SPI_STATE_BUSY_TX_RX;
 80069e4:	68fb      	ldr	r3, [r7, #12]
 80069e6:	2205      	movs	r2, #5
 80069e8:	f883 2051 	strb.w	r2, [r3, #81]	@ 0x51
  }

  /* Set the transaction information */
  hspi->ErrorCode   = HAL_SPI_ERROR_NONE;
 80069ec:	68fb      	ldr	r3, [r7, #12]
 80069ee:	2200      	movs	r2, #0
 80069f0:	655a      	str	r2, [r3, #84]	@ 0x54
  hspi->pRxBuffPtr  = (uint8_t *)pRxData;
 80069f2:	68fb      	ldr	r3, [r7, #12]
 80069f4:	687a      	ldr	r2, [r7, #4]
 80069f6:	639a      	str	r2, [r3, #56]	@ 0x38
  hspi->RxXferCount = Size;
 80069f8:	68fb      	ldr	r3, [r7, #12]
 80069fa:	887a      	ldrh	r2, [r7, #2]
 80069fc:	87da      	strh	r2, [r3, #62]	@ 0x3e
  hspi->RxXferSize  = Size;
 80069fe:	68fb      	ldr	r3, [r7, #12]
 8006a00:	887a      	ldrh	r2, [r7, #2]
 8006a02:	879a      	strh	r2, [r3, #60]	@ 0x3c
  hspi->pTxBuffPtr  = (const uint8_t *)pTxData;
 8006a04:	68fb      	ldr	r3, [r7, #12]
 8006a06:	68ba      	ldr	r2, [r7, #8]
 8006a08:	631a      	str	r2, [r3, #48]	@ 0x30
  hspi->TxXferCount = Size;
 8006a0a:	68fb      	ldr	r3, [r7, #12]
 8006a0c:	887a      	ldrh	r2, [r7, #2]
 8006a0e:	86da      	strh	r2, [r3, #54]	@ 0x36
  hspi->TxXferSize  = Size;
 8006a10:	68fb      	ldr	r3, [r7, #12]
 8006a12:	887a      	ldrh	r2, [r7, #2]
 8006a14:	869a      	strh	r2, [r3, #52]	@ 0x34

  /*Init field not used in handle to zero */
  hspi->RxISR       = NULL;
 8006a16:	68fb      	ldr	r3, [r7, #12]
 8006a18:	2200      	movs	r2, #0
 8006a1a:	641a      	str	r2, [r3, #64]	@ 0x40
  hspi->TxISR       = NULL;
 8006a1c:	68fb      	ldr	r3, [r7, #12]
 8006a1e:	2200      	movs	r2, #0
 8006a20:	645a      	str	r2, [r3, #68]	@ 0x44
    SPI_RESET_CRC(hspi);
  }
#endif /* USE_SPI_CRC */

  /* Check if the SPI is already enabled */
  if ((hspi->Instance->CR1 & SPI_CR1_SPE) != SPI_CR1_SPE)
 8006a22:	68fb      	ldr	r3, [r7, #12]
 8006a24:	681b      	ldr	r3, [r3, #0]
 8006a26:	681b      	ldr	r3, [r3, #0]
 8006a28:	f003 0340 	and.w	r3, r3, #64	@ 0x40
 8006a2c:	2b40      	cmp	r3, #64	@ 0x40
 8006a2e:	d007      	beq.n	8006a40 <HAL_SPI_TransmitReceive+0xde>
  {
    /* Enable SPI peripheral */
    __HAL_SPI_ENABLE(hspi);
 8006a30:	68fb      	ldr	r3, [r7, #12]
 8006a32:	681b      	ldr	r3, [r3, #0]
 8006a34:	681a      	ldr	r2, [r3, #0]
 8006a36:	68fb      	ldr	r3, [r7, #12]
 8006a38:	681b      	ldr	r3, [r3, #0]
 8006a3a:	f042 0240 	orr.w	r2, r2, #64	@ 0x40
 8006a3e:	601a      	str	r2, [r3, #0]
  }

  /* Transmit and Receive data in 16 Bit mode */
  if (hspi->Init.DataSize == SPI_DATASIZE_16BIT)
 8006a40:	68fb      	ldr	r3, [r7, #12]
 8006a42:	68db      	ldr	r3, [r3, #12]
 8006a44:	f5b3 6f00 	cmp.w	r3, #2048	@ 0x800
 8006a48:	d17e      	bne.n	8006b48 <HAL_SPI_TransmitReceive+0x1e6>
  {
    if ((hspi->Init.Mode == SPI_MODE_SLAVE) || (initial_TxXferCount == 0x01U))
 8006a4a:	68fb      	ldr	r3, [r7, #12]
 8006a4c:	685b      	ldr	r3, [r3, #4]
 8006a4e:	2b00      	cmp	r3, #0
 8006a50:	d002      	beq.n	8006a58 <HAL_SPI_TransmitReceive+0xf6>
 8006a52:	8afb      	ldrh	r3, [r7, #22]
 8006a54:	2b01      	cmp	r3, #1
 8006a56:	d16c      	bne.n	8006b32 <HAL_SPI_TransmitReceive+0x1d0>
    {
      hspi->Instance->DR = *((const uint16_t *)hspi->pTxBuffPtr);
 8006a58:	68fb      	ldr	r3, [r7, #12]
 8006a5a:	6b1b      	ldr	r3, [r3, #48]	@ 0x30
 8006a5c:	881a      	ldrh	r2, [r3, #0]
 8006a5e:	68fb      	ldr	r3, [r7, #12]
 8006a60:	681b      	ldr	r3, [r3, #0]
 8006a62:	60da      	str	r2, [r3, #12]
      hspi->pTxBuffPtr += sizeof(uint16_t);
 8006a64:	68fb      	ldr	r3, [r7, #12]
 8006a66:	6b1b      	ldr	r3, [r3, #48]	@ 0x30
 8006a68:	1c9a      	adds	r2, r3, #2
 8006a6a:	68fb      	ldr	r3, [r7, #12]
 8006a6c:	631a      	str	r2, [r3, #48]	@ 0x30
      hspi->TxXferCount--;
 8006a6e:	68fb      	ldr	r3, [r7, #12]
 8006a70:	8edb      	ldrh	r3, [r3, #54]	@ 0x36
 8006a72:	b29b      	uxth	r3, r3
 8006a74:	3b01      	subs	r3, #1
 8006a76:	b29a      	uxth	r2, r3
 8006a78:	68fb      	ldr	r3, [r7, #12]
 8006a7a:	86da      	strh	r2, [r3, #54]	@ 0x36
        SET_BIT(hspi->Instance->CR1, SPI_CR1_CRCNEXT);
      }
#endif /* USE_SPI_CRC */

    }
    while ((hspi->TxXferCount > 0U) || (hspi->RxXferCount > 0U))
 8006a7c:	e059      	b.n	8006b32 <HAL_SPI_TransmitReceive+0x1d0>
    {
      /* Check TXE flag */
      if ((__HAL_SPI_GET_FLAG(hspi, SPI_FLAG_TXE)) && (hspi->TxXferCount > 0U) && (txallowed == 1U))
 8006a7e:	68fb      	ldr	r3, [r7, #12]
 8006a80:	681b      	ldr	r3, [r3, #0]
 8006a82:	689b      	ldr	r3, [r3, #8]
 8006a84:	f003 0302 	and.w	r3, r3, #2
 8006a88:	2b02      	cmp	r3, #2
 8006a8a:	d11b      	bne.n	8006ac4 <HAL_SPI_TransmitReceive+0x162>
 8006a8c:	68fb      	ldr	r3, [r7, #12]
 8006a8e:	8edb      	ldrh	r3, [r3, #54]	@ 0x36
 8006a90:	b29b      	uxth	r3, r3
 8006a92:	2b00      	cmp	r3, #0
 8006a94:	d016      	beq.n	8006ac4 <HAL_SPI_TransmitReceive+0x162>
 8006a96:	6a7b      	ldr	r3, [r7, #36]	@ 0x24
 8006a98:	2b01      	cmp	r3, #1
 8006a9a:	d113      	bne.n	8006ac4 <HAL_SPI_TransmitReceive+0x162>
      {
        hspi->Instance->DR = *((const uint16_t *)hspi->pTxBuffPtr);
 8006a9c:	68fb      	ldr	r3, [r7, #12]
 8006a9e:	6b1b      	ldr	r3, [r3, #48]	@ 0x30
 8006aa0:	881a      	ldrh	r2, [r3, #0]
 8006aa2:	68fb      	ldr	r3, [r7, #12]
 8006aa4:	681b      	ldr	r3, [r3, #0]
 8006aa6:	60da      	str	r2, [r3, #12]
        hspi->pTxBuffPtr += sizeof(uint16_t);
 8006aa8:	68fb      	ldr	r3, [r7, #12]
 8006aaa:	6b1b      	ldr	r3, [r3, #48]	@ 0x30
 8006aac:	1c9a      	adds	r2, r3, #2
 8006aae:	68fb      	ldr	r3, [r7, #12]
 8006ab0:	631a      	str	r2, [r3, #48]	@ 0x30
        hspi->TxXferCount--;
 8006ab2:	68fb      	ldr	r3, [r7, #12]
 8006ab4:	8edb      	ldrh	r3, [r3, #54]	@ 0x36
 8006ab6:	b29b      	uxth	r3, r3
 8006ab8:	3b01      	subs	r3, #1
 8006aba:	b29a      	uxth	r2, r3
 8006abc:	68fb      	ldr	r3, [r7, #12]
 8006abe:	86da      	strh	r2, [r3, #54]	@ 0x36
        /* Next Data is a reception (Rx). Tx not allowed */
        txallowed = 0U;
 8006ac0:	2300      	movs	r3, #0
 8006ac2:	627b      	str	r3, [r7, #36]	@ 0x24
        }
#endif /* USE_SPI_CRC */
      }

      /* Check RXNE flag */
      if ((__HAL_SPI_GET_FLAG(hspi, SPI_FLAG_RXNE)) && (hspi->RxXferCount > 0U))
 8006ac4:	68fb      	ldr	r3, [r7, #12]
 8006ac6:	681b      	ldr	r3, [r3, #0]
 8006ac8:	689b      	ldr	r3, [r3, #8]
 8006aca:	f003 0301 	and.w	r3, r3, #1
 8006ace:	2b01      	cmp	r3, #1
 8006ad0:	d119      	bne.n	8006b06 <HAL_SPI_TransmitReceive+0x1a4>
 8006ad2:	68fb      	ldr	r3, [r7, #12]
 8006ad4:	8fdb      	ldrh	r3, [r3, #62]	@ 0x3e
 8006ad6:	b29b      	uxth	r3, r3
 8006ad8:	2b00      	cmp	r3, #0
 8006ada:	d014      	beq.n	8006b06 <HAL_SPI_TransmitReceive+0x1a4>
      {
        *((uint16_t *)hspi->pRxBuffPtr) = (uint16_t)hspi->Instance->DR;
 8006adc:	68fb      	ldr	r3, [r7, #12]
 8006ade:	681b      	ldr	r3, [r3, #0]
 8006ae0:	68da      	ldr	r2, [r3, #12]
 8006ae2:	68fb      	ldr	r3, [r7, #12]
 8006ae4:	6b9b      	ldr	r3, [r3, #56]	@ 0x38
 8006ae6:	b292      	uxth	r2, r2
 8006ae8:	801a      	strh	r2, [r3, #0]
        hspi->pRxBuffPtr += sizeof(uint16_t);
 8006aea:	68fb      	ldr	r3, [r7, #12]
 8006aec:	6b9b      	ldr	r3, [r3, #56]	@ 0x38
 8006aee:	1c9a      	adds	r2, r3, #2
 8006af0:	68fb      	ldr	r3, [r7, #12]
 8006af2:	639a      	str	r2, [r3, #56]	@ 0x38
        hspi->RxXferCount--;
 8006af4:	68fb      	ldr	r3, [r7, #12]
 8006af6:	8fdb      	ldrh	r3, [r3, #62]	@ 0x3e
 8006af8:	b29b      	uxth	r3, r3
 8006afa:	3b01      	subs	r3, #1
 8006afc:	b29a      	uxth	r2, r3
 8006afe:	68fb      	ldr	r3, [r7, #12]
 8006b00:	87da      	strh	r2, [r3, #62]	@ 0x3e
        /* Next Data is a Transmission (Tx). Tx is allowed */
        txallowed = 1U;
 8006b02:	2301      	movs	r3, #1
 8006b04:	627b      	str	r3, [r7, #36]	@ 0x24
      }
      if (((HAL_GetTick() - tickstart) >=  Timeout) && (Timeout != HAL_MAX_DELAY))
 8006b06:	f7fd fd4f 	bl	80045a8 <HAL_GetTick>
 8006b0a:	4602      	mov	r2, r0
 8006b0c:	6a3b      	ldr	r3, [r7, #32]
 8006b0e:	1ad3      	subs	r3, r2, r3
 8006b10:	6b3a      	ldr	r2, [r7, #48]	@ 0x30
 8006b12:	429a      	cmp	r2, r3
 8006b14:	d80d      	bhi.n	8006b32 <HAL_SPI_TransmitReceive+0x1d0>
 8006b16:	6b3b      	ldr	r3, [r7, #48]	@ 0x30
 8006b18:	f1b3 3fff 	cmp.w	r3, #4294967295
 8006b1c:	d009      	beq.n	8006b32 <HAL_SPI_TransmitReceive+0x1d0>
      {
        hspi->State = HAL_SPI_STATE_READY;
 8006b1e:	68fb      	ldr	r3, [r7, #12]
 8006b20:	2201      	movs	r2, #1
 8006b22:	f883 2051 	strb.w	r2, [r3, #81]	@ 0x51
        __HAL_UNLOCK(hspi);
 8006b26:	68fb      	ldr	r3, [r7, #12]
 8006b28:	2200      	movs	r2, #0
 8006b2a:	f883 2050 	strb.w	r2, [r3, #80]	@ 0x50
        return HAL_TIMEOUT;
 8006b2e:	2303      	movs	r3, #3
 8006b30:	e0bc      	b.n	8006cac <HAL_SPI_TransmitReceive+0x34a>
    while ((hspi->TxXferCount > 0U) || (hspi->RxXferCount > 0U))
 8006b32:	68fb      	ldr	r3, [r7, #12]
 8006b34:	8edb      	ldrh	r3, [r3, #54]	@ 0x36
 8006b36:	b29b      	uxth	r3, r3
 8006b38:	2b00      	cmp	r3, #0
 8006b3a:	d1a0      	bne.n	8006a7e <HAL_SPI_TransmitReceive+0x11c>
 8006b3c:	68fb      	ldr	r3, [r7, #12]
 8006b3e:	8fdb      	ldrh	r3, [r3, #62]	@ 0x3e
 8006b40:	b29b      	uxth	r3, r3
 8006b42:	2b00      	cmp	r3, #0
 8006b44:	d19b      	bne.n	8006a7e <HAL_SPI_TransmitReceive+0x11c>
 8006b46:	e082      	b.n	8006c4e <HAL_SPI_TransmitReceive+0x2ec>
    }
  }
  /* Transmit and Receive data in 8 Bit mode */
  else
  {
    if ((hspi->Init.Mode == SPI_MODE_SLAVE) || (initial_TxXferCount == 0x01U))
 8006b48:	68fb      	ldr	r3, [r7, #12]
 8006b4a:	685b      	ldr	r3, [r3, #4]
 8006b4c:	2b00      	cmp	r3, #0
 8006b4e:	d002      	beq.n	8006b56 <HAL_SPI_TransmitReceive+0x1f4>
 8006b50:	8afb      	ldrh	r3, [r7, #22]
 8006b52:	2b01      	cmp	r3, #1
 8006b54:	d171      	bne.n	8006c3a <HAL_SPI_TransmitReceive+0x2d8>
    {
      *((__IO uint8_t *)&hspi->Instance->DR) = *((const uint8_t *)hspi->pTxBuffPtr);
 8006b56:	68fb      	ldr	r3, [r7, #12]
 8006b58:	6b1a      	ldr	r2, [r3, #48]	@ 0x30
 8006b5a:	68fb      	ldr	r3, [r7, #12]
 8006b5c:	681b      	ldr	r3, [r3, #0]
 8006b5e:	330c      	adds	r3, #12
 8006b60:	7812      	ldrb	r2, [r2, #0]
 8006b62:	701a      	strb	r2, [r3, #0]
      hspi->pTxBuffPtr += sizeof(uint8_t);
 8006b64:	68fb      	ldr	r3, [r7, #12]
 8006b66:	6b1b      	ldr	r3, [r3, #48]	@ 0x30
 8006b68:	1c5a      	adds	r2, r3, #1
 8006b6a:	68fb      	ldr	r3, [r7, #12]
 8006b6c:	631a      	str	r2, [r3, #48]	@ 0x30
      hspi->TxXferCount--;
 8006b6e:	68fb      	ldr	r3, [r7, #12]
 8006b70:	8edb      	ldrh	r3, [r3, #54]	@ 0x36
 8006b72:	b29b      	uxth	r3, r3
 8006b74:	3b01      	subs	r3, #1
 8006b76:	b29a      	uxth	r2, r3
 8006b78:	68fb      	ldr	r3, [r7, #12]
 8006b7a:	86da      	strh	r2, [r3, #54]	@ 0x36
      {
        SET_BIT(hspi->Instance->CR1, SPI_CR1_CRCNEXT);
      }
#endif /* USE_SPI_CRC */
    }
    while ((hspi->TxXferCount > 0U) || (hspi->RxXferCount > 0U))
 8006b7c:	e05d      	b.n	8006c3a <HAL_SPI_TransmitReceive+0x2d8>
    {
      /* Check TXE flag */
      if ((__HAL_SPI_GET_FLAG(hspi, SPI_FLAG_TXE)) && (hspi->TxXferCount > 0U) && (txallowed == 1U))
 8006b7e:	68fb      	ldr	r3, [r7, #12]
 8006b80:	681b      	ldr	r3, [r3, #0]
 8006b82:	689b      	ldr	r3, [r3, #8]
 8006b84:	f003 0302 	and.w	r3, r3, #2
 8006b88:	2b02      	cmp	r3, #2
 8006b8a:	d11c      	bne.n	8006bc6 <HAL_SPI_TransmitReceive+0x264>
 8006b8c:	68fb      	ldr	r3, [r7, #12]
 8006b8e:	8edb      	ldrh	r3, [r3, #54]	@ 0x36
 8006b90:	b29b      	uxth	r3, r3
 8006b92:	2b00      	cmp	r3, #0
 8006b94:	d017      	beq.n	8006bc6 <HAL_SPI_TransmitReceive+0x264>
 8006b96:	6a7b      	ldr	r3, [r7, #36]	@ 0x24
 8006b98:	2b01      	cmp	r3, #1
 8006b9a:	d114      	bne.n	8006bc6 <HAL_SPI_TransmitReceive+0x264>
      {
        *(__IO uint8_t *)&hspi->Instance->DR = *((const uint8_t *)hspi->pTxBuffPtr);
 8006b9c:	68fb      	ldr	r3, [r7, #12]
 8006b9e:	6b1a      	ldr	r2, [r3, #48]	@ 0x30
 8006ba0:	68fb      	ldr	r3, [r7, #12]
 8006ba2:	681b      	ldr	r3, [r3, #0]
 8006ba4:	330c      	adds	r3, #12
 8006ba6:	7812      	ldrb	r2, [r2, #0]
 8006ba8:	701a      	strb	r2, [r3, #0]
        hspi->pTxBuffPtr++;
 8006baa:	68fb      	ldr	r3, [r7, #12]
 8006bac:	6b1b      	ldr	r3, [r3, #48]	@ 0x30
 8006bae:	1c5a      	adds	r2, r3, #1
 8006bb0:	68fb      	ldr	r3, [r7, #12]
 8006bb2:	631a      	str	r2, [r3, #48]	@ 0x30
        hspi->TxXferCount--;
 8006bb4:	68fb      	ldr	r3, [r7, #12]
 8006bb6:	8edb      	ldrh	r3, [r3, #54]	@ 0x36
 8006bb8:	b29b      	uxth	r3, r3
 8006bba:	3b01      	subs	r3, #1
 8006bbc:	b29a      	uxth	r2, r3
 8006bbe:	68fb      	ldr	r3, [r7, #12]
 8006bc0:	86da      	strh	r2, [r3, #54]	@ 0x36
        /* Next Data is a reception (Rx). Tx not allowed */
        txallowed = 0U;
 8006bc2:	2300      	movs	r3, #0
 8006bc4:	627b      	str	r3, [r7, #36]	@ 0x24
        }
#endif /* USE_SPI_CRC */
      }

      /* Wait until RXNE flag is reset */
      if ((__HAL_SPI_GET_FLAG(hspi, SPI_FLAG_RXNE)) && (hspi->RxXferCount > 0U))
 8006bc6:	68fb      	ldr	r3, [r7, #12]
 8006bc8:	681b      	ldr	r3, [r3, #0]
 8006bca:	689b      	ldr	r3, [r3, #8]
 8006bcc:	f003 0301 	and.w	r3, r3, #1
 8006bd0:	2b01      	cmp	r3, #1
 8006bd2:	d119      	bne.n	8006c08 <HAL_SPI_TransmitReceive+0x2a6>
 8006bd4:	68fb      	ldr	r3, [r7, #12]
 8006bd6:	8fdb      	ldrh	r3, [r3, #62]	@ 0x3e
 8006bd8:	b29b      	uxth	r3, r3
 8006bda:	2b00      	cmp	r3, #0
 8006bdc:	d014      	beq.n	8006c08 <HAL_SPI_TransmitReceive+0x2a6>
      {
        (*(uint8_t *)hspi->pRxBuffPtr) = hspi->Instance->DR;
 8006bde:	68fb      	ldr	r3, [r7, #12]
 8006be0:	681b      	ldr	r3, [r3, #0]
 8006be2:	68da      	ldr	r2, [r3, #12]
 8006be4:	68fb      	ldr	r3, [r7, #12]
 8006be6:	6b9b      	ldr	r3, [r3, #56]	@ 0x38
 8006be8:	b2d2      	uxtb	r2, r2
 8006bea:	701a      	strb	r2, [r3, #0]
        hspi->pRxBuffPtr++;
 8006bec:	68fb      	ldr	r3, [r7, #12]
 8006bee:	6b9b      	ldr	r3, [r3, #56]	@ 0x38
 8006bf0:	1c5a      	adds	r2, r3, #1
 8006bf2:	68fb      	ldr	r3, [r7, #12]
 8006bf4:	639a      	str	r2, [r3, #56]	@ 0x38
        hspi->RxXferCount--;
 8006bf6:	68fb      	ldr	r3, [r7, #12]
 8006bf8:	8fdb      	ldrh	r3, [r3, #62]	@ 0x3e
 8006bfa:	b29b      	uxth	r3, r3
 8006bfc:	3b01      	subs	r3, #1
 8006bfe:	b29a      	uxth	r2, r3
 8006c00:	68fb      	ldr	r3, [r7, #12]
 8006c02:	87da      	strh	r2, [r3, #62]	@ 0x3e
        /* Next Data is a Transmission (Tx). Tx is allowed */
        txallowed = 1U;
 8006c04:	2301      	movs	r3, #1
 8006c06:	627b      	str	r3, [r7, #36]	@ 0x24
      }
      if ((((HAL_GetTick() - tickstart) >=  Timeout) && ((Timeout != HAL_MAX_DELAY))) || (Timeout == 0U))
 8006c08:	f7fd fcce 	bl	80045a8 <HAL_GetTick>
 8006c0c:	4602      	mov	r2, r0
 8006c0e:	6a3b      	ldr	r3, [r7, #32]
 8006c10:	1ad3      	subs	r3, r2, r3
 8006c12:	6b3a      	ldr	r2, [r7, #48]	@ 0x30
 8006c14:	429a      	cmp	r2, r3
 8006c16:	d803      	bhi.n	8006c20 <HAL_SPI_TransmitReceive+0x2be>
 8006c18:	6b3b      	ldr	r3, [r7, #48]	@ 0x30
 8006c1a:	f1b3 3fff 	cmp.w	r3, #4294967295
 8006c1e:	d102      	bne.n	8006c26 <HAL_SPI_TransmitReceive+0x2c4>
 8006c20:	6b3b      	ldr	r3, [r7, #48]	@ 0x30
 8006c22:	2b00      	cmp	r3, #0
 8006c24:	d109      	bne.n	8006c3a <HAL_SPI_TransmitReceive+0x2d8>
      {
        hspi->State = HAL_SPI_STATE_READY;
 8006c26:	68fb      	ldr	r3, [r7, #12]
 8006c28:	2201      	movs	r2, #1
 8006c2a:	f883 2051 	strb.w	r2, [r3, #81]	@ 0x51
        __HAL_UNLOCK(hspi);
 8006c2e:	68fb      	ldr	r3, [r7, #12]
 8006c30:	2200      	movs	r2, #0
 8006c32:	f883 2050 	strb.w	r2, [r3, #80]	@ 0x50
        return HAL_TIMEOUT;
 8006c36:	2303      	movs	r3, #3
 8006c38:	e038      	b.n	8006cac <HAL_SPI_TransmitReceive+0x34a>
    while ((hspi->TxXferCount > 0U) || (hspi->RxXferCount > 0U))
 8006c3a:	68fb      	ldr	r3, [r7, #12]
 8006c3c:	8edb      	ldrh	r3, [r3, #54]	@ 0x36
 8006c3e:	b29b      	uxth	r3, r3
 8006c40:	2b00      	cmp	r3, #0
 8006c42:	d19c      	bne.n	8006b7e <HAL_SPI_TransmitReceive+0x21c>
 8006c44:	68fb      	ldr	r3, [r7, #12]
 8006c46:	8fdb      	ldrh	r3, [r3, #62]	@ 0x3e
 8006c48:	b29b      	uxth	r3, r3
 8006c4a:	2b00      	cmp	r3, #0
 8006c4c:	d197      	bne.n	8006b7e <HAL_SPI_TransmitReceive+0x21c>
    return HAL_ERROR;
  }
#endif /* USE_SPI_CRC */

  /* Check the end of the transaction */
  if (SPI_EndRxTxTransaction(hspi, Timeout, tickstart) != HAL_OK)
 8006c4e:	6a3a      	ldr	r2, [r7, #32]
 8006c50:	6b39      	ldr	r1, [r7, #48]	@ 0x30
 8006c52:	68f8      	ldr	r0, [r7, #12]
 8006c54:	f000 f8b6 	bl	8006dc4 <SPI_EndRxTxTransaction>
 8006c58:	4603      	mov	r3, r0
 8006c5a:	2b00      	cmp	r3, #0
 8006c5c:	d008      	beq.n	8006c70 <HAL_SPI_TransmitReceive+0x30e>
  {
    hspi->ErrorCode = HAL_SPI_ERROR_FLAG;
 8006c5e:	68fb      	ldr	r3, [r7, #12]
 8006c60:	2220      	movs	r2, #32
 8006c62:	655a      	str	r2, [r3, #84]	@ 0x54
    __HAL_UNLOCK(hspi);
 8006c64:	68fb      	ldr	r3, [r7, #12]
 8006c66:	2200      	movs	r2, #0
 8006c68:	f883 2050 	strb.w	r2, [r3, #80]	@ 0x50
    return HAL_ERROR;
 8006c6c:	2301      	movs	r3, #1
 8006c6e:	e01d      	b.n	8006cac <HAL_SPI_TransmitReceive+0x34a>
  }

  /* Clear overrun flag in 2 Lines communication mode because received is not read */
  if (hspi->Init.Direction == SPI_DIRECTION_2LINES)
 8006c70:	68fb      	ldr	r3, [r7, #12]
 8006c72:	689b      	ldr	r3, [r3, #8]
 8006c74:	2b00      	cmp	r3, #0
 8006c76:	d10a      	bne.n	8006c8e <HAL_SPI_TransmitReceive+0x32c>
  {
    __HAL_SPI_CLEAR_OVRFLAG(hspi);
 8006c78:	2300      	movs	r3, #0
 8006c7a:	613b      	str	r3, [r7, #16]
 8006c7c:	68fb      	ldr	r3, [r7, #12]
 8006c7e:	681b      	ldr	r3, [r3, #0]
 8006c80:	68db      	ldr	r3, [r3, #12]
 8006c82:	613b      	str	r3, [r7, #16]
 8006c84:	68fb      	ldr	r3, [r7, #12]
 8006c86:	681b      	ldr	r3, [r3, #0]
 8006c88:	689b      	ldr	r3, [r3, #8]
 8006c8a:	613b      	str	r3, [r7, #16]
 8006c8c:	693b      	ldr	r3, [r7, #16]
  }


  hspi->State = HAL_SPI_STATE_READY;
 8006c8e:	68fb      	ldr	r3, [r7, #12]
 8006c90:	2201      	movs	r2, #1
 8006c92:	f883 2051 	strb.w	r2, [r3, #81]	@ 0x51
  /* Unlock the process */
  __HAL_UNLOCK(hspi);
 8006c96:	68fb      	ldr	r3, [r7, #12]
 8006c98:	2200      	movs	r2, #0
 8006c9a:	f883 2050 	strb.w	r2, [r3, #80]	@ 0x50

  if (hspi->ErrorCode != HAL_SPI_ERROR_NONE)
 8006c9e:	68fb      	ldr	r3, [r7, #12]
 8006ca0:	6d5b      	ldr	r3, [r3, #84]	@ 0x54
 8006ca2:	2b00      	cmp	r3, #0
 8006ca4:	d001      	beq.n	8006caa <HAL_SPI_TransmitReceive+0x348>
  {
    return HAL_ERROR;
 8006ca6:	2301      	movs	r3, #1
 8006ca8:	e000      	b.n	8006cac <HAL_SPI_TransmitReceive+0x34a>
  }
  else
  {
    return HAL_OK;
 8006caa:	2300      	movs	r3, #0
  }
}
 8006cac:	4618      	mov	r0, r3
 8006cae:	3728      	adds	r7, #40	@ 0x28
 8006cb0:	46bd      	mov	sp, r7
 8006cb2:	bd80      	pop	{r7, pc}

08006cb4 <SPI_WaitFlagStateUntilTimeout>:
  * @param  Tickstart tick start value
  * @retval HAL status
  */
static HAL_StatusTypeDef SPI_WaitFlagStateUntilTimeout(SPI_HandleTypeDef *hspi, uint32_t Flag, FlagStatus State,
                                                       uint32_t Timeout, uint32_t Tickstart)
{
 8006cb4:	b580      	push	{r7, lr}
 8006cb6:	b088      	sub	sp, #32
 8006cb8:	af00      	add	r7, sp, #0
 8006cba:	60f8      	str	r0, [r7, #12]
 8006cbc:	60b9      	str	r1, [r7, #8]
 8006cbe:	603b      	str	r3, [r7, #0]
 8006cc0:	4613      	mov	r3, r2
 8006cc2:	71fb      	strb	r3, [r7, #7]
  __IO uint32_t count;
  uint32_t tmp_timeout;
  uint32_t tmp_tickstart;

  /* Adjust Timeout value  in case of end of transfer */
  tmp_timeout   = Timeout - (HAL_GetTick() - Tickstart);
 8006cc4:	f7fd fc70 	bl	80045a8 <HAL_GetTick>
 8006cc8:	4602      	mov	r2, r0
 8006cca:	6abb      	ldr	r3, [r7, #40]	@ 0x28
 8006ccc:	1a9b      	subs	r3, r3, r2
 8006cce:	683a      	ldr	r2, [r7, #0]
 8006cd0:	4413      	add	r3, r2
 8006cd2:	61fb      	str	r3, [r7, #28]
  tmp_tickstart = HAL_GetTick();
 8006cd4:	f7fd fc68 	bl	80045a8 <HAL_GetTick>
 8006cd8:	61b8      	str	r0, [r7, #24]

  /* Calculate Timeout based on a software loop to avoid blocking issue if Systick is disabled */
  count = tmp_timeout * ((SystemCoreClock * 32U) >> 20U);
 8006cda:	4b39      	ldr	r3, [pc, #228]	@ (8006dc0 <SPI_WaitFlagStateUntilTimeout+0x10c>)
 8006cdc:	681b      	ldr	r3, [r3, #0]
 8006cde:	015b      	lsls	r3, r3, #5
 8006ce0:	0d1b      	lsrs	r3, r3, #20
 8006ce2:	69fa      	ldr	r2, [r7, #28]
 8006ce4:	fb02 f303 	mul.w	r3, r2, r3
 8006ce8:	617b      	str	r3, [r7, #20]

  while ((__HAL_SPI_GET_FLAG(hspi, Flag) ? SET : RESET) != State)
 8006cea:	e054      	b.n	8006d96 <SPI_WaitFlagStateUntilTimeout+0xe2>
  {
    if (Timeout != HAL_MAX_DELAY)
 8006cec:	683b      	ldr	r3, [r7, #0]
 8006cee:	f1b3 3fff 	cmp.w	r3, #4294967295
 8006cf2:	d050      	beq.n	8006d96 <SPI_WaitFlagStateUntilTimeout+0xe2>
    {
      if (((HAL_GetTick() - tmp_tickstart) >= tmp_timeout) || (tmp_timeout == 0U))
 8006cf4:	f7fd fc58 	bl	80045a8 <HAL_GetTick>
 8006cf8:	4602      	mov	r2, r0
 8006cfa:	69bb      	ldr	r3, [r7, #24]
 8006cfc:	1ad3      	subs	r3, r2, r3
 8006cfe:	69fa      	ldr	r2, [r7, #28]
 8006d00:	429a      	cmp	r2, r3
 8006d02:	d902      	bls.n	8006d0a <SPI_WaitFlagStateUntilTimeout+0x56>
 8006d04:	69fb      	ldr	r3, [r7, #28]
 8006d06:	2b00      	cmp	r3, #0
 8006d08:	d13d      	bne.n	8006d86 <SPI_WaitFlagStateUntilTimeout+0xd2>
        /* Disable the SPI and reset the CRC: the CRC value should be cleared
           on both master and slave sides in order to resynchronize the master
           and slave for their respective CRC calculation */

        /* Disable TXE, RXNE and ERR interrupts for the interrupt process */
        __HAL_SPI_DISABLE_IT(hspi, (SPI_IT_TXE | SPI_IT_RXNE | SPI_IT_ERR));
 8006d0a:	68fb      	ldr	r3, [r7, #12]
 8006d0c:	681b      	ldr	r3, [r3, #0]
 8006d0e:	685a      	ldr	r2, [r3, #4]
 8006d10:	68fb      	ldr	r3, [r7, #12]
 8006d12:	681b      	ldr	r3, [r3, #0]
 8006d14:	f022 02e0 	bic.w	r2, r2, #224	@ 0xe0
 8006d18:	605a      	str	r2, [r3, #4]

        if ((hspi->Init.Mode == SPI_MODE_MASTER) && ((hspi->Init.Direction == SPI_DIRECTION_1LINE)
 8006d1a:	68fb      	ldr	r3, [r7, #12]
 8006d1c:	685b      	ldr	r3, [r3, #4]
 8006d1e:	f5b3 7f82 	cmp.w	r3, #260	@ 0x104
 8006d22:	d111      	bne.n	8006d48 <SPI_WaitFlagStateUntilTimeout+0x94>
 8006d24:	68fb      	ldr	r3, [r7, #12]
 8006d26:	689b      	ldr	r3, [r3, #8]
 8006d28:	f5b3 4f00 	cmp.w	r3, #32768	@ 0x8000
 8006d2c:	d004      	beq.n	8006d38 <SPI_WaitFlagStateUntilTimeout+0x84>
                                                     || (hspi->Init.Direction == SPI_DIRECTION_2LINES_RXONLY)))
 8006d2e:	68fb      	ldr	r3, [r7, #12]
 8006d30:	689b      	ldr	r3, [r3, #8]
 8006d32:	f5b3 6f80 	cmp.w	r3, #1024	@ 0x400
 8006d36:	d107      	bne.n	8006d48 <SPI_WaitFlagStateUntilTimeout+0x94>
        {
          /* Disable SPI peripheral */
          __HAL_SPI_DISABLE(hspi);
 8006d38:	68fb      	ldr	r3, [r7, #12]
 8006d3a:	681b      	ldr	r3, [r3, #0]
 8006d3c:	681a      	ldr	r2, [r3, #0]
 8006d3e:	68fb      	ldr	r3, [r7, #12]
 8006d40:	681b      	ldr	r3, [r3, #0]
 8006d42:	f022 0240 	bic.w	r2, r2, #64	@ 0x40
 8006d46:	601a      	str	r2, [r3, #0]
        }

        /* Reset CRC Calculation */
        if (hspi->Init.CRCCalculation == SPI_CRCCALCULATION_ENABLE)
 8006d48:	68fb      	ldr	r3, [r7, #12]
 8006d4a:	6a9b      	ldr	r3, [r3, #40]	@ 0x28
 8006d4c:	f5b3 5f00 	cmp.w	r3, #8192	@ 0x2000
 8006d50:	d10f      	bne.n	8006d72 <SPI_WaitFlagStateUntilTimeout+0xbe>
        {
          SPI_RESET_CRC(hspi);
 8006d52:	68fb      	ldr	r3, [r7, #12]
 8006d54:	681b      	ldr	r3, [r3, #0]
 8006d56:	681a      	ldr	r2, [r3, #0]
 8006d58:	68fb      	ldr	r3, [r7, #12]
 8006d5a:	681b      	ldr	r3, [r3, #0]
 8006d5c:	f422 5200 	bic.w	r2, r2, #8192	@ 0x2000
 8006d60:	601a      	str	r2, [r3, #0]
 8006d62:	68fb      	ldr	r3, [r7, #12]
 8006d64:	681b      	ldr	r3, [r3, #0]
 8006d66:	681a      	ldr	r2, [r3, #0]
 8006d68:	68fb      	ldr	r3, [r7, #12]
 8006d6a:	681b      	ldr	r3, [r3, #0]
 8006d6c:	f442 5200 	orr.w	r2, r2, #8192	@ 0x2000
 8006d70:	601a      	str	r2, [r3, #0]
        }

        hspi->State = HAL_SPI_STATE_READY;
 8006d72:	68fb      	ldr	r3, [r7, #12]
 8006d74:	2201      	movs	r2, #1
 8006d76:	f883 2051 	strb.w	r2, [r3, #81]	@ 0x51

        /* Process Unlocked */
        __HAL_UNLOCK(hspi);
 8006d7a:	68fb      	ldr	r3, [r7, #12]
 8006d7c:	2200      	movs	r2, #0
 8006d7e:	f883 2050 	strb.w	r2, [r3, #80]	@ 0x50

        return HAL_TIMEOUT;
 8006d82:	2303      	movs	r3, #3
 8006d84:	e017      	b.n	8006db6 <SPI_WaitFlagStateUntilTimeout+0x102>
      }
      /* If Systick is disabled or not incremented, deactivate timeout to go in disable loop procedure */
      if (count == 0U)
 8006d86:	697b      	ldr	r3, [r7, #20]
 8006d88:	2b00      	cmp	r3, #0
 8006d8a:	d101      	bne.n	8006d90 <SPI_WaitFlagStateUntilTimeout+0xdc>
      {
        tmp_timeout = 0U;
 8006d8c:	2300      	movs	r3, #0
 8006d8e:	61fb      	str	r3, [r7, #28]
      }
      count--;
 8006d90:	697b      	ldr	r3, [r7, #20]
 8006d92:	3b01      	subs	r3, #1
 8006d94:	617b      	str	r3, [r7, #20]
  while ((__HAL_SPI_GET_FLAG(hspi, Flag) ? SET : RESET) != State)
 8006d96:	68fb      	ldr	r3, [r7, #12]
 8006d98:	681b      	ldr	r3, [r3, #0]
 8006d9a:	689a      	ldr	r2, [r3, #8]
 8006d9c:	68bb      	ldr	r3, [r7, #8]
 8006d9e:	4013      	ands	r3, r2
 8006da0:	68ba      	ldr	r2, [r7, #8]
 8006da2:	429a      	cmp	r2, r3
 8006da4:	bf0c      	ite	eq
 8006da6:	2301      	moveq	r3, #1
 8006da8:	2300      	movne	r3, #0
 8006daa:	b2db      	uxtb	r3, r3
 8006dac:	461a      	mov	r2, r3
 8006dae:	79fb      	ldrb	r3, [r7, #7]
 8006db0:	429a      	cmp	r2, r3
 8006db2:	d19b      	bne.n	8006cec <SPI_WaitFlagStateUntilTimeout+0x38>
    }
  }

  return HAL_OK;
 8006db4:	2300      	movs	r3, #0
}
 8006db6:	4618      	mov	r0, r3
 8006db8:	3720      	adds	r7, #32
 8006dba:	46bd      	mov	sp, r7
 8006dbc:	bd80      	pop	{r7, pc}
 8006dbe:	bf00      	nop
 8006dc0:	200005e0 	.word	0x200005e0

08006dc4 <SPI_EndRxTxTransaction>:
  * @param  Timeout Timeout duration
  * @param  Tickstart tick start value
  * @retval HAL status
  */
static HAL_StatusTypeDef SPI_EndRxTxTransaction(SPI_HandleTypeDef *hspi, uint32_t Timeout, uint32_t Tickstart)
{
 8006dc4:	b580      	push	{r7, lr}
 8006dc6:	b088      	sub	sp, #32
 8006dc8:	af02      	add	r7, sp, #8
 8006dca:	60f8      	str	r0, [r7, #12]
 8006dcc:	60b9      	str	r1, [r7, #8]
 8006dce:	607a      	str	r2, [r7, #4]
  /* Wait until TXE flag */
  if(SPI_WaitFlagStateUntilTimeout(hspi, SPI_FLAG_TXE, SET, Timeout, Tickstart) != HAL_OK)
 8006dd0:	687b      	ldr	r3, [r7, #4]
 8006dd2:	9300      	str	r3, [sp, #0]
 8006dd4:	68bb      	ldr	r3, [r7, #8]
 8006dd6:	2201      	movs	r2, #1
 8006dd8:	2102      	movs	r1, #2
 8006dda:	68f8      	ldr	r0, [r7, #12]
 8006ddc:	f7ff ff6a 	bl	8006cb4 <SPI_WaitFlagStateUntilTimeout>
 8006de0:	4603      	mov	r3, r0
 8006de2:	2b00      	cmp	r3, #0
 8006de4:	d007      	beq.n	8006df6 <SPI_EndRxTxTransaction+0x32>
  {
    SET_BIT(hspi->ErrorCode, HAL_SPI_ERROR_FLAG);
 8006de6:	68fb      	ldr	r3, [r7, #12]
 8006de8:	6d5b      	ldr	r3, [r3, #84]	@ 0x54
 8006dea:	f043 0220 	orr.w	r2, r3, #32
 8006dee:	68fb      	ldr	r3, [r7, #12]
 8006df0:	655a      	str	r2, [r3, #84]	@ 0x54
    return HAL_TIMEOUT;
 8006df2:	2303      	movs	r3, #3
 8006df4:	e032      	b.n	8006e5c <SPI_EndRxTxTransaction+0x98>
  }

  /* Timeout in s */
  __IO uint32_t count = SPI_BSY_FLAG_WORKAROUND_TIMEOUT * (SystemCoreClock / 24U / 1000000U);
 8006df6:	4b1b      	ldr	r3, [pc, #108]	@ (8006e64 <SPI_EndRxTxTransaction+0xa0>)
 8006df8:	681b      	ldr	r3, [r3, #0]
 8006dfa:	4a1b      	ldr	r2, [pc, #108]	@ (8006e68 <SPI_EndRxTxTransaction+0xa4>)
 8006dfc:	fba2 2303 	umull	r2, r3, r2, r3
 8006e00:	0d5b      	lsrs	r3, r3, #21
 8006e02:	f44f 727a 	mov.w	r2, #1000	@ 0x3e8
 8006e06:	fb02 f303 	mul.w	r3, r2, r3
 8006e0a:	617b      	str	r3, [r7, #20]
  /* Erratasheet: BSY bit may stay high at the end of a data transfer in Slave mode */
  if (hspi->Init.Mode == SPI_MODE_MASTER)
 8006e0c:	68fb      	ldr	r3, [r7, #12]
 8006e0e:	685b      	ldr	r3, [r3, #4]
 8006e10:	f5b3 7f82 	cmp.w	r3, #260	@ 0x104
 8006e14:	d112      	bne.n	8006e3c <SPI_EndRxTxTransaction+0x78>
  {
    /* Control the BSY flag */
    if (SPI_WaitFlagStateUntilTimeout(hspi, SPI_FLAG_BSY, RESET, Timeout, Tickstart) != HAL_OK)
 8006e16:	687b      	ldr	r3, [r7, #4]
 8006e18:	9300      	str	r3, [sp, #0]
 8006e1a:	68bb      	ldr	r3, [r7, #8]
 8006e1c:	2200      	movs	r2, #0
 8006e1e:	2180      	movs	r1, #128	@ 0x80
 8006e20:	68f8      	ldr	r0, [r7, #12]
 8006e22:	f7ff ff47 	bl	8006cb4 <SPI_WaitFlagStateUntilTimeout>
 8006e26:	4603      	mov	r3, r0
 8006e28:	2b00      	cmp	r3, #0
 8006e2a:	d016      	beq.n	8006e5a <SPI_EndRxTxTransaction+0x96>
    {
      SET_BIT(hspi->ErrorCode, HAL_SPI_ERROR_FLAG);
 8006e2c:	68fb      	ldr	r3, [r7, #12]
 8006e2e:	6d5b      	ldr	r3, [r3, #84]	@ 0x54
 8006e30:	f043 0220 	orr.w	r2, r3, #32
 8006e34:	68fb      	ldr	r3, [r7, #12]
 8006e36:	655a      	str	r2, [r3, #84]	@ 0x54
      return HAL_TIMEOUT;
 8006e38:	2303      	movs	r3, #3
 8006e3a:	e00f      	b.n	8006e5c <SPI_EndRxTxTransaction+0x98>
    * User have to calculate the timeout value to fit with the time of 1 byte transfer.
    * This time is directly link with the SPI clock from Master device.
    */
    do
    {
      if (count == 0U)
 8006e3c:	697b      	ldr	r3, [r7, #20]
 8006e3e:	2b00      	cmp	r3, #0
 8006e40:	d00a      	beq.n	8006e58 <SPI_EndRxTxTransaction+0x94>
      {
        break;
      }
      count--;
 8006e42:	697b      	ldr	r3, [r7, #20]
 8006e44:	3b01      	subs	r3, #1
 8006e46:	617b      	str	r3, [r7, #20]
    } while (__HAL_SPI_GET_FLAG(hspi, SPI_FLAG_BSY) != RESET);
 8006e48:	68fb      	ldr	r3, [r7, #12]
 8006e4a:	681b      	ldr	r3, [r3, #0]
 8006e4c:	689b      	ldr	r3, [r3, #8]
 8006e4e:	f003 0380 	and.w	r3, r3, #128	@ 0x80
 8006e52:	2b80      	cmp	r3, #128	@ 0x80
 8006e54:	d0f2      	beq.n	8006e3c <SPI_EndRxTxTransaction+0x78>
 8006e56:	e000      	b.n	8006e5a <SPI_EndRxTxTransaction+0x96>
        break;
 8006e58:	bf00      	nop
  }

  return HAL_OK;
 8006e5a:	2300      	movs	r3, #0
}
 8006e5c:	4618      	mov	r0, r3
 8006e5e:	3718      	adds	r7, #24
 8006e60:	46bd      	mov	sp, r7
 8006e62:	bd80      	pop	{r7, pc}
 8006e64:	200005e0 	.word	0x200005e0
 8006e68:	165e9f81 	.word	0x165e9f81

08006e6c <memset>:
 8006e6c:	4402      	add	r2, r0
 8006e6e:	4603      	mov	r3, r0
 8006e70:	4293      	cmp	r3, r2
 8006e72:	d100      	bne.n	8006e76 <memset+0xa>
 8006e74:	4770      	bx	lr
 8006e76:	f803 1b01 	strb.w	r1, [r3], #1
 8006e7a:	e7f9      	b.n	8006e70 <memset+0x4>

08006e7c <__libc_init_array>:
 8006e7c:	b570      	push	{r4, r5, r6, lr}
 8006e7e:	4d0d      	ldr	r5, [pc, #52]	@ (8006eb4 <__libc_init_array+0x38>)
 8006e80:	4c0d      	ldr	r4, [pc, #52]	@ (8006eb8 <__libc_init_array+0x3c>)
 8006e82:	1b64      	subs	r4, r4, r5
 8006e84:	10a4      	asrs	r4, r4, #2
 8006e86:	2600      	movs	r6, #0
 8006e88:	42a6      	cmp	r6, r4
 8006e8a:	d109      	bne.n	8006ea0 <__libc_init_array+0x24>
 8006e8c:	4d0b      	ldr	r5, [pc, #44]	@ (8006ebc <__libc_init_array+0x40>)
 8006e8e:	4c0c      	ldr	r4, [pc, #48]	@ (8006ec0 <__libc_init_array+0x44>)
 8006e90:	f000 f818 	bl	8006ec4 <_init>
 8006e94:	1b64      	subs	r4, r4, r5
 8006e96:	10a4      	asrs	r4, r4, #2
 8006e98:	2600      	movs	r6, #0
 8006e9a:	42a6      	cmp	r6, r4
 8006e9c:	d105      	bne.n	8006eaa <__libc_init_array+0x2e>
 8006e9e:	bd70      	pop	{r4, r5, r6, pc}
 8006ea0:	f855 3b04 	ldr.w	r3, [r5], #4
 8006ea4:	4798      	blx	r3
 8006ea6:	3601      	adds	r6, #1
 8006ea8:	e7ee      	b.n	8006e88 <__libc_init_array+0xc>
 8006eaa:	f855 3b04 	ldr.w	r3, [r5], #4
 8006eae:	4798      	blx	r3
 8006eb0:	3601      	adds	r6, #1
 8006eb2:	e7f2      	b.n	8006e9a <__libc_init_array+0x1e>
 8006eb4:	08007c88 	.word	0x08007c88
 8006eb8:	08007c88 	.word	0x08007c88
 8006ebc:	08007c88 	.word	0x08007c88
 8006ec0:	08007c8c 	.word	0x08007c8c

08006ec4 <_init>:
 8006ec4:	b5f8      	push	{r3, r4, r5, r6, r7, lr}
 8006ec6:	bf00      	nop
 8006ec8:	bcf8      	pop	{r3, r4, r5, r6, r7}
 8006eca:	bc08      	pop	{r3}
 8006ecc:	469e      	mov	lr, r3
 8006ece:	4770      	bx	lr

08006ed0 <_fini>:
 8006ed0:	b5f8      	push	{r3, r4, r5, r6, r7, lr}
 8006ed2:	bf00      	nop
 8006ed4:	bcf8      	pop	{r3, r4, r5, r6, r7}
 8006ed6:	bc08      	pop	{r3}
 8006ed8:	469e      	mov	lr, r3
 8006eda:	4770      	bx	lr
